
b.elf:     file format elf32-msp430


Disassembly of section .text:

0000c000 <__watchdog_support>:
    c000:	55 42 20 01 	mov.b	&0x0120,r5	
    c004:	35 d0 08 5a 	bis	#23048,	r5	;#0x5a08
    c008:	82 45 22 02 	mov	r5,	&0x0222	

0000c00c <__init_stack>:
    c00c:	31 40 00 04 	mov	#1024,	r1	;#0x0400

0000c010 <__do_copy_data>:
    c010:	3f 40 04 00 	mov	#4,	r15	;#0x0004
    c014:	0f 93       	tst	r15		
    c016:	08 24       	jz	$+18     	;abs 0xc028
    c018:	92 42 22 02 	mov	&0x0222,&0x0120	
    c01c:	20 01 
    c01e:	2f 83       	decd	r15		
    c020:	9f 4f ca c3 	mov	-15414(r15),512(r15);0xc3ca(r15), 0x0200(r15)
    c024:	00 02 
    c026:	f8 23       	jnz	$-14     	;abs 0xc018

0000c028 <__do_clear_bss>:
    c028:	3f 40 1e 00 	mov	#30,	r15	;#0x001e
    c02c:	0f 93       	tst	r15		
    c02e:	07 24       	jz	$+16     	;abs 0xc03e
    c030:	92 42 22 02 	mov	&0x0222,&0x0120	
    c034:	20 01 
    c036:	1f 83       	dec	r15		
    c038:	cf 43 04 02 	mov.b	#0,	516(r15);r3 As==00, 0x0204(r15)
    c03c:	f9 23       	jnz	$-12     	;abs 0xc030

0000c03e <main>:
    c03e:	04 41       	mov	r1,	r4	
    c040:	24 53       	incd	r4		
    c042:	21 83       	decd	r1		
    c044:	b2 40 80 5a 	mov	#23168,	&0x0120	;#0x5a80
    c048:	20 01 
    c04a:	c2 43 56 00 	mov.b	#0,	&0x0056	;r3 As==00
    c04e:	5f 42 f9 10 	mov.b	&0x10f9,r15	
    c052:	c2 4f 57 00 	mov.b	r15,	&0x0057	
    c056:	5f 42 f8 10 	mov.b	&0x10f8,r15	
    c05a:	c2 4f 56 00 	mov.b	r15,	&0x0056	
    c05e:	e2 42 58 00 	mov.b	#4,	&0x0058	;r2 As==10
    c062:	c2 43 53 00 	mov.b	#0,	&0x0053	;r3 As==00
    c066:	5f 42 2e 00 	mov.b	&0x002e,r15	
    c06a:	7f f0 3f 00 	and.b	#63,	r15	;#0x003f
    c06e:	c2 4f 2e 00 	mov.b	r15,	&0x002e	
    c072:	5f 42 2a 00 	mov.b	&0x002a,r15	
    c076:	f2 43 2a 00 	mov.b	#-1,	&0x002a	;r3 As==11
    c07a:	5f 42 29 00 	mov.b	&0x0029,r15	
    c07e:	c2 43 29 00 	mov.b	#0,	&0x0029	;r3 As==00
    c082:	5f 42 29 00 	mov.b	&0x0029,r15	
    c086:	6f d2       	bis.b	#4,	r15	;r2 As==10
    c088:	c2 4f 29 00 	mov.b	r15,	&0x0029	
    c08c:	5f 42 29 00 	mov.b	&0x0029,r15	
    c090:	7f d0 40 00 	bis.b	#64,	r15	;#0x0040
    c094:	c2 4f 29 00 	mov.b	r15,	&0x0029	
    c098:	5f 42 29 00 	mov.b	&0x0029,r15	
    c09c:	5f d3       	bis.b	#1,	r15	;r3 As==01
    c09e:	c2 4f 29 00 	mov.b	r15,	&0x0029	
    c0a2:	5f 42 26 00 	mov.b	&0x0026,r15	
    c0a6:	7f d0 b6 ff 	bis.b	#-74,	r15	;#0xffb6
    c0aa:	c2 4f 26 00 	mov.b	r15,	&0x0026	
    c0ae:	5f 42 41 00 	mov.b	&0x0041,r15	
    c0b2:	7f d0 a6 ff 	bis.b	#-90,	r15	;#0xffa6
    c0b6:	c2 4f 41 00 	mov.b	r15,	&0x0041	
    c0ba:	5f 42 22 00 	mov.b	&0x0022,r15	
    c0be:	7f d0 d1 ff 	bis.b	#-47,	r15	;#0xffd1
    c0c2:	c2 4f 22 00 	mov.b	r15,	&0x0022	
    c0c6:	5f 42 21 00 	mov.b	&0x0021,r15	
    c0ca:	c2 43 21 00 	mov.b	#0,	&0x0021	;r3 As==00
    c0ce:	5f 42 29 00 	mov.b	&0x0029,r15	
    c0d2:	6f d2       	bis.b	#4,	r15	;r2 As==10
    c0d4:	c2 4f 29 00 	mov.b	r15,	&0x0029	
    c0d8:	1f 42 62 01 	mov	&0x0162,r15	
    c0dc:	3f d0 10 00 	bis	#16,	r15	;#0x0010
    c0e0:	82 4f 62 01 	mov	r15,	&0x0162	
    c0e4:	1f 42 72 01 	mov	&0x0172,r15	
    c0e8:	3f d0 00 10 	bis	#4096,	r15	;#0x1000
    c0ec:	82 4f 72 01 	mov	r15,	&0x0172	
    c0f0:	1f 42 60 01 	mov	&0x0160,r15	
    c0f4:	3f d0 10 02 	bis	#528,	r15	;#0x0210
    c0f8:	82 4f 60 01 	mov	r15,	&0x0160	
    c0fc:	b0 12 7c c3 	call	#0xc37c	
    c100:	d2 43 68 00 	mov.b	#1,	&0x0068	;r3 As==01
    c104:	f2 40 89 ff 	mov.b	#-119,	&0x0068	;#0xff89
    c108:	68 00 
    c10a:	f2 40 81 ff 	mov.b	#-127,	&0x0069	;#0xff81
    c10e:	69 00 
    c110:	c2 43 03 00 	mov.b	#0,	&0x0003	;r3 As==00
    c114:	c2 43 63 00 	mov.b	#0,	&0x0063	;r3 As==00
    c118:	f2 40 23 00 	mov.b	#35,	&0x0062	;#0x0023
    c11c:	62 00 
    c11e:	c2 43 64 00 	mov.b	#0,	&0x0064	;r3 As==00
    c122:	5f 42 60 00 	mov.b	&0x0060,r15	
    c126:	6f d3       	bis.b	#2,	r15	;r3 As==10
    c128:	c2 4f 60 00 	mov.b	r15,	&0x0060	
    c12c:	c2 43 65 00 	mov.b	#0,	&0x0065	;r3 As==00
    c130:	c2 43 5e 00 	mov.b	#0,	&0x005e	;r3 As==00
    c134:	5f 42 61 00 	mov.b	&0x0061,r15	
    c138:	7f d2       	bis.b	#8,	r15	;r2 As==11
    c13a:	c2 4f 61 00 	mov.b	r15,	&0x0061	
    c13e:	5f 42 61 00 	mov.b	&0x0061,r15	
    c142:	7f f0 fe ff 	and.b	#-2,	r15	;#0xfffe
    c146:	c2 4f 61 00 	mov.b	r15,	&0x0061	
    c14a:	c2 43 01 00 	mov.b	#0,	&0x0001	;r3 As==00
    c14e:	d4 42 66 00 	mov.b	&0x0066,-4(r4)	;0xfffc(r4)
    c152:	fc ff 
    c154:	5f 42 03 00 	mov.b	&0x0003,r15	
    c158:	4f 4f       	mov.b	r15,	r15	
    c15a:	1f f3       	and	#1,	r15	;r3 As==01
    c15c:	4f 4f       	mov.b	r15,	r15	
    c15e:	4f 93       	tst.b	r15		
    c160:	f6 23       	jnz	$-18     	;abs 0xc14e
    c162:	5f 42 61 00 	mov.b	&0x0061,r15	
    c166:	7f d0 80 ff 	bis.b	#-128,	r15	;#0xff80
    c16a:	c2 4f 61 00 	mov.b	r15,	&0x0061	
    c16e:	b0 12 a2 c3 	call	#0xc3a2	
    c172:	32 d2       	eint			
    c174:	b0 12 84 c1 	call	#0xc184	
    c178:	fd 3f       	jmp	$-4      	;abs 0xc174

0000c17a <__stop_progExec__>:
    c17a:	32 d0 f0 00 	bis	#240,	r2	;#0x00f0
    c17e:	fd 3f       	jmp	$-4      	;abs 0xc17a

0000c180 <__ctors_end>:
    c180:	30 40 c8 c3 	br	#0xc3c8	

0000c184 <get_uart>:
    c184:	04 12       	push	r4		
    c186:	04 41       	mov	r1,	r4	
    c188:	24 53       	incd	r4		
    c18a:	21 83       	decd	r1		
    c18c:	5f 42 03 00 	mov.b	&0x0003,r15	
    c190:	4f 4f       	mov.b	r15,	r15	
    c192:	1f f3       	and	#1,	r15	;r3 As==01
    c194:	4f 4f       	mov.b	r15,	r15	
    c196:	4f 93       	tst.b	r15		
    c198:	72 24       	jz	$+230    	;abs 0xc27e
    c19a:	5f 42 65 00 	mov.b	&0x0065,r15	
    c19e:	4f 4f       	mov.b	r15,	r15	
    c1a0:	2f f3       	and	#2,	r15	;r3 As==10
    c1a2:	0f 93       	tst	r15		
    c1a4:	3a 24       	jz	$+118    	;abs 0xc21a
    c1a6:	5f 42 61 00 	mov.b	&0x0061,r15	
    c1aa:	7f d2       	bis.b	#8,	r15	;r2 As==11
    c1ac:	c2 4f 61 00 	mov.b	r15,	&0x0061	
    c1b0:	d4 42 66 00 	mov.b	&0x0066,-4(r4)	;0xfffc(r4)
    c1b4:	fc ff 
    c1b6:	5f 44 fc ff 	mov.b	-4(r4),	r15	;0xfffc(r4)
    c1ba:	3f f0 0f 00 	and	#15,	r15	;#0x000f
    c1be:	1f 93       	cmp	#1,	r15	;r3 As==01
    c1c0:	5d 20       	jnz	$+188    	;abs 0xc27c
    c1c2:	5f 44 fc ff 	mov.b	-4(r4),	r15	;0xfffc(r4)
    c1c6:	3f f0 f0 00 	and	#240,	r15	;#0x00f0
    c1ca:	0f 93       	tst	r15		
    c1cc:	04 24       	jz	$+10     	;abs 0xc1d6
    c1ce:	3f 90 10 00 	cmp	#16,	r15	;#0x0010
    c1d2:	12 24       	jz	$+38     	;abs 0xc1f8
    c1d4:	21 3c       	jmp	$+68     	;abs 0xc218
    c1d6:	5f 42 29 00 	mov.b	&0x0029,r15	
    c1da:	7f f0 fe ff 	and.b	#-2,	r15	;#0xfffe
    c1de:	c2 4f 29 00 	mov.b	r15,	&0x0029	
    c1e2:	82 43 02 02 	mov	#0,	&0x0202	;r3 As==00
    c1e6:	5f 42 61 00 	mov.b	&0x0061,r15	
    c1ea:	7f f0 f7 ff 	and.b	#-9,	r15	;#0xfff7
    c1ee:	c2 4f 61 00 	mov.b	r15,	&0x0061	
    c1f2:	92 43 04 02 	mov	#1,	&0x0204	;r3 As==01
    c1f6:	43 3c       	jmp	$+136    	;abs 0xc27e
    c1f8:	5f 42 29 00 	mov.b	&0x0029,r15	
    c1fc:	5f d3       	bis.b	#1,	r15	;r3 As==01
    c1fe:	c2 4f 29 00 	mov.b	r15,	&0x0029	
    c202:	b2 40 10 00 	mov	#16,	&0x0202	;#0x0010
    c206:	02 02 
    c208:	5f 42 61 00 	mov.b	&0x0061,r15	
    c20c:	7f f0 f7 ff 	and.b	#-9,	r15	;#0xfff7
    c210:	c2 4f 61 00 	mov.b	r15,	&0x0061	
    c214:	03 43       	nop			
    c216:	33 3c       	jmp	$+104    	;abs 0xc27e
    c218:	31 3c       	jmp	$+100    	;abs 0xc27c
    c21a:	5f 42 00 02 	mov.b	&0x0200,r15	
    c21e:	4f 4f       	mov.b	r15,	r15	
    c220:	5e 42 66 00 	mov.b	&0x0066,r14	
    c224:	cf 4e 08 02 	mov.b	r14,	520(r15);0x0208(r15)
    c228:	5f 42 00 02 	mov.b	&0x0200,r15	
    c22c:	5f 53       	inc.b	r15		
    c22e:	c2 4f 00 02 	mov.b	r15,	&0x0200	
    c232:	b0 12 84 c2 	call	#0xc284	
    c236:	5e 42 00 02 	mov.b	&0x0200,r14	
    c23a:	4e 9f       	cmp.b	r15,	r14	
    c23c:	20 28       	jnc	$+66     	;abs 0xc27e
    c23e:	5f 42 61 00 	mov.b	&0x0061,r15	
    c242:	7f d2       	bis.b	#8,	r15	;r2 As==11
    c244:	c2 4f 61 00 	mov.b	r15,	&0x0061	
    c248:	c2 43 00 02 	mov.b	#0,	&0x0200	;r3 As==00
    c24c:	5f 42 00 02 	mov.b	&0x0200,r15	
    c250:	4f 4f       	mov.b	r15,	r15	
    c252:	5f 4f 08 02 	mov.b	520(r15),r15	;0x0208(r15)
    c256:	c2 4f 6f 00 	mov.b	r15,	&0x006f	
    c25a:	5f 42 00 02 	mov.b	&0x0200,r15	
    c25e:	5f 53       	inc.b	r15		
    c260:	c2 4f 00 02 	mov.b	r15,	&0x0200	
    c264:	5f 42 69 00 	mov.b	&0x0069,r15	
    c268:	7f f0 fe ff 	and.b	#-2,	r15	;#0xfffe
    c26c:	c2 4f 69 00 	mov.b	r15,	&0x0069	
    c270:	5f 42 01 00 	mov.b	&0x0001,r15	
    c274:	7f d2       	bis.b	#8,	r15	;r2 As==11
    c276:	c2 4f 01 00 	mov.b	r15,	&0x0001	
    c27a:	01 3c       	jmp	$+4      	;abs 0xc27e
    c27c:	03 43       	nop			
    c27e:	21 53       	incd	r1		
    c280:	34 41       	pop	r4		
    c282:	30 41       	ret			

0000c284 <get_data_length>:
    c284:	04 12       	push	r4		
    c286:	04 41       	mov	r1,	r4	
    c288:	24 53       	incd	r4		
    c28a:	21 83       	decd	r1		
    c28c:	c4 43 fc ff 	mov.b	#0,	-4(r4)	;r3 As==00, 0xfffc(r4)
    c290:	1f 42 02 02 	mov	&0x0202,r15	
    c294:	0f 93       	tst	r15		
    c296:	04 20       	jnz	$+10     	;abs 0xc2a0
    c298:	f4 40 19 00 	mov.b	#25,	-4(r4)	;#0x0019, 0xfffc(r4)
    c29c:	fc ff 
    c29e:	08 3c       	jmp	$+18     	;abs 0xc2b0
    c2a0:	1f 42 02 02 	mov	&0x0202,r15	
    c2a4:	3f 90 10 00 	cmp	#16,	r15	;#0x0010
    c2a8:	03 20       	jnz	$+8      	;abs 0xc2b0
    c2aa:	f4 40 0d 00 	mov.b	#13,	-4(r4)	;#0x000d, 0xfffc(r4)
    c2ae:	fc ff 
    c2b0:	5f 44 fc ff 	mov.b	-4(r4),	r15	;0xfffc(r4)
    c2b4:	21 53       	incd	r1		
    c2b6:	34 41       	pop	r4		
    c2b8:	30 41       	ret			

0000c2ba <USCI_B0_TX_ISR>:
    c2ba:	0f 12       	push	r15		
    c2bc:	0e 12       	push	r14		
    c2be:	0d 12       	push	r13		
    c2c0:	0c 12       	push	r12		
    c2c2:	04 12       	push	r4		
    c2c4:	04 41       	mov	r1,	r4	
    c2c6:	34 50 0a 00 	add	#10,	r4	;#0x000a
    c2ca:	5f 42 00 02 	mov.b	&0x0200,r15	
    c2ce:	4f 4f       	mov.b	r15,	r15	
    c2d0:	5f 4f 08 02 	mov.b	520(r15),r15	;0x0208(r15)
    c2d4:	c2 4f 6f 00 	mov.b	r15,	&0x006f	
    c2d8:	5f 42 00 02 	mov.b	&0x0200,r15	
    c2dc:	5f 53       	inc.b	r15		
    c2de:	c2 4f 00 02 	mov.b	r15,	&0x0200	
    c2e2:	b0 12 84 c2 	call	#0xc284	
    c2e6:	5e 42 00 02 	mov.b	&0x0200,r14	
    c2ea:	4e 9f       	cmp.b	r15,	r14	
    c2ec:	0f 28       	jnc	$+32     	;abs 0xc30c
    c2ee:	d2 43 00 02 	mov.b	#1,	&0x0200	;r3 As==01
    c2f2:	92 43 06 02 	mov	#1,	&0x0206	;r3 As==01
    c2f6:	5f 42 69 00 	mov.b	&0x0069,r15	
    c2fa:	5f d3       	bis.b	#1,	r15	;r3 As==01
    c2fc:	c2 4f 69 00 	mov.b	r15,	&0x0069	
    c300:	5f 42 01 00 	mov.b	&0x0001,r15	
    c304:	7f f0 f7 ff 	and.b	#-9,	r15	;#0xfff7
    c308:	c2 4f 01 00 	mov.b	r15,	&0x0001	
    c30c:	34 41       	pop	r4		
    c30e:	3c 41       	pop	r12		
    c310:	3d 41       	pop	r13		
    c312:	3e 41       	pop	r14		
    c314:	3f 41       	pop	r15		
    c316:	00 13       	reti			

0000c318 <TIMER0_A0_ISR>:
    c318:	0f 12       	push	r15		
    c31a:	0e 12       	push	r14		
    c31c:	0d 12       	push	r13		
    c31e:	0c 12       	push	r12		
    c320:	04 12       	push	r4		
    c322:	04 41       	mov	r1,	r4	
    c324:	34 50 0a 00 	add	#10,	r4	;#0x000a
    c328:	b0 12 7c c3 	call	#0xc37c	
    c32c:	5f 42 29 00 	mov.b	&0x0029,r15	
    c330:	6f d2       	bis.b	#4,	r15	;r2 As==10
    c332:	c2 4f 29 00 	mov.b	r15,	&0x0029	
    c336:	1f 42 06 02 	mov	&0x0206,r15	
    c33a:	0f 93       	tst	r15		
    c33c:	0d 24       	jz	$+28     	;abs 0xc358
    c33e:	5f 42 29 00 	mov.b	&0x0029,r15	
    c342:	6f d3       	bis.b	#2,	r15	;r3 As==10
    c344:	c2 4f 29 00 	mov.b	r15,	&0x0029	
    c348:	5f 42 29 00 	mov.b	&0x0029,r15	
    c34c:	7f f0 fd ff 	and.b	#-3,	r15	;#0xfffd
    c350:	c2 4f 29 00 	mov.b	r15,	&0x0029	
    c354:	82 43 06 02 	mov	#0,	&0x0206	;r3 As==00
    c358:	1f 42 04 02 	mov	&0x0204,r15	
    c35c:	1f 93       	cmp	#1,	r15	;r3 As==01
    c35e:	06 20       	jnz	$+14     	;abs 0xc36c
    c360:	5f 42 29 00 	mov.b	&0x0029,r15	
    c364:	7f f0 fb ff 	and.b	#-5,	r15	;#0xfffb
    c368:	c2 4f 29 00 	mov.b	r15,	&0x0029	
    c36c:	b0 12 a2 c3 	call	#0xc3a2	
    c370:	34 41       	pop	r4		
    c372:	3c 41       	pop	r12		
    c374:	3d 41       	pop	r13		
    c376:	3e 41       	pop	r14		
    c378:	3f 41       	pop	r15		
    c37a:	00 13       	reti			

0000c37c <stop_GSCycle>:
    c37c:	04 12       	push	r4		
    c37e:	04 41       	mov	r1,	r4	
    c380:	24 53       	incd	r4		
    c382:	5f 42 26 00 	mov.b	&0x0026,r15	
    c386:	7f f0 ef ff 	and.b	#-17,	r15	;#0xffef
    c38a:	c2 4f 26 00 	mov.b	r15,	&0x0026	
    c38e:	1f 42 60 01 	mov	&0x0160,r15	
    c392:	3f f0 cf ff 	and	#-49,	r15	;#0xffcf
    c396:	82 4f 60 01 	mov	r15,	&0x0160	
    c39a:	82 43 70 01 	mov	#0,	&0x0170	;r3 As==00
    c39e:	34 41       	pop	r4		
    c3a0:	30 41       	ret			

0000c3a2 <start_GSCycle>:
    c3a2:	04 12       	push	r4		
    c3a4:	04 41       	mov	r1,	r4	
    c3a6:	24 53       	incd	r4		
    c3a8:	82 43 70 01 	mov	#0,	&0x0170	;r3 As==00
    c3ac:	1f 42 60 01 	mov	&0x0160,r15	
    c3b0:	3f d0 10 00 	bis	#16,	r15	;#0x0010
    c3b4:	82 4f 60 01 	mov	r15,	&0x0160	
    c3b8:	5f 42 26 00 	mov.b	&0x0026,r15	
    c3bc:	7f d0 10 00 	bis.b	#16,	r15	;#0x0010
    c3c0:	c2 4f 26 00 	mov.b	r15,	&0x0026	
    c3c4:	34 41       	pop	r4		
    c3c6:	30 41       	ret			

0000c3c8 <_unexpected_>:
    c3c8:	00 13       	reti			

Disassembly of section .data:

00000200 <S_Index>:
 200:	01 00       	.word	0x0001;	????	

00000202 <Curr_CMD>:
 202:	10 00       	.word	0x0010;	????	

Disassembly of section .bss:

00000204 <Init_Complete>:
	...

00000206 <XLAT_Trig>:
	...

00000208 <S_Data>:
	...

Disassembly of section .noinit:

00000222 <__wdt_clear_value>:
	...

Disassembly of section .vectors:

0000ffe0 <__ivtbl_16>:
    ffe0:	80 c1 80 c1 	bic	r1,	-16000(r0);PC rel. 0xc162
    ffe4:	80 c1 80 c1 	bic	r1,	-16000(r0);PC rel. 0xc166
    ffe8:	80 c1 80 c1 	bic	r1,	-16000(r0);PC rel. 0xc16a
    ffec:	ba c2 80 c1 	bic	#8,	-16000(r10);r2 As==11, 0xc180(r10)
    fff0:	80 c1 18 c3 	bic	r1,	-15592(r0);PC rel. 0xc30a
    fff4:	80 c1 80 c1 	bic	r1,	-16000(r0);PC rel. 0xc176
    fff8:	80 c1 80 c1 	bic	r1,	-16000(r0);PC rel. 0xc17a
    fffc:	80 c1 00 c0 	bic	r1,	-16384(r0);PC rel. 0xbffe

Disassembly of section .debug_aranges:

00000000 <.debug_aranges>:
   0:	14 00       	.word	0x0014;	????	
   2:	00 00       	.word	0x0000;	????	
   4:	02 00       	.word	0x0002;	????	
   6:	00 00       	.word	0x0000;	????	
   8:	00 00       	.word	0x0000;	????	
   a:	02 00       	.word	0x0002;	????	
   c:	84 c1 44 02 	bic	r1,	580(r4)	;0x0244(r4)
  10:	3e c0 3c 01 	bic	#316,	r14	;#0x013c
  14:	00 00       	.word	0x0000;	????	
  16:	00 00       	.word	0x0000;	????	
  18:	10 00       	.word	0x0010;	????	
  1a:	00 00       	.word	0x0000;	????	
  1c:	02 00       	.word	0x0002;	????	
  1e:	08 04       	.word	0x0408;	????	
  20:	00 00       	.word	0x0000;	????	
  22:	02 00       	.word	0x0002;	????	
  24:	00 c0       	bic	r0,	r0	
  26:	0c 00       	.word	0x000c;	????	
  28:	00 00       	.word	0x0000;	????	
  2a:	00 00       	.word	0x0000;	????	
  2c:	10 00       	.word	0x0010;	????	
  2e:	00 00       	.word	0x0000;	????	
  30:	02 00       	.word	0x0002;	????	
  32:	c0 04       	.word	0x04c0;	????	
  34:	00 00       	.word	0x0000;	????	
  36:	02 00       	.word	0x0002;	????	
  38:	0c c0       	bic	r0,	r12	
  3a:	04 00       	.word	0x0004;	????	
  3c:	00 00       	.word	0x0000;	????	
  3e:	00 00       	.word	0x0000;	????	
  40:	10 00       	.word	0x0010;	????	
  42:	00 00       	.word	0x0000;	????	
  44:	02 00       	.word	0x0002;	????	
  46:	78 05       	.word	0x0578;	????	
  48:	00 00       	.word	0x0000;	????	
  4a:	02 00       	.word	0x0002;	????	
  4c:	10 c0 18 00 	bic	24(r0),	r0	;PC rel. 0x0066
  50:	00 00       	.word	0x0000;	????	
  52:	00 00       	.word	0x0000;	????	
  54:	10 00       	.word	0x0010;	????	
  56:	00 00       	.word	0x0000;	????	
  58:	02 00       	.word	0x0002;	????	
  5a:	30 06       	.word	0x0630;	????	
  5c:	00 00       	.word	0x0000;	????	
  5e:	02 00       	.word	0x0002;	????	
  60:	28 c0       	bic	@r0,	r8	
  62:	16 00       	.word	0x0016;	????	
  64:	00 00       	.word	0x0000;	????	
  66:	00 00       	.word	0x0000;	????	
  68:	10 00       	.word	0x0010;	????	
  6a:	00 00       	.word	0x0000;	????	
  6c:	02 00       	.word	0x0002;	????	
  6e:	e8 06       	.word	0x06e8;	????	
  70:	00 00       	.word	0x0000;	????	
  72:	02 00       	.word	0x0002;	????	
  74:	7a c1       	bic.b	@r1+,	r10	
  76:	06 00       	.word	0x0006;	????	
  78:	00 00       	.word	0x0000;	????	
  7a:	00 00       	.word	0x0000;	????	
  7c:	10 00       	.word	0x0010;	????	
  7e:	00 00       	.word	0x0000;	????	
  80:	02 00       	.word	0x0002;	????	
  82:	a0 07       	.word	0x07a0;	????	
  84:	00 00       	.word	0x0000;	????	
  86:	02 00       	.word	0x0002;	????	
  88:	c8 c3 02 00 	bic.b	#0,	2(r8)	;r3 As==00, 0x0002(r8)
  8c:	00 00       	.word	0x0000;	????	
	...

Disassembly of section .debug_info:

00000000 <.debug_info>:
   0:	04 04       	.word	0x0404;	????	
   2:	00 00       	.word	0x0000;	????	
   4:	02 00       	.word	0x0002;	????	
   6:	00 00       	.word	0x0000;	????	
   8:	00 00       	.word	0x0000;	????	
   a:	02 01       	.word	0x0102;	????	
   c:	cd 00       	.word	0x00cd;	????	
   e:	00 00       	.word	0x0000;	????	
  10:	01 e6       	xor	r6,	r1	
  12:	01 00       	.word	0x0001;	????	
  14:	00 62       	addc	r2,	r0	
  16:	01 00       	.word	0x0001;	????	
	...
  28:	00 02       	.word	0x0200;	????	
  2a:	02 07       	.word	0x0702;	????	
  2c:	44 01       	.word	0x0144;	????	
  2e:	00 00       	.word	0x0000;	????	
  30:	02 01       	.word	0x0102;	????	
  32:	06 25       	jz	$+526    	;abs 0x240
  34:	01 00       	.word	0x0001;	????	
  36:	00 03       	.word	0x0300;	????	
  38:	02 05       	.word	0x0502;	????	
  3a:	69 6e       	addc.b	@r14,	r9	
  3c:	74 00       	.word	0x0074;	????	
  3e:	02 04       	.word	0x0402;	????	
  40:	05 a5       	dadd	r5,	r5	
  42:	00 00       	.word	0x0000;	????	
  44:	00 02       	.word	0x0200;	????	
  46:	08 05       	.word	0x0508;	????	
  48:	a0 00       	.word	0x00a0;	????	
  4a:	00 00       	.word	0x0000;	????	
  4c:	04 83       	sub	#0,	r4	;r3 As==00
  4e:	00 00       	.word	0x0000;	????	
  50:	00 02       	.word	0x0200;	????	
  52:	2b 57       	add	@r7,	r11	
  54:	00 00       	.word	0x0000;	????	
  56:	00 02       	.word	0x0200;	????	
  58:	01 08       	.word	0x0801;	????	
  5a:	23 01       	.word	0x0123;	????	
  5c:	00 00       	.word	0x0000;	????	
  5e:	02 04       	.word	0x0402;	????	
  60:	07 3f       	jmp	$-496    	;abs 0xfe70
  62:	01 00       	.word	0x0001;	????	
  64:	00 02       	.word	0x0200;	????	
  66:	08 07       	.word	0x0708;	????	
  68:	3a 01       	.word	0x013a;	????	
  6a:	00 00       	.word	0x0000;	????	
  6c:	05 02       	.word	0x0205;	????	
  6e:	01 1c       	.word	0x1c01;	????	
  70:	81 00       	.word	0x0081;	????	
  72:	00 00       	.word	0x0000;	????	
  74:	06 c0       	bic	r0,	r6	
  76:	01 00       	.word	0x0001;	????	
  78:	00 00       	.word	0x0000;	????	
  7a:	06 b8       	bit	r8,	r6	
  7c:	01 00       	.word	0x0001;	????	
  7e:	00 10       	rrc	r0		
  80:	00 04       	.word	0x0400;	????	
  82:	5d 01       	.word	0x015d;	????	
  84:	00 00       	.word	0x0000;	????	
  86:	01 1f       	.word	0x1f01;	????	
  88:	6c 00       	.word	0x006c;	????	
  8a:	00 00       	.word	0x0000;	????	
  8c:	05 02       	.word	0x0205;	????	
  8e:	01 2f       	jc	$-508    	;abs 0xfe92
  90:	a1 00       	.word	0x00a1;	????	
  92:	00 00       	.word	0x0000;	????	
  94:	06 22       	jnz	$-1010   	;abs 0xfca2
  96:	00 00       	.word	0x0000;	????	
  98:	00 00       	.word	0x0000;	????	
  9a:	06 6e       	addc	r14,	r6	
  9c:	02 00       	.word	0x0002;	????	
  9e:	00 01       	.word	0x0100;	????	
  a0:	00 04       	.word	0x0400;	????	
  a2:	8b 00       	.word	0x008b;	????	
  a4:	00 00       	.word	0x0000;	????	
  a6:	01 32       	jn	$-1020   	;abs 0xfcaa
  a8:	8c 00       	.word	0x008c;	????	
  aa:	00 00       	.word	0x0000;	????	
  ac:	07 01       	.word	0x0107;	????	
  ae:	44 00       	.word	0x0044;	????	
  b0:	00 00       	.word	0x0000;	????	
  b2:	01 71       	subc	r1,	r1	
  b4:	01 37       	jge	$-508    	;abs 0xfeb8
  b6:	00 00       	.word	0x0000;	????	
  b8:	00 3e       	jmp	$-1022   	;abs 0xfcba
  ba:	c0 7a c1 00 	subc.b	r10,	193(r0)	;PC rel. 0x017d
  be:	00 00       	.word	0x0000;	????	
  c0:	00 da       	bis	r10,	r0	
  c2:	00 00       	.word	0x0000;	????	
  c4:	00 08       	.word	0x0800;	????	
  c6:	4e c1       	bic.b	r1,	r14	
  c8:	54 c1 09 13 	bic.b	4873(r1),r4	;0x1309(r1)
  cc:	01 00       	.word	0x0001;	????	
  ce:	00 01       	.word	0x0100;	????	
  d0:	ba 4c 00 00 	mov	@r12+,	0(r10)	;0x0000(r10)
  d4:	00 02       	.word	0x0200;	????	
  d6:	91 7c 00 00 	subc	0(r12),	266(r1)	;0x0000(r12), 0x010a(r1)
  da:	0a 01 
  dc:	0a 01       	.word	0x010a;	????	
  de:	00 00       	.word	0x0000;	????	
  e0:	01 cf       	bic	r15,	r1	
  e2:	84 c1 84 c2 	bic	r1,	-15740(r4);0xc284(r4)
  e6:	1c 00       	.word	0x001c;	????	
  e8:	00 00       	.word	0x0000;	????	
  ea:	fd 00       	.word	0x00fd;	????	
  ec:	00 00       	.word	0x0000;	????	
  ee:	09 89       	sub	r9,	r9	
  f0:	02 00       	.word	0x0002;	????	
  f2:	00 01       	.word	0x0100;	????	
  f4:	d1 4c 00 00 	mov.b	0(r12),	512(r1)	;0x0000(r12), 0x0200(r1)
  f8:	00 02 
  fa:	91 7a 00 0b 	subc	2816(r10),1(r1)	;0x0b00(r10), 0x0001(r1)
  fe:	01 00 
 100:	00 00       	.word	0x0000;	????	
 102:	00 01       	.word	0x0100;	????	
 104:	14 01       	.word	0x0114;	????	
 106:	4c 00       	.word	0x004c;	????	
 108:	00 00       	.word	0x0000;	????	
 10a:	84 c2 ba c2 	bic	r2,	-15686(r4);0xc2ba(r4)
 10e:	40 00       	.word	0x0040;	????	
 110:	00 00       	.word	0x0000;	????	
 112:	26 01       	.word	0x0126;	????	
 114:	00 00       	.word	0x0000;	????	
 116:	0c 09       	.word	0x090c;	????	
 118:	00 00       	.word	0x0000;	????	
 11a:	00 01       	.word	0x0100;	????	
 11c:	16 01       	.word	0x0116;	????	
 11e:	4c 00       	.word	0x004c;	????	
 120:	00 00       	.word	0x0000;	????	
 122:	02 91       	cmp	r1,	r2	
 124:	7a 00       	.word	0x007a;	????	
 126:	0d 01       	.word	0x010d;	????	
 128:	a9 01       	.word	0x01a9;	????	
 12a:	00 00       	.word	0x0000;	????	
 12c:	01 26       	jz	$-1020   	;abs 0xfd30
 12e:	01 01       	.word	0x0101;	????	
 130:	ba c2 18 c3 	bic	#8,	-15592(r10);r2 As==11, 0xc318(r10)
 134:	64 00       	.word	0x0064;	????	
 136:	00 00       	.word	0x0000;	????	
 138:	0d 01       	.word	0x010d;	????	
 13a:	3e 02       	.word	0x023e;	????	
 13c:	00 00       	.word	0x0000;	????	
 13e:	01 4b       	mov	r11,	r1	
 140:	01 01       	.word	0x0101;	????	
 142:	18 c3       	bic	#1,	r8	;r3 As==01
 144:	7c c3       	bic.b	#-1,	r12	;r3 As==11
 146:	a8 00       	.word	0x00a8;	????	
 148:	00 00       	.word	0x0000;	????	
 14a:	0e 01       	.word	0x010e;	????	
 14c:	b7 00       	.word	0x00b7;	????	
 14e:	00 00       	.word	0x0000;	????	
 150:	01 72       	subc	r2,	r1	
 152:	01 7c       	subc	r12,	r1	
 154:	c3 a2       	dadd.b	r2,	#1	;r3 As==01
 156:	c3 ec       	xor.b	r12,	#1	;r3 As==01
 158:	00 00       	.word	0x0000;	????	
 15a:	00 0e       	.word	0x0e00;	????	
 15c:	01 28       	jnc	$+4      	;abs 0x160
 15e:	00 00       	.word	0x0000;	????	
 160:	00 01       	.word	0x0100;	????	
 162:	87 01       	.word	0x0187;	????	
 164:	a2 c3 c8 c3 	bic	#2,	&0xc3c8	;r3 As==10
 168:	10 01       	.word	0x0110;	????	
 16a:	00 00       	.word	0x0000;	????	
 16c:	0f 49       	mov	r9,	r15	
 16e:	45 32       	jn	$-884    	;abs 0xfdfa
 170:	00 03       	.word	0x0300;	????	
 172:	96 3e       	jmp	$-722    	;abs 0xfea0
 174:	00 00       	.word	0x0000;	????	
 176:	00 7d       	subc	r13,	r0	
 178:	01 00       	.word	0x0001;	????	
 17a:	00 01       	.word	0x0100;	????	
 17c:	01 10       	rrc	r1		
 17e:	57 00       	.word	0x0057;	????	
 180:	00 00       	.word	0x0000;	????	
 182:	11 2a       	jnc	$-988    	;abs 0xfda6
 184:	02 00       	.word	0x0002;	????	
 186:	00 03       	.word	0x0300;	????	
 188:	9e 28       	jnc	$+318    	;abs 0x2c6
 18a:	02 00       	.word	0x0002;	????	
 18c:	00 7d       	subc	r13,	r0	
 18e:	01 00       	.word	0x0001;	????	
 190:	00 01       	.word	0x0100;	????	
 192:	01 12       	push	r1		
 194:	b0 00       	.word	0x00b0;	????	
 196:	00 00       	.word	0x0000;	????	
 198:	03 22       	jnz	$-1016   	;abs 0xfda0
 19a:	01 ae       	dadd	r14,	r1	
 19c:	00 00       	.word	0x0000;	????	
 19e:	00 7d       	subc	r13,	r0	
 1a0:	01 00       	.word	0x0001;	????	
 1a2:	00 01       	.word	0x0100;	????	
 1a4:	01 12       	push	r1		
 1a6:	ef 01       	.word	0x01ef;	????	
 1a8:	00 00       	.word	0x0000;	????	
 1aa:	03 24       	jz	$+8      	;abs 0x1b2
 1ac:	01 ed       	xor	r13,	r1	
 1ae:	01 00       	.word	0x0001;	????	
 1b0:	00 7d       	subc	r13,	r0	
 1b2:	01 00       	.word	0x0001;	????	
 1b4:	00 01       	.word	0x0100;	????	
 1b6:	01 12       	push	r1		
 1b8:	f9 01       	.word	0x01f9;	????	
 1ba:	00 00       	.word	0x0000;	????	
 1bc:	03 26       	jz	$-1016   	;abs 0xfdc4
 1be:	01 f7       	and	r7,	r1	
 1c0:	01 00       	.word	0x0001;	????	
 1c2:	00 7d       	subc	r13,	r0	
 1c4:	01 00       	.word	0x0001;	????	
 1c6:	00 01       	.word	0x0100;	????	
 1c8:	01 12       	push	r1		
 1ca:	03 02       	.word	0x0203;	????	
 1cc:	00 00       	.word	0x0000;	????	
 1ce:	03 28       	jnc	$+8      	;abs 0x1d6
 1d0:	01 01       	.word	0x0101;	????	
 1d2:	02 00       	.word	0x0002;	????	
 1d4:	00 7d       	subc	r13,	r0	
 1d6:	01 00       	.word	0x0001;	????	
 1d8:	00 01       	.word	0x0100;	????	
 1da:	01 12       	push	r1		
 1dc:	1c 00       	.word	0x001c;	????	
 1de:	00 00       	.word	0x0000;	????	
 1e0:	03 d8       	.word	0xd803;	????	Illegal as 2-op instr
 1e2:	01 1a       	.word	0x1a01;	????	
 1e4:	00 00       	.word	0x0000;	????	
 1e6:	00 7d       	subc	r13,	r0	
 1e8:	01 00       	.word	0x0001;	????	
 1ea:	00 01       	.word	0x0100;	????	
 1ec:	01 12       	push	r1		
 1ee:	38 00       	.word	0x0038;	????	
 1f0:	00 00       	.word	0x0000;	????	
 1f2:	03 da       	.word	0xda03;	????	Illegal as 2-op instr
 1f4:	01 36       	jge	$-1020   	;abs 0xfdf8
 1f6:	00 00       	.word	0x0000;	????	
 1f8:	00 7d       	subc	r13,	r0	
 1fa:	01 00       	.word	0x0001;	????	
 1fc:	00 01       	.word	0x0100;	????	
 1fe:	01 12       	push	r1		
 200:	92 00       	.word	0x0092;	????	
 202:	00 00       	.word	0x0000;	????	
 204:	03 e2       	.word	0xe203;	????	Illegal as 2-op instr
 206:	01 90       	cmp	r0,	r1	
 208:	00 00       	.word	0x0000;	????	
 20a:	00 7d       	subc	r13,	r0	
 20c:	01 00       	.word	0x0001;	????	
 20e:	00 01       	.word	0x0100;	????	
 210:	01 12       	push	r1		
 212:	33 01       	.word	0x0133;	????	
 214:	00 00       	.word	0x0000;	????	
 216:	03 e4       	.word	0xe403;	????	Illegal as 2-op instr
 218:	01 31       	jn	$+516    	;abs 0x41c
 21a:	01 00       	.word	0x0001;	????	
 21c:	00 7d       	subc	r13,	r0	
 21e:	01 00       	.word	0x0001;	????	
 220:	00 01       	.word	0x0100;	????	
 222:	01 12       	push	r1		
 224:	9a 00       	.word	0x009a;	????	
 226:	00 00       	.word	0x0000;	????	
 228:	03 eb       	.word	0xeb03;	????	Illegal as 2-op instr
 22a:	01 98       	cmp	r8,	r1	
 22c:	00 00       	.word	0x0000;	????	
 22e:	00 7d       	subc	r13,	r0	
 230:	01 00       	.word	0x0001;	????	
 232:	00 01       	.word	0x0100;	????	
 234:	01 12       	push	r1		
 236:	04 01       	.word	0x0104;	????	
 238:	00 00       	.word	0x0000;	????	
 23a:	03 ed       	.word	0xed03;	????	Illegal as 2-op instr
 23c:	01 02       	.word	0x0201;	????	
 23e:	01 00       	.word	0x0001;	????	
 240:	00 7d       	subc	r13,	r0	
 242:	01 00       	.word	0x0001;	????	
 244:	00 01       	.word	0x0100;	????	
 246:	01 12       	push	r1		
 248:	53 01       	.word	0x0153;	????	
 24a:	00 00       	.word	0x0000;	????	
 24c:	03 f5       	.word	0xf503;	????	Illegal as 2-op instr
 24e:	01 51       	rla	r1		
 250:	01 00       	.word	0x0001;	????	
 252:	00 7d       	subc	r13,	r0	
 254:	01 00       	.word	0x0001;	????	
 256:	00 01       	.word	0x0100;	????	
 258:	01 12       	push	r1		
 25a:	d5 01       	.word	0x01d5;	????	
 25c:	00 00       	.word	0x0000;	????	
 25e:	03 15       	.word	0x1503;	????	
 260:	02 d3       	bis	#0,	r2	;r3 As==00
 262:	01 00       	.word	0x0001;	????	
 264:	00 6b       	addc	r11,	r0	
 266:	02 00       	.word	0x0002;	????	
 268:	00 01       	.word	0x0100;	????	
 26a:	01 10       	rrc	r1		
 26c:	29 00       	.word	0x0029;	????	
 26e:	00 00       	.word	0x0000;	????	
 270:	12 7a 00 00 	subc	0(r10),	r2	;0x0000(r10)
 274:	00 03       	.word	0x0300;	????	
 276:	17 02       	.word	0x0217;	????	
 278:	78 00       	.word	0x0078;	????	
 27a:	00 00       	.word	0x0000;	????	
 27c:	6b 02       	.word	0x026b;	????	
 27e:	00 00       	.word	0x0000;	????	
 280:	01 01       	.word	0x0101;	????	
 282:	12 4b 00 00 	mov	0(r11),	r2	;0x0000(r11)
 286:	00 03       	.word	0x0300;	????	
 288:	1d 02       	.word	0x021d;	????	
 28a:	49 00       	.word	0x0049;	????	
 28c:	00 00       	.word	0x0000;	????	
 28e:	6b 02       	.word	0x026b;	????	
 290:	00 00       	.word	0x0000;	????	
 292:	01 01       	.word	0x0101;	????	
 294:	12 20       	jnz	$+38     	;abs 0x2ba
 296:	02 00       	.word	0x0002;	????	
 298:	00 03       	.word	0x0300;	????	
 29a:	1f 02       	.word	0x021f;	????	
 29c:	1e 02       	.word	0x021e;	????	
 29e:	00 00       	.word	0x0000;	????	
 2a0:	6b 02       	.word	0x026b;	????	
 2a2:	00 00       	.word	0x0000;	????	
 2a4:	01 01       	.word	0x0101;	????	
 2a6:	12 4e 02 00 	mov	2(r14),	r2	;0x0002(r14)
 2aa:	00 03       	.word	0x0300;	????	
 2ac:	ad 02       	.word	0x02ad;	????	
 2ae:	4c 02       	.word	0x024c;	????	
 2b0:	00 00       	.word	0x0000;	????	
 2b2:	7d 01       	.word	0x017d;	????	
 2b4:	00 00       	.word	0x0000;	????	
 2b6:	01 01       	.word	0x0101;	????	
 2b8:	12 59 02 00 	add	2(r9),	r2	;0x0002(r9)
 2bc:	00 03       	.word	0x0300;	????	
 2be:	af 02       	.word	0x02af;	????	
 2c0:	57 02       	.word	0x0257;	????	
 2c2:	00 00       	.word	0x0000;	????	
 2c4:	7d 01       	.word	0x017d;	????	
 2c6:	00 00       	.word	0x0000;	????	
 2c8:	01 01       	.word	0x0101;	????	
 2ca:	12 de 01 00 	bis	1(r14),	r2	;0x0001(r14)
 2ce:	00 03       	.word	0x0300;	????	
 2d0:	b1 02       	.word	0x02b1;	????	
 2d2:	dc 01       	.word	0x01dc;	????	
 2d4:	00 00       	.word	0x0000;	????	
 2d6:	7d 01       	.word	0x017d;	????	
 2d8:	00 00       	.word	0x0000;	????	
 2da:	01 01       	.word	0x0101;	????	
 2dc:	12 12 00 00 	push	&0x0000	
 2e0:	00 03       	.word	0x0300;	????	
 2e2:	b3 02       	.word	0x02b3;	????	
 2e4:	10 00       	.word	0x0010;	????	
 2e6:	00 00       	.word	0x0000;	????	
 2e8:	7d 01       	.word	0x017d;	????	
 2ea:	00 00       	.word	0x0000;	????	
 2ec:	01 01       	.word	0x0101;	????	
 2ee:	12 ca 01 00 	bic	1(r10),	r2	;0x0001(r10)
 2f2:	00 03       	.word	0x0300;	????	
 2f4:	b5 02       	.word	0x02b5;	????	
 2f6:	c8 01       	.word	0x01c8;	????	
 2f8:	00 00       	.word	0x0000;	????	
 2fa:	7d 01       	.word	0x017d;	????	
 2fc:	00 00       	.word	0x0000;	????	
 2fe:	01 01       	.word	0x0101;	????	
 300:	12 6f 00 00 	addc	0(r15),	r2	;0x0000(r15)
 304:	00 03       	.word	0x0300;	????	
 306:	b7 02       	.word	0x02b7;	????	
 308:	6d 00       	.word	0x006d;	????	
 30a:	00 00       	.word	0x0000;	????	
 30c:	7d 01       	.word	0x017d;	????	
 30e:	00 00       	.word	0x0000;	????	
 310:	01 01       	.word	0x0101;	????	
 312:	12 64 02 00 	addc	2(r4),	r2	;0x0002(r4)
 316:	00 03       	.word	0x0300;	????	
 318:	b9 02       	.word	0x02b9;	????	
 31a:	62 02       	.word	0x0262;	????	
 31c:	00 00       	.word	0x0000;	????	
 31e:	24 03       	.word	0x0324;	????	
 320:	00 00       	.word	0x0000;	????	
 322:	01 01       	.word	0x0101;	????	
 324:	13 7d       	.word	0x7d13;	????	Illegal as 2-op instr
 326:	01 00       	.word	0x0001;	????	
 328:	00 12       	push	r0		
 32a:	9e 01       	.word	0x019e;	????	
 32c:	00 00       	.word	0x0000;	????	
 32e:	03 bf       	.word	0xbf03;	????	Illegal as 2-op instr
 330:	02 9c       	cmp	r12,	r2	
 332:	01 00       	.word	0x0001;	????	
 334:	00 7d       	subc	r13,	r0	
 336:	01 00       	.word	0x0001;	????	
 338:	00 01       	.word	0x0100;	????	
 33a:	01 12       	push	r1		
 33c:	75 02       	.word	0x0275;	????	
 33e:	00 00       	.word	0x0000;	????	
 340:	03 c6       	.word	0xc603;	????	Illegal as 2-op instr
 342:	02 73       	sbc	r2		
 344:	02 00       	.word	0x0002;	????	
 346:	00 7d       	subc	r13,	r0	
 348:	01 00       	.word	0x0001;	????	
 34a:	00 01       	.word	0x0100;	????	
 34c:	01 12       	push	r1		
 34e:	80 02       	.word	0x0280;	????	
 350:	00 00       	.word	0x0000;	????	
 352:	03 c8       	.word	0xc803;	????	Illegal as 2-op instr
 354:	02 7e       	subc	r14,	r2	
 356:	02 00       	.word	0x0002;	????	
 358:	00 7d       	subc	r13,	r0	
 35a:	01 00       	.word	0x0001;	????	
 35c:	00 01       	.word	0x0100;	????	
 35e:	01 12       	push	r1		
 360:	0d 02       	.word	0x020d;	????	
 362:	00 00       	.word	0x0000;	????	
 364:	03 d4       	.word	0xd403;	????	Illegal as 2-op instr
 366:	02 0b       	.word	0x0b02;	????	
 368:	02 00       	.word	0x0002;	????	
 36a:	00 7d       	subc	r13,	r0	
 36c:	01 00       	.word	0x0001;	????	
 36e:	00 01       	.word	0x0100;	????	
 370:	01 12       	push	r1		
 372:	c6 00       	.word	0x00c6;	????	
 374:	00 00       	.word	0x0000;	????	
 376:	03 86       	.word	0x8603;	????	Illegal as 2-op instr
 378:	03 c4       	.word	0xc403;	????	Illegal as 2-op instr
 37a:	00 00       	.word	0x0000;	????	
 37c:	00 6b       	addc	r11,	r0	
 37e:	02 00       	.word	0x0002;	????	
 380:	00 01       	.word	0x0100;	????	
 382:	01 12       	push	r1		
 384:	60 00       	.word	0x0060;	????	
 386:	00 00       	.word	0x0000;	????	
 388:	03 b6       	.word	0xb603;	????	Illegal as 2-op instr
 38a:	03 5e       	.word	0x5e03;	????	Illegal as 2-op instr
 38c:	00 00       	.word	0x0000;	????	
 38e:	00 24       	jz	$+2      	;abs 0x390
 390:	03 00       	.word	0x0003;	????	
 392:	00 01       	.word	0x0100;	????	
 394:	01 12       	push	r1		
 396:	31 02       	.word	0x0231;	????	
 398:	00 00       	.word	0x0000;	????	
 39a:	03 b8       	.word	0xb803;	????	Illegal as 2-op instr
 39c:	03 2f       	jc	$-504    	;abs 0x1a4
 39e:	02 00       	.word	0x0002;	????	
 3a0:	00 24       	jz	$+2      	;abs 0x3a2
 3a2:	03 00       	.word	0x0003;	????	
 3a4:	00 01       	.word	0x0100;	????	
 3a6:	01 14       	.word	0x1401;	????	
 3a8:	4c 00       	.word	0x004c;	????	
 3aa:	00 00       	.word	0x0000;	????	
 3ac:	b7 03       	.word	0x03b7;	????	
 3ae:	00 00       	.word	0x0000;	????	
 3b0:	15 29       	jnc	$+556    	;abs 0x5dc
 3b2:	00 00       	.word	0x0000;	????	
 3b4:	00 18       	.word	0x1800;	????	
 3b6:	00 16       	.word	0x1600;	????	
 3b8:	17 02       	.word	0x0217;	????	
 3ba:	00 00       	.word	0x0000;	????	
 3bc:	01 54       	add	r4,	r1	
 3be:	a7 03       	.word	0x03a7;	????	
 3c0:	00 00       	.word	0x0000;	????	
 3c2:	01 03       	.word	0x0301;	????	
 3c4:	03 08       	.word	0x0803;	????	
 3c6:	02 16       	.word	0x1602;	????	
 3c8:	94 01       	.word	0x0194;	????	
 3ca:	00 00       	.word	0x0000;	????	
 3cc:	01 57       	add	r7,	r1	
 3ce:	4c 00       	.word	0x004c;	????	
 3d0:	00 00       	.word	0x0000;	????	
 3d2:	01 03       	.word	0x0301;	????	
 3d4:	03 00       	.word	0x0003;	????	
 3d6:	02 16       	.word	0x1602;	????	
 3d8:	50 00       	.word	0x0050;	????	
 3da:	00 00       	.word	0x0000;	????	
 3dc:	01 5a       	add	r10,	r1	
 3de:	a1 00       	.word	0x00a1;	????	
 3e0:	00 00       	.word	0x0000;	????	
 3e2:	01 03       	.word	0x0301;	????	
 3e4:	03 04       	.word	0x0403;	????	
 3e6:	02 16       	.word	0x1602;	????	
 3e8:	19 01       	.word	0x0119;	????	
 3ea:	00 00       	.word	0x0000;	????	
 3ec:	01 5e       	add	r14,	r1	
 3ee:	a1 00       	.word	0x00a1;	????	
 3f0:	00 00       	.word	0x0000;	????	
 3f2:	01 03       	.word	0x0301;	????	
 3f4:	03 06       	.word	0x0603;	????	
 3f6:	02 16       	.word	0x1602;	????	
 3f8:	59 01       	.word	0x0159;	????	
 3fa:	00 00       	.word	0x0000;	????	
 3fc:	01 60       	addc	r0,	r1	
 3fe:	81 00       	.word	0x0081;	????	
 400:	00 00       	.word	0x0000;	????	
 402:	01 03       	.word	0x0301;	????	
 404:	03 02       	.word	0x0203;	????	
 406:	02 00       	.word	0x0002;	????	
 408:	b4 00       	.word	0x00b4;	????	
 40a:	00 00       	.word	0x0000;	????	
 40c:	02 00       	.word	0x0002;	????	
 40e:	52 01       	.word	0x0152;	????	
 410:	00 00       	.word	0x0000;	????	
 412:	02 01       	.word	0x0102;	????	
 414:	53 01       	.word	0x0153;	????	
 416:	00 00       	.word	0x0000;	????	
 418:	00 c0       	bic	r0,	r0	
 41a:	0c c0       	bic	r0,	r12	
 41c:	2f 62       	addc	#4,	r15	;r2 As==10
 41e:	75 69       	addc.b	@r9+,	r5	
 420:	6c 64       	addc.b	@r4,	r12	
 422:	2f 62       	addc	#4,	r15	;r2 As==10
 424:	75 69       	addc.b	@r9+,	r5	
 426:	6c 64       	addc.b	@r4,	r12	
 428:	64 2f       	jc	$-310    	;abs 0x2f2
 42a:	67 63       	addc.b	#2,	r7	;r3 As==10
 42c:	63 2d       	jc	$+712    	;abs 0x6f4
 42e:	6d 73       	subc.b	#2,	r13	;r3 As==10
 430:	70 34       	jge	$+226    	;abs 0x512
 432:	33 30       	jn	$+104    	;abs 0x49a
 434:	2d 34       	jge	$+92     	;abs 0x490
 436:	2e 36       	jge	$-930    	;abs 0x94
 438:	2e 33       	jn	$-418    	;abs 0x296
 43a:	7e 6d       	addc.b	@r13+,	r14	
 43c:	73 70       	.word	0x7073;	????	Illegal as 2-op instr
 43e:	67 63       	addc.b	#2,	r7	;r3 As==10
 440:	63 2d       	jc	$+712    	;abs 0x708
 442:	32 30       	jn	$+102    	;abs 0x4a8
 444:	31 32       	jn	$-924    	;abs 0xa8
 446:	30 34       	jge	$+98     	;abs 0x4a8
 448:	30 36       	jge	$-926    	;abs 0xaa
 44a:	2f 2e       	jc	$-928    	;abs 0xaa
 44c:	2f 67       	addc	@r7,	r15	
 44e:	63 63       	.word	0x6363;	????	Illegal as 2-op instr
 450:	2d 34       	jge	$+92     	;abs 0x4ac
 452:	2e 36       	jge	$-930    	;abs 0xb0
 454:	2e 33       	jn	$-418    	;abs 0x2b2
 456:	2f 67       	addc	@r7,	r15	
 458:	63 63       	.word	0x6363;	????	Illegal as 2-op instr
 45a:	2f 63       	addc	#2,	r15	;r3 As==10
 45c:	6f 6e       	addc.b	@r14,	r15	
 45e:	66 69       	addc.b	@r9,	r6	
 460:	67 2f       	jc	$-304    	;abs 0x330
 462:	6d 73       	subc.b	#2,	r13	;r3 As==10
 464:	70 34       	jge	$+226    	;abs 0x546
 466:	33 30       	jn	$+104    	;abs 0x4ce
 468:	2f 63       	addc	#2,	r15	;r3 As==10
 46a:	72 74       	subc.b	@r4+,	r2	
 46c:	30 2e       	jc	$-926    	;abs 0xce
 46e:	53 00       	.word	0x0053;	????	
 470:	2f 62       	addc	#4,	r15	;r2 As==10
 472:	75 69       	addc.b	@r9+,	r5	
 474:	6c 64       	addc.b	@r4,	r12	
 476:	2f 62       	addc	#4,	r15	;r2 As==10
 478:	75 69       	addc.b	@r9+,	r5	
 47a:	6c 64       	addc.b	@r4,	r12	
 47c:	64 2f       	jc	$-310    	;abs 0x346
 47e:	67 63       	addc.b	#2,	r7	;r3 As==10
 480:	63 2d       	jc	$+712    	;abs 0x748
 482:	6d 73       	subc.b	#2,	r13	;r3 As==10
 484:	70 34       	jge	$+226    	;abs 0x566
 486:	33 30       	jn	$+104    	;abs 0x4ee
 488:	2d 34       	jge	$+92     	;abs 0x4e4
 48a:	2e 36       	jge	$-930    	;abs 0xe8
 48c:	2e 33       	jn	$-418    	;abs 0x2ea
 48e:	7e 6d       	addc.b	@r13+,	r14	
 490:	73 70       	.word	0x7073;	????	Illegal as 2-op instr
 492:	67 63       	addc.b	#2,	r7	;r3 As==10
 494:	63 2d       	jc	$+712    	;abs 0x75c
 496:	32 30       	jn	$+102    	;abs 0x4fc
 498:	31 32       	jn	$-924    	;abs 0xfc
 49a:	30 34       	jge	$+98     	;abs 0x4fc
 49c:	30 36       	jge	$-926    	;abs 0xfe
 49e:	2f 62       	addc	#4,	r15	;r2 As==10
 4a0:	75 69       	addc.b	@r9+,	r5	
 4a2:	6c 64       	addc.b	@r4,	r12	
 4a4:	2d 72       	subc	#4,	r13	;r2 As==10
 4a6:	65 73       	subc.b	#2,	r5	;r3 As==10
 4a8:	75 6c       	addc.b	@r12+,	r5	
 4aa:	74 2f       	jc	$-278    	;abs 0x394
 4ac:	67 63       	addc.b	#2,	r7	;r3 As==10
 4ae:	63 00       	.word	0x0063;	????	
 4b0:	47 4e       	mov.b	r14,	r7	
 4b2:	55 20       	jnz	$+172    	;abs 0x55e
 4b4:	41 53       	add.b	#0,	r1	;r3 As==00
 4b6:	20 32       	jn	$-958    	;abs 0xf8
 4b8:	2e 32       	jn	$-930    	;abs 0x116
 4ba:	31 2e       	jc	$-924    	;abs 0x11e
 4bc:	31 00       	.word	0x0031;	????	
 4be:	01 80       	sub	r0,	r1	
 4c0:	b4 00       	.word	0x00b4;	????	
 4c2:	00 00       	.word	0x0000;	????	
 4c4:	02 00       	.word	0x0002;	????	
 4c6:	66 01       	.word	0x0166;	????	
 4c8:	00 00       	.word	0x0000;	????	
 4ca:	02 01       	.word	0x0102;	????	
 4cc:	d7 01       	.word	0x01d7;	????	
 4ce:	00 00       	.word	0x0000;	????	
 4d0:	0c c0       	bic	r0,	r12	
 4d2:	10 c0 2f 62 	bic	25135(r0),r0	;PC rel. 0x6703
 4d6:	75 69       	addc.b	@r9+,	r5	
 4d8:	6c 64       	addc.b	@r4,	r12	
 4da:	2f 62       	addc	#4,	r15	;r2 As==10
 4dc:	75 69       	addc.b	@r9+,	r5	
 4de:	6c 64       	addc.b	@r4,	r12	
 4e0:	64 2f       	jc	$-310    	;abs 0x3aa
 4e2:	67 63       	addc.b	#2,	r7	;r3 As==10
 4e4:	63 2d       	jc	$+712    	;abs 0x7ac
 4e6:	6d 73       	subc.b	#2,	r13	;r3 As==10
 4e8:	70 34       	jge	$+226    	;abs 0x5ca
 4ea:	33 30       	jn	$+104    	;abs 0x552
 4ec:	2d 34       	jge	$+92     	;abs 0x548
 4ee:	2e 36       	jge	$-930    	;abs 0x14c
 4f0:	2e 33       	jn	$-418    	;abs 0x34e
 4f2:	7e 6d       	addc.b	@r13+,	r14	
 4f4:	73 70       	.word	0x7073;	????	Illegal as 2-op instr
 4f6:	67 63       	addc.b	#2,	r7	;r3 As==10
 4f8:	63 2d       	jc	$+712    	;abs 0x7c0
 4fa:	32 30       	jn	$+102    	;abs 0x560
 4fc:	31 32       	jn	$-924    	;abs 0x160
 4fe:	30 34       	jge	$+98     	;abs 0x560
 500:	30 36       	jge	$-926    	;abs 0x162
 502:	2f 2e       	jc	$-928    	;abs 0x162
 504:	2f 67       	addc	@r7,	r15	
 506:	63 63       	.word	0x6363;	????	Illegal as 2-op instr
 508:	2d 34       	jge	$+92     	;abs 0x564
 50a:	2e 36       	jge	$-930    	;abs 0x168
 50c:	2e 33       	jn	$-418    	;abs 0x36a
 50e:	2f 67       	addc	@r7,	r15	
 510:	63 63       	.word	0x6363;	????	Illegal as 2-op instr
 512:	2f 63       	addc	#2,	r15	;r3 As==10
 514:	6f 6e       	addc.b	@r14,	r15	
 516:	66 69       	addc.b	@r9,	r6	
 518:	67 2f       	jc	$-304    	;abs 0x3e8
 51a:	6d 73       	subc.b	#2,	r13	;r3 As==10
 51c:	70 34       	jge	$+226    	;abs 0x5fe
 51e:	33 30       	jn	$+104    	;abs 0x586
 520:	2f 63       	addc	#2,	r15	;r3 As==10
 522:	72 74       	subc.b	@r4+,	r2	
 524:	30 2e       	jc	$-926    	;abs 0x186
 526:	53 00       	.word	0x0053;	????	
 528:	2f 62       	addc	#4,	r15	;r2 As==10
 52a:	75 69       	addc.b	@r9+,	r5	
 52c:	6c 64       	addc.b	@r4,	r12	
 52e:	2f 62       	addc	#4,	r15	;r2 As==10
 530:	75 69       	addc.b	@r9+,	r5	
 532:	6c 64       	addc.b	@r4,	r12	
 534:	64 2f       	jc	$-310    	;abs 0x3fe
 536:	67 63       	addc.b	#2,	r7	;r3 As==10
 538:	63 2d       	jc	$+712    	;abs 0x800
 53a:	6d 73       	subc.b	#2,	r13	;r3 As==10
 53c:	70 34       	jge	$+226    	;abs 0x61e
 53e:	33 30       	jn	$+104    	;abs 0x5a6
 540:	2d 34       	jge	$+92     	;abs 0x59c
 542:	2e 36       	jge	$-930    	;abs 0x1a0
 544:	2e 33       	jn	$-418    	;abs 0x3a2
 546:	7e 6d       	addc.b	@r13+,	r14	
 548:	73 70       	.word	0x7073;	????	Illegal as 2-op instr
 54a:	67 63       	addc.b	#2,	r7	;r3 As==10
 54c:	63 2d       	jc	$+712    	;abs 0x814
 54e:	32 30       	jn	$+102    	;abs 0x5b4
 550:	31 32       	jn	$-924    	;abs 0x1b4
 552:	30 34       	jge	$+98     	;abs 0x5b4
 554:	30 36       	jge	$-926    	;abs 0x1b6
 556:	2f 62       	addc	#4,	r15	;r2 As==10
 558:	75 69       	addc.b	@r9+,	r5	
 55a:	6c 64       	addc.b	@r4,	r12	
 55c:	2d 72       	subc	#4,	r13	;r2 As==10
 55e:	65 73       	subc.b	#2,	r5	;r3 As==10
 560:	75 6c       	addc.b	@r12+,	r5	
 562:	74 2f       	jc	$-278    	;abs 0x44c
 564:	67 63       	addc.b	#2,	r7	;r3 As==10
 566:	63 00       	.word	0x0063;	????	
 568:	47 4e       	mov.b	r14,	r7	
 56a:	55 20       	jnz	$+172    	;abs 0x616
 56c:	41 53       	add.b	#0,	r1	;r3 As==00
 56e:	20 32       	jn	$-958    	;abs 0x1b0
 570:	2e 32       	jn	$-930    	;abs 0x1ce
 572:	31 2e       	jc	$-924    	;abs 0x1d6
 574:	31 00       	.word	0x0031;	????	
 576:	01 80       	sub	r0,	r1	
 578:	b4 00       	.word	0x00b4;	????	
 57a:	00 00       	.word	0x0000;	????	
 57c:	02 00       	.word	0x0002;	????	
 57e:	7a 01       	.word	0x017a;	????	
 580:	00 00       	.word	0x0000;	????	
 582:	02 01       	.word	0x0102;	????	
 584:	59 02       	.word	0x0259;	????	
 586:	00 00       	.word	0x0000;	????	
 588:	10 c0 28 c0 	bic	-16344(r0),r0	;PC rel. 0xc5b2
 58c:	2f 62       	addc	#4,	r15	;r2 As==10
 58e:	75 69       	addc.b	@r9+,	r5	
 590:	6c 64       	addc.b	@r4,	r12	
 592:	2f 62       	addc	#4,	r15	;r2 As==10
 594:	75 69       	addc.b	@r9+,	r5	
 596:	6c 64       	addc.b	@r4,	r12	
 598:	64 2f       	jc	$-310    	;abs 0x462
 59a:	67 63       	addc.b	#2,	r7	;r3 As==10
 59c:	63 2d       	jc	$+712    	;abs 0x864
 59e:	6d 73       	subc.b	#2,	r13	;r3 As==10
 5a0:	70 34       	jge	$+226    	;abs 0x682
 5a2:	33 30       	jn	$+104    	;abs 0x60a
 5a4:	2d 34       	jge	$+92     	;abs 0x600
 5a6:	2e 36       	jge	$-930    	;abs 0x204
 5a8:	2e 33       	jn	$-418    	;abs 0x406
 5aa:	7e 6d       	addc.b	@r13+,	r14	
 5ac:	73 70       	.word	0x7073;	????	Illegal as 2-op instr
 5ae:	67 63       	addc.b	#2,	r7	;r3 As==10
 5b0:	63 2d       	jc	$+712    	;abs 0x878
 5b2:	32 30       	jn	$+102    	;abs 0x618
 5b4:	31 32       	jn	$-924    	;abs 0x218
 5b6:	30 34       	jge	$+98     	;abs 0x618
 5b8:	30 36       	jge	$-926    	;abs 0x21a
 5ba:	2f 2e       	jc	$-928    	;abs 0x21a
 5bc:	2f 67       	addc	@r7,	r15	
 5be:	63 63       	.word	0x6363;	????	Illegal as 2-op instr
 5c0:	2d 34       	jge	$+92     	;abs 0x61c
 5c2:	2e 36       	jge	$-930    	;abs 0x220
 5c4:	2e 33       	jn	$-418    	;abs 0x422
 5c6:	2f 67       	addc	@r7,	r15	
 5c8:	63 63       	.word	0x6363;	????	Illegal as 2-op instr
 5ca:	2f 63       	addc	#2,	r15	;r3 As==10
 5cc:	6f 6e       	addc.b	@r14,	r15	
 5ce:	66 69       	addc.b	@r9,	r6	
 5d0:	67 2f       	jc	$-304    	;abs 0x4a0
 5d2:	6d 73       	subc.b	#2,	r13	;r3 As==10
 5d4:	70 34       	jge	$+226    	;abs 0x6b6
 5d6:	33 30       	jn	$+104    	;abs 0x63e
 5d8:	2f 63       	addc	#2,	r15	;r3 As==10
 5da:	72 74       	subc.b	@r4+,	r2	
 5dc:	30 2e       	jc	$-926    	;abs 0x23e
 5de:	53 00       	.word	0x0053;	????	
 5e0:	2f 62       	addc	#4,	r15	;r2 As==10
 5e2:	75 69       	addc.b	@r9+,	r5	
 5e4:	6c 64       	addc.b	@r4,	r12	
 5e6:	2f 62       	addc	#4,	r15	;r2 As==10
 5e8:	75 69       	addc.b	@r9+,	r5	
 5ea:	6c 64       	addc.b	@r4,	r12	
 5ec:	64 2f       	jc	$-310    	;abs 0x4b6
 5ee:	67 63       	addc.b	#2,	r7	;r3 As==10
 5f0:	63 2d       	jc	$+712    	;abs 0x8b8
 5f2:	6d 73       	subc.b	#2,	r13	;r3 As==10
 5f4:	70 34       	jge	$+226    	;abs 0x6d6
 5f6:	33 30       	jn	$+104    	;abs 0x65e
 5f8:	2d 34       	jge	$+92     	;abs 0x654
 5fa:	2e 36       	jge	$-930    	;abs 0x258
 5fc:	2e 33       	jn	$-418    	;abs 0x45a
 5fe:	7e 6d       	addc.b	@r13+,	r14	
 600:	73 70       	.word	0x7073;	????	Illegal as 2-op instr
 602:	67 63       	addc.b	#2,	r7	;r3 As==10
 604:	63 2d       	jc	$+712    	;abs 0x8cc
 606:	32 30       	jn	$+102    	;abs 0x66c
 608:	31 32       	jn	$-924    	;abs 0x26c
 60a:	30 34       	jge	$+98     	;abs 0x66c
 60c:	30 36       	jge	$-926    	;abs 0x26e
 60e:	2f 62       	addc	#4,	r15	;r2 As==10
 610:	75 69       	addc.b	@r9+,	r5	
 612:	6c 64       	addc.b	@r4,	r12	
 614:	2d 72       	subc	#4,	r13	;r2 As==10
 616:	65 73       	subc.b	#2,	r5	;r3 As==10
 618:	75 6c       	addc.b	@r12+,	r5	
 61a:	74 2f       	jc	$-278    	;abs 0x504
 61c:	67 63       	addc.b	#2,	r7	;r3 As==10
 61e:	63 00       	.word	0x0063;	????	
 620:	47 4e       	mov.b	r14,	r7	
 622:	55 20       	jnz	$+172    	;abs 0x6ce
 624:	41 53       	add.b	#0,	r1	;r3 As==00
 626:	20 32       	jn	$-958    	;abs 0x268
 628:	2e 32       	jn	$-930    	;abs 0x286
 62a:	31 2e       	jc	$-924    	;abs 0x28e
 62c:	31 00       	.word	0x0031;	????	
 62e:	01 80       	sub	r0,	r1	
 630:	b4 00       	.word	0x00b4;	????	
 632:	00 00       	.word	0x0000;	????	
 634:	02 00       	.word	0x0002;	????	
 636:	8e 01       	.word	0x018e;	????	
 638:	00 00       	.word	0x0000;	????	
 63a:	02 01       	.word	0x0102;	????	
 63c:	e1 02       	.word	0x02e1;	????	
 63e:	00 00       	.word	0x0000;	????	
 640:	28 c0       	bic	@r0,	r8	
 642:	3e c0 2f 62 	bic	#25135,	r14	;#0x622f
 646:	75 69       	addc.b	@r9+,	r5	
 648:	6c 64       	addc.b	@r4,	r12	
 64a:	2f 62       	addc	#4,	r15	;r2 As==10
 64c:	75 69       	addc.b	@r9+,	r5	
 64e:	6c 64       	addc.b	@r4,	r12	
 650:	64 2f       	jc	$-310    	;abs 0x51a
 652:	67 63       	addc.b	#2,	r7	;r3 As==10
 654:	63 2d       	jc	$+712    	;abs 0x91c
 656:	6d 73       	subc.b	#2,	r13	;r3 As==10
 658:	70 34       	jge	$+226    	;abs 0x73a
 65a:	33 30       	jn	$+104    	;abs 0x6c2
 65c:	2d 34       	jge	$+92     	;abs 0x6b8
 65e:	2e 36       	jge	$-930    	;abs 0x2bc
 660:	2e 33       	jn	$-418    	;abs 0x4be
 662:	7e 6d       	addc.b	@r13+,	r14	
 664:	73 70       	.word	0x7073;	????	Illegal as 2-op instr
 666:	67 63       	addc.b	#2,	r7	;r3 As==10
 668:	63 2d       	jc	$+712    	;abs 0x930
 66a:	32 30       	jn	$+102    	;abs 0x6d0
 66c:	31 32       	jn	$-924    	;abs 0x2d0
 66e:	30 34       	jge	$+98     	;abs 0x6d0
 670:	30 36       	jge	$-926    	;abs 0x2d2
 672:	2f 2e       	jc	$-928    	;abs 0x2d2
 674:	2f 67       	addc	@r7,	r15	
 676:	63 63       	.word	0x6363;	????	Illegal as 2-op instr
 678:	2d 34       	jge	$+92     	;abs 0x6d4
 67a:	2e 36       	jge	$-930    	;abs 0x2d8
 67c:	2e 33       	jn	$-418    	;abs 0x4da
 67e:	2f 67       	addc	@r7,	r15	
 680:	63 63       	.word	0x6363;	????	Illegal as 2-op instr
 682:	2f 63       	addc	#2,	r15	;r3 As==10
 684:	6f 6e       	addc.b	@r14,	r15	
 686:	66 69       	addc.b	@r9,	r6	
 688:	67 2f       	jc	$-304    	;abs 0x558
 68a:	6d 73       	subc.b	#2,	r13	;r3 As==10
 68c:	70 34       	jge	$+226    	;abs 0x76e
 68e:	33 30       	jn	$+104    	;abs 0x6f6
 690:	2f 63       	addc	#2,	r15	;r3 As==10
 692:	72 74       	subc.b	@r4+,	r2	
 694:	30 2e       	jc	$-926    	;abs 0x2f6
 696:	53 00       	.word	0x0053;	????	
 698:	2f 62       	addc	#4,	r15	;r2 As==10
 69a:	75 69       	addc.b	@r9+,	r5	
 69c:	6c 64       	addc.b	@r4,	r12	
 69e:	2f 62       	addc	#4,	r15	;r2 As==10
 6a0:	75 69       	addc.b	@r9+,	r5	
 6a2:	6c 64       	addc.b	@r4,	r12	
 6a4:	64 2f       	jc	$-310    	;abs 0x56e
 6a6:	67 63       	addc.b	#2,	r7	;r3 As==10
 6a8:	63 2d       	jc	$+712    	;abs 0x970
 6aa:	6d 73       	subc.b	#2,	r13	;r3 As==10
 6ac:	70 34       	jge	$+226    	;abs 0x78e
 6ae:	33 30       	jn	$+104    	;abs 0x716
 6b0:	2d 34       	jge	$+92     	;abs 0x70c
 6b2:	2e 36       	jge	$-930    	;abs 0x310
 6b4:	2e 33       	jn	$-418    	;abs 0x512
 6b6:	7e 6d       	addc.b	@r13+,	r14	
 6b8:	73 70       	.word	0x7073;	????	Illegal as 2-op instr
 6ba:	67 63       	addc.b	#2,	r7	;r3 As==10
 6bc:	63 2d       	jc	$+712    	;abs 0x984
 6be:	32 30       	jn	$+102    	;abs 0x724
 6c0:	31 32       	jn	$-924    	;abs 0x324
 6c2:	30 34       	jge	$+98     	;abs 0x724
 6c4:	30 36       	jge	$-926    	;abs 0x326
 6c6:	2f 62       	addc	#4,	r15	;r2 As==10
 6c8:	75 69       	addc.b	@r9+,	r5	
 6ca:	6c 64       	addc.b	@r4,	r12	
 6cc:	2d 72       	subc	#4,	r13	;r2 As==10
 6ce:	65 73       	subc.b	#2,	r5	;r3 As==10
 6d0:	75 6c       	addc.b	@r12+,	r5	
 6d2:	74 2f       	jc	$-278    	;abs 0x5bc
 6d4:	67 63       	addc.b	#2,	r7	;r3 As==10
 6d6:	63 00       	.word	0x0063;	????	
 6d8:	47 4e       	mov.b	r14,	r7	
 6da:	55 20       	jnz	$+172    	;abs 0x786
 6dc:	41 53       	add.b	#0,	r1	;r3 As==00
 6de:	20 32       	jn	$-958    	;abs 0x320
 6e0:	2e 32       	jn	$-930    	;abs 0x33e
 6e2:	31 2e       	jc	$-924    	;abs 0x346
 6e4:	31 00       	.word	0x0031;	????	
 6e6:	01 80       	sub	r0,	r1	
 6e8:	b4 00       	.word	0x00b4;	????	
 6ea:	00 00       	.word	0x0000;	????	
 6ec:	02 00       	.word	0x0002;	????	
 6ee:	a2 01       	.word	0x01a2;	????	
 6f0:	00 00       	.word	0x0000;	????	
 6f2:	02 01       	.word	0x0102;	????	
 6f4:	69 03       	.word	0x0369;	????	
 6f6:	00 00       	.word	0x0000;	????	
 6f8:	7a c1       	bic.b	@r1+,	r10	
 6fa:	80 c1 2f 62 	bic	r1,	25135(r0);PC rel. 0x692b
 6fe:	75 69       	addc.b	@r9+,	r5	
 700:	6c 64       	addc.b	@r4,	r12	
 702:	2f 62       	addc	#4,	r15	;r2 As==10
 704:	75 69       	addc.b	@r9+,	r5	
 706:	6c 64       	addc.b	@r4,	r12	
 708:	64 2f       	jc	$-310    	;abs 0x5d2
 70a:	67 63       	addc.b	#2,	r7	;r3 As==10
 70c:	63 2d       	jc	$+712    	;abs 0x9d4
 70e:	6d 73       	subc.b	#2,	r13	;r3 As==10
 710:	70 34       	jge	$+226    	;abs 0x7f2
 712:	33 30       	jn	$+104    	;abs 0x77a
 714:	2d 34       	jge	$+92     	;abs 0x770
 716:	2e 36       	jge	$-930    	;abs 0x374
 718:	2e 33       	jn	$-418    	;abs 0x576
 71a:	7e 6d       	addc.b	@r13+,	r14	
 71c:	73 70       	.word	0x7073;	????	Illegal as 2-op instr
 71e:	67 63       	addc.b	#2,	r7	;r3 As==10
 720:	63 2d       	jc	$+712    	;abs 0x9e8
 722:	32 30       	jn	$+102    	;abs 0x788
 724:	31 32       	jn	$-924    	;abs 0x388
 726:	30 34       	jge	$+98     	;abs 0x788
 728:	30 36       	jge	$-926    	;abs 0x38a
 72a:	2f 2e       	jc	$-928    	;abs 0x38a
 72c:	2f 67       	addc	@r7,	r15	
 72e:	63 63       	.word	0x6363;	????	Illegal as 2-op instr
 730:	2d 34       	jge	$+92     	;abs 0x78c
 732:	2e 36       	jge	$-930    	;abs 0x390
 734:	2e 33       	jn	$-418    	;abs 0x592
 736:	2f 67       	addc	@r7,	r15	
 738:	63 63       	.word	0x6363;	????	Illegal as 2-op instr
 73a:	2f 63       	addc	#2,	r15	;r3 As==10
 73c:	6f 6e       	addc.b	@r14,	r15	
 73e:	66 69       	addc.b	@r9,	r6	
 740:	67 2f       	jc	$-304    	;abs 0x610
 742:	6d 73       	subc.b	#2,	r13	;r3 As==10
 744:	70 34       	jge	$+226    	;abs 0x826
 746:	33 30       	jn	$+104    	;abs 0x7ae
 748:	2f 63       	addc	#2,	r15	;r3 As==10
 74a:	72 74       	subc.b	@r4+,	r2	
 74c:	30 2e       	jc	$-926    	;abs 0x3ae
 74e:	53 00       	.word	0x0053;	????	
 750:	2f 62       	addc	#4,	r15	;r2 As==10
 752:	75 69       	addc.b	@r9+,	r5	
 754:	6c 64       	addc.b	@r4,	r12	
 756:	2f 62       	addc	#4,	r15	;r2 As==10
 758:	75 69       	addc.b	@r9+,	r5	
 75a:	6c 64       	addc.b	@r4,	r12	
 75c:	64 2f       	jc	$-310    	;abs 0x626
 75e:	67 63       	addc.b	#2,	r7	;r3 As==10
 760:	63 2d       	jc	$+712    	;abs 0xa28
 762:	6d 73       	subc.b	#2,	r13	;r3 As==10
 764:	70 34       	jge	$+226    	;abs 0x846
 766:	33 30       	jn	$+104    	;abs 0x7ce
 768:	2d 34       	jge	$+92     	;abs 0x7c4
 76a:	2e 36       	jge	$-930    	;abs 0x3c8
 76c:	2e 33       	jn	$-418    	;abs 0x5ca
 76e:	7e 6d       	addc.b	@r13+,	r14	
 770:	73 70       	.word	0x7073;	????	Illegal as 2-op instr
 772:	67 63       	addc.b	#2,	r7	;r3 As==10
 774:	63 2d       	jc	$+712    	;abs 0xa3c
 776:	32 30       	jn	$+102    	;abs 0x7dc
 778:	31 32       	jn	$-924    	;abs 0x3dc
 77a:	30 34       	jge	$+98     	;abs 0x7dc
 77c:	30 36       	jge	$-926    	;abs 0x3de
 77e:	2f 62       	addc	#4,	r15	;r2 As==10
 780:	75 69       	addc.b	@r9+,	r5	
 782:	6c 64       	addc.b	@r4,	r12	
 784:	2d 72       	subc	#4,	r13	;r2 As==10
 786:	65 73       	subc.b	#2,	r5	;r3 As==10
 788:	75 6c       	addc.b	@r12+,	r5	
 78a:	74 2f       	jc	$-278    	;abs 0x674
 78c:	67 63       	addc.b	#2,	r7	;r3 As==10
 78e:	63 00       	.word	0x0063;	????	
 790:	47 4e       	mov.b	r14,	r7	
 792:	55 20       	jnz	$+172    	;abs 0x83e
 794:	41 53       	add.b	#0,	r1	;r3 As==00
 796:	20 32       	jn	$-958    	;abs 0x3d8
 798:	2e 32       	jn	$-930    	;abs 0x3f6
 79a:	31 2e       	jc	$-924    	;abs 0x3fe
 79c:	31 00       	.word	0x0031;	????	
 79e:	01 80       	sub	r0,	r1	
 7a0:	b4 00       	.word	0x00b4;	????	
 7a2:	00 00       	.word	0x0000;	????	
 7a4:	02 00       	.word	0x0002;	????	
 7a6:	b6 01       	.word	0x01b6;	????	
 7a8:	00 00       	.word	0x0000;	????	
 7aa:	02 01       	.word	0x0102;	????	
 7ac:	ec 03       	.word	0x03ec;	????	
 7ae:	00 00       	.word	0x0000;	????	
 7b0:	c8 c3 ca c3 	bic.b	#0,	-15414(r8);r3 As==00, 0xc3ca(r8)
 7b4:	2f 62       	addc	#4,	r15	;r2 As==10
 7b6:	75 69       	addc.b	@r9+,	r5	
 7b8:	6c 64       	addc.b	@r4,	r12	
 7ba:	2f 62       	addc	#4,	r15	;r2 As==10
 7bc:	75 69       	addc.b	@r9+,	r5	
 7be:	6c 64       	addc.b	@r4,	r12	
 7c0:	64 2f       	jc	$-310    	;abs 0x68a
 7c2:	67 63       	addc.b	#2,	r7	;r3 As==10
 7c4:	63 2d       	jc	$+712    	;abs 0xa8c
 7c6:	6d 73       	subc.b	#2,	r13	;r3 As==10
 7c8:	70 34       	jge	$+226    	;abs 0x8aa
 7ca:	33 30       	jn	$+104    	;abs 0x832
 7cc:	2d 34       	jge	$+92     	;abs 0x828
 7ce:	2e 36       	jge	$-930    	;abs 0x42c
 7d0:	2e 33       	jn	$-418    	;abs 0x62e
 7d2:	7e 6d       	addc.b	@r13+,	r14	
 7d4:	73 70       	.word	0x7073;	????	Illegal as 2-op instr
 7d6:	67 63       	addc.b	#2,	r7	;r3 As==10
 7d8:	63 2d       	jc	$+712    	;abs 0xaa0
 7da:	32 30       	jn	$+102    	;abs 0x840
 7dc:	31 32       	jn	$-924    	;abs 0x440
 7de:	30 34       	jge	$+98     	;abs 0x840
 7e0:	30 36       	jge	$-926    	;abs 0x442
 7e2:	2f 2e       	jc	$-928    	;abs 0x442
 7e4:	2f 67       	addc	@r7,	r15	
 7e6:	63 63       	.word	0x6363;	????	Illegal as 2-op instr
 7e8:	2d 34       	jge	$+92     	;abs 0x844
 7ea:	2e 36       	jge	$-930    	;abs 0x448
 7ec:	2e 33       	jn	$-418    	;abs 0x64a
 7ee:	2f 67       	addc	@r7,	r15	
 7f0:	63 63       	.word	0x6363;	????	Illegal as 2-op instr
 7f2:	2f 63       	addc	#2,	r15	;r3 As==10
 7f4:	6f 6e       	addc.b	@r14,	r15	
 7f6:	66 69       	addc.b	@r9,	r6	
 7f8:	67 2f       	jc	$-304    	;abs 0x6c8
 7fa:	6d 73       	subc.b	#2,	r13	;r3 As==10
 7fc:	70 34       	jge	$+226    	;abs 0x8de
 7fe:	33 30       	jn	$+104    	;abs 0x866
 800:	2f 63       	addc	#2,	r15	;r3 As==10
 802:	72 74       	subc.b	@r4+,	r2	
 804:	30 2e       	jc	$-926    	;abs 0x466
 806:	53 00       	.word	0x0053;	????	
 808:	2f 62       	addc	#4,	r15	;r2 As==10
 80a:	75 69       	addc.b	@r9+,	r5	
 80c:	6c 64       	addc.b	@r4,	r12	
 80e:	2f 62       	addc	#4,	r15	;r2 As==10
 810:	75 69       	addc.b	@r9+,	r5	
 812:	6c 64       	addc.b	@r4,	r12	
 814:	64 2f       	jc	$-310    	;abs 0x6de
 816:	67 63       	addc.b	#2,	r7	;r3 As==10
 818:	63 2d       	jc	$+712    	;abs 0xae0
 81a:	6d 73       	subc.b	#2,	r13	;r3 As==10
 81c:	70 34       	jge	$+226    	;abs 0x8fe
 81e:	33 30       	jn	$+104    	;abs 0x886
 820:	2d 34       	jge	$+92     	;abs 0x87c
 822:	2e 36       	jge	$-930    	;abs 0x480
 824:	2e 33       	jn	$-418    	;abs 0x682
 826:	7e 6d       	addc.b	@r13+,	r14	
 828:	73 70       	.word	0x7073;	????	Illegal as 2-op instr
 82a:	67 63       	addc.b	#2,	r7	;r3 As==10
 82c:	63 2d       	jc	$+712    	;abs 0xaf4
 82e:	32 30       	jn	$+102    	;abs 0x894
 830:	31 32       	jn	$-924    	;abs 0x494
 832:	30 34       	jge	$+98     	;abs 0x894
 834:	30 36       	jge	$-926    	;abs 0x496
 836:	2f 62       	addc	#4,	r15	;r2 As==10
 838:	75 69       	addc.b	@r9+,	r5	
 83a:	6c 64       	addc.b	@r4,	r12	
 83c:	2d 72       	subc	#4,	r13	;r2 As==10
 83e:	65 73       	subc.b	#2,	r5	;r3 As==10
 840:	75 6c       	addc.b	@r12+,	r5	
 842:	74 2f       	jc	$-278    	;abs 0x72c
 844:	67 63       	addc.b	#2,	r7	;r3 As==10
 846:	63 00       	.word	0x0063;	????	
 848:	47 4e       	mov.b	r14,	r7	
 84a:	55 20       	jnz	$+172    	;abs 0x8f6
 84c:	41 53       	add.b	#0,	r1	;r3 As==00
 84e:	20 32       	jn	$-958    	;abs 0x490
 850:	2e 32       	jn	$-930    	;abs 0x4ae
 852:	31 2e       	jc	$-924    	;abs 0x4b6
 854:	31 00       	.word	0x0031;	????	
 856:	01 80       	sub	r0,	r1	

Disassembly of section .debug_abbrev:

00000000 <.debug_abbrev>:
   0:	01 11       	rra	r1		
   2:	01 25       	jz	$+516    	;abs 0x206
   4:	0e 13       	reti			;return from interupt
   6:	0b 03       	.word	0x030b;	????	
   8:	0e 1b       	.word	0x1b0e;	????	
   a:	0e 11       	rra	r14		
   c:	01 52       	add	r2,	r1	
   e:	01 55       	add	r5,	r1	
  10:	06 10       	rrc	r6		
  12:	06 43       	clr	r6		
  14:	06 00       	.word	0x0006;	????	
  16:	00 02       	.word	0x0200;	????	
  18:	24 00       	.word	0x0024;	????	
  1a:	0b 0b       	.word	0x0b0b;	????	
  1c:	3e 0b       	.word	0x0b3e;	????	
  1e:	03 0e       	.word	0x0e03;	????	
  20:	00 00       	.word	0x0000;	????	
  22:	03 24       	jz	$+8      	;abs 0x2a
  24:	00 0b       	.word	0x0b00;	????	
  26:	0b 3e       	jmp	$-1000   	;abs 0xfc3e
  28:	0b 03       	.word	0x030b;	????	
  2a:	08 00       	.word	0x0008;	????	
  2c:	00 04       	.word	0x0400;	????	
  2e:	16 00       	.word	0x0016;	????	
  30:	03 0e       	.word	0x0e03;	????	
  32:	3a 0b       	.word	0x0b3a;	????	
  34:	3b 0b       	.word	0x0b3b;	????	
  36:	49 13       	.word	0x1349;	????	
  38:	00 00       	.word	0x0000;	????	
  3a:	05 04       	.word	0x0405;	????	
  3c:	01 0b       	.word	0x0b01;	????	
  3e:	0b 3a       	jl	$-1000   	;abs 0xfc56
  40:	0b 3b       	jl	$-488    	;abs 0xfe58
  42:	0b 01       	.word	0x010b;	????	
  44:	13 00       	.word	0x0013;	????	
  46:	00 06       	.word	0x0600;	????	
  48:	28 00       	.word	0x0028;	????	
  4a:	03 0e       	.word	0x0e03;	????	
  4c:	1c 0d       	.word	0x0d1c;	????	
  4e:	00 00       	.word	0x0000;	????	
  50:	07 2e       	jc	$-1008   	;abs 0xfc60
  52:	01 3f       	jmp	$-508    	;abs 0xfe56
  54:	0c 03       	.word	0x030c;	????	
  56:	0e 3a       	jl	$-994    	;abs 0xfc74
  58:	0b 3b       	jl	$-488    	;abs 0xfe70
  5a:	0b 27       	jz	$-488    	;abs 0xfe72
  5c:	0c 49       	mov	r9,	r12	
  5e:	13 11       	rra	#1		;r3 As==01
  60:	01 12       	push	r1		
  62:	01 40       	mov	r0,	r1	
  64:	06 01       	.word	0x0106;	????	
  66:	13 00       	.word	0x0013;	????	
  68:	00 08       	.word	0x0800;	????	
  6a:	0b 01       	.word	0x010b;	????	
  6c:	11 01       	.word	0x0111;	????	
  6e:	12 01       	.word	0x0112;	????	
  70:	00 00       	.word	0x0000;	????	
  72:	09 34       	jge	$+20     	;abs 0x86
  74:	00 03       	.word	0x0300;	????	
  76:	0e 3a       	jl	$-994    	;abs 0xfc94
  78:	0b 3b       	jl	$-488    	;abs 0xfe90
  7a:	0b 49       	mov	r9,	r11	
  7c:	13 02       	.word	0x0213;	????	
  7e:	0a 00       	.word	0x000a;	????	
  80:	00 0a       	.word	0x0a00;	????	
  82:	2e 01       	.word	0x012e;	????	
  84:	3f 0c       	.word	0x0c3f;	????	
  86:	03 0e       	.word	0x0e03;	????	
  88:	3a 0b       	.word	0x0b3a;	????	
  8a:	3b 0b       	.word	0x0b3b;	????	
  8c:	11 01       	.word	0x0111;	????	
  8e:	12 01       	.word	0x0112;	????	
  90:	40 06       	.word	0x0640;	????	
  92:	01 13       	reti			;return from interupt
  94:	00 00       	.word	0x0000;	????	
  96:	0b 2e       	jc	$-1000   	;abs 0xfcae
  98:	01 3f       	jmp	$-508    	;abs 0xfe9c
  9a:	0c 03       	.word	0x030c;	????	
  9c:	0e 3a       	jl	$-994    	;abs 0xfcba
  9e:	0b 3b       	jl	$-488    	;abs 0xfeb6
  a0:	05 49       	mov	r9,	r5	
  a2:	13 11       	rra	#1		;r3 As==01
  a4:	01 12       	push	r1		
  a6:	01 40       	mov	r0,	r1	
  a8:	06 01       	.word	0x0106;	????	
  aa:	13 00       	.word	0x0013;	????	
  ac:	00 0c       	.word	0x0c00;	????	
  ae:	34 00       	.word	0x0034;	????	
  b0:	03 0e       	.word	0x0e03;	????	
  b2:	3a 0b       	.word	0x0b3a;	????	
  b4:	3b 05       	.word	0x053b;	????	
  b6:	49 13       	.word	0x1349;	????	
  b8:	02 0a       	.word	0x0a02;	????	
  ba:	00 00       	.word	0x0000;	????	
  bc:	0d 2e       	jc	$-996    	;abs 0xfcd8
  be:	00 3f       	jmp	$-510    	;abs 0xfec0
  c0:	0c 03       	.word	0x030c;	????	
  c2:	0e 3a       	jl	$-994    	;abs 0xfce0
  c4:	0b 3b       	jl	$-488    	;abs 0xfedc
  c6:	05 27       	jz	$-500    	;abs 0xfed2
  c8:	0c 11       	rra	r12		
  ca:	01 12       	push	r1		
  cc:	01 40       	mov	r0,	r1	
  ce:	06 00       	.word	0x0006;	????	
  d0:	00 0e       	.word	0x0e00;	????	
  d2:	2e 00       	.word	0x002e;	????	
  d4:	3f 0c       	.word	0x0c3f;	????	
  d6:	03 0e       	.word	0x0e03;	????	
  d8:	3a 0b       	.word	0x0b3a;	????	
  da:	3b 05       	.word	0x053b;	????	
  dc:	11 01       	.word	0x0111;	????	
  de:	12 01       	.word	0x0112;	????	
  e0:	40 06       	.word	0x0640;	????	
  e2:	00 00       	.word	0x0000;	????	
  e4:	0f 34       	jge	$+32     	;abs 0x104
  e6:	00 03       	.word	0x0300;	????	
  e8:	08 3a       	jl	$-1006   	;abs 0xfcfa
  ea:	0b 3b       	jl	$-488    	;abs 0xff02
  ec:	0b 87       	sub	r7,	r11	
  ee:	40 0e       	.word	0x0e40;	????	
  f0:	49 13       	.word	0x1349;	????	
  f2:	3f 0c       	.word	0x0c3f;	????	
  f4:	3c 0c       	.word	0x0c3c;	????	
  f6:	00 00       	.word	0x0000;	????	
  f8:	10 35       	jge	$+546    	;abs 0x31a
  fa:	00 49       	br	r9		
  fc:	13 00       	.word	0x0013;	????	
  fe:	00 11       	rra	r0		
 100:	34 00       	.word	0x0034;	????	
 102:	03 0e       	.word	0x0e03;	????	
 104:	3a 0b       	.word	0x0b3a;	????	
 106:	3b 0b       	.word	0x0b3b;	????	
 108:	87 40 0e 49 	mov	r0,	18702(r7);0x490e(r7)
 10c:	13 3f       	jmp	$-472    	;abs 0xff34
 10e:	0c 3c       	jmp	$+26     	;abs 0x128
 110:	0c 00       	.word	0x000c;	????	
 112:	00 12       	push	r0		
 114:	34 00       	.word	0x0034;	????	
 116:	03 0e       	.word	0x0e03;	????	
 118:	3a 0b       	.word	0x0b3a;	????	
 11a:	3b 05       	.word	0x053b;	????	
 11c:	87 40 0e 49 	mov	r0,	18702(r7);0x490e(r7)
 120:	13 3f       	jmp	$-472    	;abs 0xff48
 122:	0c 3c       	jmp	$+26     	;abs 0x13c
 124:	0c 00       	.word	0x000c;	????	
 126:	00 13       	reti			
 128:	26 00       	.word	0x0026;	????	
 12a:	49 13       	.word	0x1349;	????	
 12c:	00 00       	.word	0x0000;	????	
 12e:	14 01       	.word	0x0114;	????	
 130:	01 49       	mov	r9,	r1	
 132:	13 01       	.word	0x0113;	????	
 134:	13 00       	.word	0x0013;	????	
 136:	00 15       	.word	0x1500;	????	
 138:	21 00       	.word	0x0021;	????	
 13a:	49 13       	.word	0x1349;	????	
 13c:	2f 0b       	.word	0x0b2f;	????	
 13e:	00 00       	.word	0x0000;	????	
 140:	16 34       	jge	$+46     	;abs 0x16e
 142:	00 03       	.word	0x0300;	????	
 144:	0e 3a       	jl	$-994    	;abs 0xfd62
 146:	0b 3b       	jl	$-488    	;abs 0xff5e
 148:	0b 49       	mov	r9,	r11	
 14a:	13 3f       	jmp	$-472    	;abs 0xff72
 14c:	0c 02       	.word	0x020c;	????	
 14e:	0a 00       	.word	0x000a;	????	
 150:	00 00       	.word	0x0000;	????	
 152:	01 11       	rra	r1		
 154:	00 10       	rrc	r0		
 156:	06 11       	rra	r6		
 158:	01 12       	push	r1		
 15a:	01 03       	.word	0x0301;	????	
 15c:	08 1b       	.word	0x1b08;	????	
 15e:	08 25       	jz	$+530    	;abs 0x370
 160:	08 13       	reti			;return from interupt
 162:	05 00       	.word	0x0005;	????	
 164:	00 00       	.word	0x0000;	????	
 166:	01 11       	rra	r1		
 168:	00 10       	rrc	r0		
 16a:	06 11       	rra	r6		
 16c:	01 12       	push	r1		
 16e:	01 03       	.word	0x0301;	????	
 170:	08 1b       	.word	0x1b08;	????	
 172:	08 25       	jz	$+530    	;abs 0x384
 174:	08 13       	reti			;return from interupt
 176:	05 00       	.word	0x0005;	????	
 178:	00 00       	.word	0x0000;	????	
 17a:	01 11       	rra	r1		
 17c:	00 10       	rrc	r0		
 17e:	06 11       	rra	r6		
 180:	01 12       	push	r1		
 182:	01 03       	.word	0x0301;	????	
 184:	08 1b       	.word	0x1b08;	????	
 186:	08 25       	jz	$+530    	;abs 0x398
 188:	08 13       	reti			;return from interupt
 18a:	05 00       	.word	0x0005;	????	
 18c:	00 00       	.word	0x0000;	????	
 18e:	01 11       	rra	r1		
 190:	00 10       	rrc	r0		
 192:	06 11       	rra	r6		
 194:	01 12       	push	r1		
 196:	01 03       	.word	0x0301;	????	
 198:	08 1b       	.word	0x1b08;	????	
 19a:	08 25       	jz	$+530    	;abs 0x3ac
 19c:	08 13       	reti			;return from interupt
 19e:	05 00       	.word	0x0005;	????	
 1a0:	00 00       	.word	0x0000;	????	
 1a2:	01 11       	rra	r1		
 1a4:	00 10       	rrc	r0		
 1a6:	06 11       	rra	r6		
 1a8:	01 12       	push	r1		
 1aa:	01 03       	.word	0x0301;	????	
 1ac:	08 1b       	.word	0x1b08;	????	
 1ae:	08 25       	jz	$+530    	;abs 0x3c0
 1b0:	08 13       	reti			;return from interupt
 1b2:	05 00       	.word	0x0005;	????	
 1b4:	00 00       	.word	0x0000;	????	
 1b6:	01 11       	rra	r1		
 1b8:	00 10       	rrc	r0		
 1ba:	06 11       	rra	r6		
 1bc:	01 12       	push	r1		
 1be:	01 03       	.word	0x0301;	????	
 1c0:	08 1b       	.word	0x1b08;	????	
 1c2:	08 25       	jz	$+530    	;abs 0x3d4
 1c4:	08 13       	reti			;return from interupt
 1c6:	05 00       	.word	0x0005;	????	
	...

Disassembly of section .debug_line:

00000000 <.debug_line>:
   0:	4f 01       	.word	0x014f;	????	
   2:	00 00       	.word	0x0000;	????	
   4:	02 00       	.word	0x0002;	????	
   6:	a4 00       	.word	0x00a4;	????	
   8:	00 00       	.word	0x0000;	????	
   a:	01 01       	.word	0x0101;	????	
   c:	fb 0e       	.word	0x0efb;	????	
   e:	0d 00       	.word	0x000d;	????	
  10:	01 01       	.word	0x0101;	????	
  12:	01 01       	.word	0x0101;	????	
  14:	00 00       	.word	0x0000;	????	
  16:	00 01       	.word	0x0100;	????	
  18:	00 00       	.word	0x0000;	????	
  1a:	01 2f       	jc	$-508    	;abs 0xfe1e
  1c:	75 73       	subc.b	#-1,	r5	;r3 As==11
  1e:	72 2f       	jc	$-282    	;abs 0xff04
  20:	6c 69       	addc.b	@r9,	r12	
  22:	62 2f       	jc	$-314    	;abs 0xfee8
  24:	67 63       	addc.b	#2,	r7	;r3 As==10
  26:	63 2f       	jc	$-312    	;abs 0xfeee
  28:	6d 73       	subc.b	#2,	r13	;r3 As==10
  2a:	70 34       	jge	$+226    	;abs 0x10c
  2c:	33 30       	jn	$+104    	;abs 0x94
  2e:	2f 34       	jge	$+96     	;abs 0x8e
  30:	2e 36       	jge	$-930    	;abs 0xfc8e
  32:	2e 33       	jn	$-418    	;abs 0xfe90
  34:	2f 2e       	jc	$-928    	;abs 0xfc94
  36:	2e 2f       	jc	$-418    	;abs 0xfe94
  38:	2e 2e       	jc	$-930    	;abs 0xfc96
  3a:	2f 2e       	jc	$-928    	;abs 0xfc9a
  3c:	2e 2f       	jc	$-418    	;abs 0xfe9a
  3e:	2e 2e       	jc	$-930    	;abs 0xfc9c
  40:	2f 6d       	addc	@r13,	r15	
  42:	73 70       	.word	0x7073;	????	Illegal as 2-op instr
  44:	34 33       	jn	$-406    	;abs 0xfeae
  46:	30 2f       	jc	$-414    	;abs 0xfea8
  48:	69 6e       	addc.b	@r14,	r9	
  4a:	63 6c       	.word	0x6c63;	????	Illegal as 2-op instr
  4c:	75 64       	addc.b	@r4+,	r5	
  4e:	65 00       	.word	0x0065;	????	
  50:	00 6d       	addc	r13,	r0	
  52:	61 69       	addc.b	@r9,	r1	
  54:	6e 2e       	jc	$-802    	;abs 0xfd32
  56:	63 00       	.word	0x0063;	????	
  58:	00 00       	.word	0x0000;	????	
  5a:	00 73       	sbc	r0		
  5c:	74 64       	addc.b	@r4+,	r4	
  5e:	69 6e       	addc.b	@r14,	r9	
  60:	74 2e       	jc	$-790    	;abs 0xfd4a
  62:	68 00       	.word	0x0068;	????	
  64:	01 00       	.word	0x0001;	????	
  66:	00 6d       	addc	r13,	r0	
  68:	73 70       	.word	0x7073;	????	Illegal as 2-op instr
  6a:	34 33       	jn	$-406    	;abs 0xfed4
  6c:	30 67       	addc	@r7+,	r0	
  6e:	32 35       	jge	$+614    	;abs 0x2d4
  70:	35 33       	jn	$-404    	;abs 0xfedc
  72:	2e 68       	addc	@r8,	r14	
  74:	00 01       	.word	0x0100;	????	
  76:	00 00       	.word	0x0000;	????	
  78:	6d 73       	subc.b	#2,	r13	;r3 As==10
  7a:	70 34       	jge	$+226    	;abs 0x15c
  7c:	33 30       	jn	$+104    	;abs 0xe4
  7e:	2e 68       	addc	@r8,	r14	
  80:	00 01       	.word	0x0100;	????	
  82:	00 00       	.word	0x0000;	????	
  84:	69 6f       	addc.b	@r15,	r9	
  86:	6d 61       	addc.b	@r1,	r13	
  88:	63 72       	.word	0x7263;	????	Illegal as 2-op instr
  8a:	6f 73       	subc.b	#2,	r15	;r3 As==10
  8c:	2e 68       	addc	@r8,	r14	
  8e:	00 01       	.word	0x0100;	????	
  90:	00 00       	.word	0x0000;	????	
  92:	69 6e       	addc.b	@r14,	r9	
  94:	34 33       	jn	$-406    	;abs 0xfefe
  96:	30 2e       	jc	$-926    	;abs 0xfcf8
  98:	68 00       	.word	0x0068;	????	
  9a:	01 00       	.word	0x0001;	????	
  9c:	00 69       	addc	r9,	r0	
  9e:	6e 74       	subc.b	@r4,	r14	
  a0:	72 69       	addc.b	@r9+,	r2	
  a2:	6e 73       	subc.b	#2,	r14	;r3 As==10
  a4:	69 63       	addc.b	#2,	r9	;r3 As==10
  a6:	73 2e       	jc	$-792    	;abs 0xfd8e
  a8:	68 00       	.word	0x0068;	????	
  aa:	01 00       	.word	0x0001;	????	
  ac:	00 00       	.word	0x0000;	????	
  ae:	00 03       	.word	0x0300;	????	
  b0:	02 3e       	jmp	$-1018   	;abs 0xfcb6
  b2:	c0 03       	.word	0x03c0;	????	
  b4:	f1 00       	.word	0x00f1;	????	
  b6:	01 68       	addc	r8,	r1	
  b8:	69 4b       	mov.b	@r11,	r9	
  ba:	83 83       	sub	#0,	#1	;r3 As==00, r3 As==01
  bc:	4c 4d       	mov.b	r13,	r12	
  be:	bb 83 83 9f 	sub	#-1,	-24701(r11);r3 As==11, 0x9f83(r11)
  c2:	bb a2 bb bb 	dadd	#8,	-17477(r11);r2 As==11, 0xbbbb(r11)
  c6:	bb 83 a1 bb 	sub	#-1,	-17503(r11);r3 As==11, 0xbba1(r11)
  ca:	bb bb 4e 4b 	bit	@r11+,	19278(r11);0x4b4e(r11)
  ce:	67 67       	addc.b	@r7,	r7	
  d0:	03 12       	push	#0		;r3 As==00
  d2:	4a 4b       	mov.b	r11,	r10	
  d4:	68 4b       	mov.b	@r11,	r8	
  d6:	9f 4b 4b 9f 	mov	-24757(r11),187(r15);0x9f4b(r11), 0x00bb(r15)
  da:	bb 00 
  dc:	02 04       	.word	0x0402;	????	
  de:	01 50       	add	r0,	r1	
  e0:	00 02       	.word	0x0200;	????	
  e2:	04 01       	.word	0x0104;	????	
  e4:	68 d7       	bis.b	@r7,	r8	
  e6:	bf 4c 00 02 	mov	@r12+,	512(r15);0x0200(r15)
  ea:	04 01       	.word	0x0104;	????	
  ec:	31 00       	.word	0x0031;	????	
  ee:	02 04       	.word	0x0402;	????	
  f0:	01 4b       	mov	r11,	r1	
  f2:	02 02       	.word	0x0202;	????	
  f4:	00 01       	.word	0x0100;	????	
  f6:	01 00       	.word	0x0001;	????	
  f8:	03 02       	.word	0x0203;	????	
  fa:	84 c1 03 cf 	bic	r1,	-12541(r4);0xcf03(r4)
  fe:	01 01       	.word	0x0101;	????	
 100:	85 db bc 9f 	bis	r11,	-24644(r5);0x9fbc(r5)
 104:	68 be       	bit.b	@r14,	r8	
 106:	08 3e       	jmp	$-1006   	;abs 0xfd18
 108:	bb 4b bb 4b 	mov	@r11+,	19387(r11);0x4bbb(r11)
 10c:	31 9f       	cmp	@r15+,	r1	
 10e:	67 bb       	bit.b	@r11,	r7	
 110:	4d 03       	.word	0x034d;	????	
 112:	0b 2e       	jc	$-1000   	;abs 0xfd2a
 114:	d9 a1 bb 9f 	dadd.b	-24645(r1),-10421(r9);0x9fbb(r1), 0xd74b(r9)
 118:	4b d7 
 11a:	a0 bb 03 68 	bit	@r11,	26627(r0);PC rel. 0x691f
 11e:	ba 03       	.word	0x03ba;	????	
 120:	1c 2e       	jc	$-966    	;abs 0xfd5a
 122:	6e 84       	sub.b	@r4,	r14	
 124:	4c 83       	sub.b	#0,	r12	;r3 As==00
 126:	84 9f 69 4b 	cmp	r15,	19305(r4);0x4b69(r4)
 12a:	6d f4       	and.b	@r4,	r13	
 12c:	d8 a1 bb 4b 	dadd.b	19387(r1),-24756(r8);0x4bbb(r1), 0x9f4c(r8)
 130:	4c 9f 
 132:	bc 03       	.word	0x03bc;	????	
 134:	17 ba f3 4c 	bit	19699(r10),r7	;0x4cf3(r10)
 138:	a0 84 9f bc 	sub	@r4,	-17249(r0);PC rel. 0xbdd9
 13c:	4d 83       	sub.b	#0,	r13	;r3 As==00
 13e:	be 4c 03 13 	mov	@r12+,	4867(r14);0x1303(r14)
 142:	ba 67 bc bb 	addc	@r7+,	-17476(r10);0xbbbc(r10)
 146:	4b 03       	.word	0x034b;	????	
 148:	10 4a 67 4b 	br	19303(r10)	;0x4b67(r10)
 14c:	bd bb 02 04 	bit	@r11+,	1026(r13);0x0402(r13)
 150:	00 01       	.word	0x0100;	????	
 152:	01 80       	sub	r0,	r1	
 154:	00 00       	.word	0x0000;	????	
 156:	00 02       	.word	0x0200;	????	
 158:	00 6a       	addc	r10,	r0	
 15a:	00 00       	.word	0x0000;	????	
 15c:	00 01       	.word	0x0100;	????	
 15e:	01 fb       	and	r11,	r1	
 160:	0e 0d       	.word	0x0d0e;	????	
 162:	00 01       	.word	0x0100;	????	
 164:	01 01       	.word	0x0101;	????	
 166:	01 00       	.word	0x0001;	????	
 168:	00 00       	.word	0x0000;	????	
 16a:	01 00       	.word	0x0001;	????	
 16c:	00 01       	.word	0x0100;	????	
 16e:	2f 62       	addc	#4,	r15	;r2 As==10
 170:	75 69       	addc.b	@r9+,	r5	
 172:	6c 64       	addc.b	@r4,	r12	
 174:	2f 62       	addc	#4,	r15	;r2 As==10
 176:	75 69       	addc.b	@r9+,	r5	
 178:	6c 64       	addc.b	@r4,	r12	
 17a:	64 2f       	jc	$-310    	;abs 0x44
 17c:	67 63       	addc.b	#2,	r7	;r3 As==10
 17e:	63 2d       	jc	$+712    	;abs 0x446
 180:	6d 73       	subc.b	#2,	r13	;r3 As==10
 182:	70 34       	jge	$+226    	;abs 0x264
 184:	33 30       	jn	$+104    	;abs 0x1ec
 186:	2d 34       	jge	$+92     	;abs 0x1e2
 188:	2e 36       	jge	$-930    	;abs 0xfde6
 18a:	2e 33       	jn	$-418    	;abs 0xffe8
 18c:	7e 6d       	addc.b	@r13+,	r14	
 18e:	73 70       	.word	0x7073;	????	Illegal as 2-op instr
 190:	67 63       	addc.b	#2,	r7	;r3 As==10
 192:	63 2d       	jc	$+712    	;abs 0x45a
 194:	32 30       	jn	$+102    	;abs 0x1fa
 196:	31 32       	jn	$-924    	;abs 0xfdfa
 198:	30 34       	jge	$+98     	;abs 0x1fa
 19a:	30 36       	jge	$-926    	;abs 0xfdfc
 19c:	2f 2e       	jc	$-928    	;abs 0xfdfc
 19e:	2f 67       	addc	@r7,	r15	
 1a0:	63 63       	.word	0x6363;	????	Illegal as 2-op instr
 1a2:	2d 34       	jge	$+92     	;abs 0x1fe
 1a4:	2e 36       	jge	$-930    	;abs 0xfe02
 1a6:	2e 33       	jn	$-418    	;abs 0x4
 1a8:	2f 67       	addc	@r7,	r15	
 1aa:	63 63       	.word	0x6363;	????	Illegal as 2-op instr
 1ac:	2f 63       	addc	#2,	r15	;r3 As==10
 1ae:	6f 6e       	addc.b	@r14,	r15	
 1b0:	66 69       	addc.b	@r9,	r6	
 1b2:	67 2f       	jc	$-304    	;abs 0x82
 1b4:	6d 73       	subc.b	#2,	r13	;r3 As==10
 1b6:	70 34       	jge	$+226    	;abs 0x298
 1b8:	33 30       	jn	$+104    	;abs 0x220
 1ba:	00 00       	.word	0x0000;	????	
 1bc:	63 72       	.word	0x7263;	????	Illegal as 2-op instr
 1be:	74 30       	jn	$+234    	;abs 0x2a8
 1c0:	2e 53       	incd	r14		
 1c2:	00 01       	.word	0x0100;	????	
 1c4:	00 00       	.word	0x0000;	????	
 1c6:	00 00       	.word	0x0000;	????	
 1c8:	03 02       	.word	0x0203;	????	
 1ca:	00 c0       	bic	r0,	r0	
 1cc:	03 e8       	.word	0xe803;	????	Illegal as 2-op instr
 1ce:	00 01       	.word	0x0100;	????	
 1d0:	4b 4b       	mov.b	r11,	r11	
 1d2:	02 04       	.word	0x0402;	????	
 1d4:	00 01       	.word	0x0100;	????	
 1d6:	01 7e       	subc	r14,	r1	
 1d8:	00 00       	.word	0x0000;	????	
 1da:	00 02       	.word	0x0200;	????	
 1dc:	00 6a       	addc	r10,	r0	
 1de:	00 00       	.word	0x0000;	????	
 1e0:	00 01       	.word	0x0100;	????	
 1e2:	01 fb       	and	r11,	r1	
 1e4:	0e 0d       	.word	0x0d0e;	????	
 1e6:	00 01       	.word	0x0100;	????	
 1e8:	01 01       	.word	0x0101;	????	
 1ea:	01 00       	.word	0x0001;	????	
 1ec:	00 00       	.word	0x0000;	????	
 1ee:	01 00       	.word	0x0001;	????	
 1f0:	00 01       	.word	0x0100;	????	
 1f2:	2f 62       	addc	#4,	r15	;r2 As==10
 1f4:	75 69       	addc.b	@r9+,	r5	
 1f6:	6c 64       	addc.b	@r4,	r12	
 1f8:	2f 62       	addc	#4,	r15	;r2 As==10
 1fa:	75 69       	addc.b	@r9+,	r5	
 1fc:	6c 64       	addc.b	@r4,	r12	
 1fe:	64 2f       	jc	$-310    	;abs 0xc8
 200:	67 63       	addc.b	#2,	r7	;r3 As==10
 202:	63 2d       	jc	$+712    	;abs 0x4ca
 204:	6d 73       	subc.b	#2,	r13	;r3 As==10
 206:	70 34       	jge	$+226    	;abs 0x2e8
 208:	33 30       	jn	$+104    	;abs 0x270
 20a:	2d 34       	jge	$+92     	;abs 0x266
 20c:	2e 36       	jge	$-930    	;abs 0xfe6a
 20e:	2e 33       	jn	$-418    	;abs 0x6c
 210:	7e 6d       	addc.b	@r13+,	r14	
 212:	73 70       	.word	0x7073;	????	Illegal as 2-op instr
 214:	67 63       	addc.b	#2,	r7	;r3 As==10
 216:	63 2d       	jc	$+712    	;abs 0x4de
 218:	32 30       	jn	$+102    	;abs 0x27e
 21a:	31 32       	jn	$-924    	;abs 0xfe7e
 21c:	30 34       	jge	$+98     	;abs 0x27e
 21e:	30 36       	jge	$-926    	;abs 0xfe80
 220:	2f 2e       	jc	$-928    	;abs 0xfe80
 222:	2f 67       	addc	@r7,	r15	
 224:	63 63       	.word	0x6363;	????	Illegal as 2-op instr
 226:	2d 34       	jge	$+92     	;abs 0x282
 228:	2e 36       	jge	$-930    	;abs 0xfe86
 22a:	2e 33       	jn	$-418    	;abs 0x88
 22c:	2f 67       	addc	@r7,	r15	
 22e:	63 63       	.word	0x6363;	????	Illegal as 2-op instr
 230:	2f 63       	addc	#2,	r15	;r3 As==10
 232:	6f 6e       	addc.b	@r14,	r15	
 234:	66 69       	addc.b	@r9,	r6	
 236:	67 2f       	jc	$-304    	;abs 0x106
 238:	6d 73       	subc.b	#2,	r13	;r3 As==10
 23a:	70 34       	jge	$+226    	;abs 0x31c
 23c:	33 30       	jn	$+104    	;abs 0x2a4
 23e:	00 00       	.word	0x0000;	????	
 240:	63 72       	.word	0x7263;	????	Illegal as 2-op instr
 242:	74 30       	jn	$+234    	;abs 0x32c
 244:	2e 53       	incd	r14		
 246:	00 01       	.word	0x0100;	????	
 248:	00 00       	.word	0x0000;	????	
 24a:	00 00       	.word	0x0000;	????	
 24c:	03 02       	.word	0x0203;	????	
 24e:	0c c0       	bic	r0,	r12	
 250:	03 99       	.word	0x9903;	????	Illegal as 2-op instr
 252:	01 01       	.word	0x0101;	????	
 254:	02 04       	.word	0x0402;	????	
 256:	00 01       	.word	0x0100;	????	
 258:	01 84       	sub	r4,	r1	
 25a:	00 00       	.word	0x0000;	????	
 25c:	00 02       	.word	0x0200;	????	
 25e:	00 6a       	addc	r10,	r0	
 260:	00 00       	.word	0x0000;	????	
 262:	00 01       	.word	0x0100;	????	
 264:	01 fb       	and	r11,	r1	
 266:	0e 0d       	.word	0x0d0e;	????	
 268:	00 01       	.word	0x0100;	????	
 26a:	01 01       	.word	0x0101;	????	
 26c:	01 00       	.word	0x0001;	????	
 26e:	00 00       	.word	0x0000;	????	
 270:	01 00       	.word	0x0001;	????	
 272:	00 01       	.word	0x0100;	????	
 274:	2f 62       	addc	#4,	r15	;r2 As==10
 276:	75 69       	addc.b	@r9+,	r5	
 278:	6c 64       	addc.b	@r4,	r12	
 27a:	2f 62       	addc	#4,	r15	;r2 As==10
 27c:	75 69       	addc.b	@r9+,	r5	
 27e:	6c 64       	addc.b	@r4,	r12	
 280:	64 2f       	jc	$-310    	;abs 0x14a
 282:	67 63       	addc.b	#2,	r7	;r3 As==10
 284:	63 2d       	jc	$+712    	;abs 0x54c
 286:	6d 73       	subc.b	#2,	r13	;r3 As==10
 288:	70 34       	jge	$+226    	;abs 0x36a
 28a:	33 30       	jn	$+104    	;abs 0x2f2
 28c:	2d 34       	jge	$+92     	;abs 0x2e8
 28e:	2e 36       	jge	$-930    	;abs 0xfeec
 290:	2e 33       	jn	$-418    	;abs 0xee
 292:	7e 6d       	addc.b	@r13+,	r14	
 294:	73 70       	.word	0x7073;	????	Illegal as 2-op instr
 296:	67 63       	addc.b	#2,	r7	;r3 As==10
 298:	63 2d       	jc	$+712    	;abs 0x560
 29a:	32 30       	jn	$+102    	;abs 0x300
 29c:	31 32       	jn	$-924    	;abs 0xff00
 29e:	30 34       	jge	$+98     	;abs 0x300
 2a0:	30 36       	jge	$-926    	;abs 0xff02
 2a2:	2f 2e       	jc	$-928    	;abs 0xff02
 2a4:	2f 67       	addc	@r7,	r15	
 2a6:	63 63       	.word	0x6363;	????	Illegal as 2-op instr
 2a8:	2d 34       	jge	$+92     	;abs 0x304
 2aa:	2e 36       	jge	$-930    	;abs 0xff08
 2ac:	2e 33       	jn	$-418    	;abs 0x10a
 2ae:	2f 67       	addc	@r7,	r15	
 2b0:	63 63       	.word	0x6363;	????	Illegal as 2-op instr
 2b2:	2f 63       	addc	#2,	r15	;r3 As==10
 2b4:	6f 6e       	addc.b	@r14,	r15	
 2b6:	66 69       	addc.b	@r9,	r6	
 2b8:	67 2f       	jc	$-304    	;abs 0x188
 2ba:	6d 73       	subc.b	#2,	r13	;r3 As==10
 2bc:	70 34       	jge	$+226    	;abs 0x39e
 2be:	33 30       	jn	$+104    	;abs 0x326
 2c0:	00 00       	.word	0x0000;	????	
 2c2:	63 72       	.word	0x7263;	????	Illegal as 2-op instr
 2c4:	74 30       	jn	$+234    	;abs 0x3ae
 2c6:	2e 53       	incd	r14		
 2c8:	00 01       	.word	0x0100;	????	
 2ca:	00 00       	.word	0x0000;	????	
 2cc:	00 00       	.word	0x0000;	????	
 2ce:	03 02       	.word	0x0203;	????	
 2d0:	10 c0 03 bc 	bic	-17405(r0),r0	;PC rel. 0xbed5
 2d4:	01 01       	.word	0x0101;	????	
 2d6:	4b 2f       	jc	$-360    	;abs 0x16e
 2d8:	30 67       	addc	@r7+,	r0	
 2da:	2f 67       	addc	@r7,	r15	
 2dc:	02 02       	.word	0x0202;	????	
 2de:	00 01       	.word	0x0100;	????	
 2e0:	01 84       	sub	r4,	r1	
 2e2:	00 00       	.word	0x0000;	????	
 2e4:	00 02       	.word	0x0200;	????	
 2e6:	00 6a       	addc	r10,	r0	
 2e8:	00 00       	.word	0x0000;	????	
 2ea:	00 01       	.word	0x0100;	????	
 2ec:	01 fb       	and	r11,	r1	
 2ee:	0e 0d       	.word	0x0d0e;	????	
 2f0:	00 01       	.word	0x0100;	????	
 2f2:	01 01       	.word	0x0101;	????	
 2f4:	01 00       	.word	0x0001;	????	
 2f6:	00 00       	.word	0x0000;	????	
 2f8:	01 00       	.word	0x0001;	????	
 2fa:	00 01       	.word	0x0100;	????	
 2fc:	2f 62       	addc	#4,	r15	;r2 As==10
 2fe:	75 69       	addc.b	@r9+,	r5	
 300:	6c 64       	addc.b	@r4,	r12	
 302:	2f 62       	addc	#4,	r15	;r2 As==10
 304:	75 69       	addc.b	@r9+,	r5	
 306:	6c 64       	addc.b	@r4,	r12	
 308:	64 2f       	jc	$-310    	;abs 0x1d2
 30a:	67 63       	addc.b	#2,	r7	;r3 As==10
 30c:	63 2d       	jc	$+712    	;abs 0x5d4
 30e:	6d 73       	subc.b	#2,	r13	;r3 As==10
 310:	70 34       	jge	$+226    	;abs 0x3f2
 312:	33 30       	jn	$+104    	;abs 0x37a
 314:	2d 34       	jge	$+92     	;abs 0x370
 316:	2e 36       	jge	$-930    	;abs 0xff74
 318:	2e 33       	jn	$-418    	;abs 0x176
 31a:	7e 6d       	addc.b	@r13+,	r14	
 31c:	73 70       	.word	0x7073;	????	Illegal as 2-op instr
 31e:	67 63       	addc.b	#2,	r7	;r3 As==10
 320:	63 2d       	jc	$+712    	;abs 0x5e8
 322:	32 30       	jn	$+102    	;abs 0x388
 324:	31 32       	jn	$-924    	;abs 0xff88
 326:	30 34       	jge	$+98     	;abs 0x388
 328:	30 36       	jge	$-926    	;abs 0xff8a
 32a:	2f 2e       	jc	$-928    	;abs 0xff8a
 32c:	2f 67       	addc	@r7,	r15	
 32e:	63 63       	.word	0x6363;	????	Illegal as 2-op instr
 330:	2d 34       	jge	$+92     	;abs 0x38c
 332:	2e 36       	jge	$-930    	;abs 0xff90
 334:	2e 33       	jn	$-418    	;abs 0x192
 336:	2f 67       	addc	@r7,	r15	
 338:	63 63       	.word	0x6363;	????	Illegal as 2-op instr
 33a:	2f 63       	addc	#2,	r15	;r3 As==10
 33c:	6f 6e       	addc.b	@r14,	r15	
 33e:	66 69       	addc.b	@r9,	r6	
 340:	67 2f       	jc	$-304    	;abs 0x210
 342:	6d 73       	subc.b	#2,	r13	;r3 As==10
 344:	70 34       	jge	$+226    	;abs 0x426
 346:	33 30       	jn	$+104    	;abs 0x3ae
 348:	00 00       	.word	0x0000;	????	
 34a:	63 72       	.word	0x7263;	????	Illegal as 2-op instr
 34c:	74 30       	jn	$+234    	;abs 0x436
 34e:	2e 53       	incd	r14		
 350:	00 01       	.word	0x0100;	????	
 352:	00 00       	.word	0x0000;	????	
 354:	00 00       	.word	0x0000;	????	
 356:	03 02       	.word	0x0203;	????	
 358:	28 c0       	bic	@r0,	r8	
 35a:	03 d6       	.word	0xd603;	????	Illegal as 2-op instr
 35c:	01 01       	.word	0x0101;	????	
 35e:	4b 2f       	jc	$-360    	;abs 0x1f6
 360:	30 67       	addc	@r7+,	r0	
 362:	2f 4b       	mov	@r11,	r15	
 364:	02 02       	.word	0x0202;	????	
 366:	00 01       	.word	0x0100;	????	
 368:	01 7f       	subc	r15,	r1	
 36a:	00 00       	.word	0x0000;	????	
 36c:	00 02       	.word	0x0200;	????	
 36e:	00 6a       	addc	r10,	r0	
 370:	00 00       	.word	0x0000;	????	
 372:	00 01       	.word	0x0100;	????	
 374:	01 fb       	and	r11,	r1	
 376:	0e 0d       	.word	0x0d0e;	????	
 378:	00 01       	.word	0x0100;	????	
 37a:	01 01       	.word	0x0101;	????	
 37c:	01 00       	.word	0x0001;	????	
 37e:	00 00       	.word	0x0000;	????	
 380:	01 00       	.word	0x0001;	????	
 382:	00 01       	.word	0x0100;	????	
 384:	2f 62       	addc	#4,	r15	;r2 As==10
 386:	75 69       	addc.b	@r9+,	r5	
 388:	6c 64       	addc.b	@r4,	r12	
 38a:	2f 62       	addc	#4,	r15	;r2 As==10
 38c:	75 69       	addc.b	@r9+,	r5	
 38e:	6c 64       	addc.b	@r4,	r12	
 390:	64 2f       	jc	$-310    	;abs 0x25a
 392:	67 63       	addc.b	#2,	r7	;r3 As==10
 394:	63 2d       	jc	$+712    	;abs 0x65c
 396:	6d 73       	subc.b	#2,	r13	;r3 As==10
 398:	70 34       	jge	$+226    	;abs 0x47a
 39a:	33 30       	jn	$+104    	;abs 0x402
 39c:	2d 34       	jge	$+92     	;abs 0x3f8
 39e:	2e 36       	jge	$-930    	;abs 0xfffc
 3a0:	2e 33       	jn	$-418    	;abs 0x1fe
 3a2:	7e 6d       	addc.b	@r13+,	r14	
 3a4:	73 70       	.word	0x7073;	????	Illegal as 2-op instr
 3a6:	67 63       	addc.b	#2,	r7	;r3 As==10
 3a8:	63 2d       	jc	$+712    	;abs 0x670
 3aa:	32 30       	jn	$+102    	;abs 0x410
 3ac:	31 32       	jn	$-924    	;abs 0x10
 3ae:	30 34       	jge	$+98     	;abs 0x410
 3b0:	30 36       	jge	$-926    	;abs 0x12
 3b2:	2f 2e       	jc	$-928    	;abs 0x12
 3b4:	2f 67       	addc	@r7,	r15	
 3b6:	63 63       	.word	0x6363;	????	Illegal as 2-op instr
 3b8:	2d 34       	jge	$+92     	;abs 0x414
 3ba:	2e 36       	jge	$-930    	;abs 0x18
 3bc:	2e 33       	jn	$-418    	;abs 0x21a
 3be:	2f 67       	addc	@r7,	r15	
 3c0:	63 63       	.word	0x6363;	????	Illegal as 2-op instr
 3c2:	2f 63       	addc	#2,	r15	;r3 As==10
 3c4:	6f 6e       	addc.b	@r14,	r15	
 3c6:	66 69       	addc.b	@r9,	r6	
 3c8:	67 2f       	jc	$-304    	;abs 0x298
 3ca:	6d 73       	subc.b	#2,	r13	;r3 As==10
 3cc:	70 34       	jge	$+226    	;abs 0x4ae
 3ce:	33 30       	jn	$+104    	;abs 0x436
 3d0:	00 00       	.word	0x0000;	????	
 3d2:	63 72       	.word	0x7263;	????	Illegal as 2-op instr
 3d4:	74 30       	jn	$+234    	;abs 0x4be
 3d6:	2e 53       	incd	r14		
 3d8:	00 01       	.word	0x0100;	????	
 3da:	00 00       	.word	0x0000;	????	
 3dc:	00 00       	.word	0x0000;	????	
 3de:	03 02       	.word	0x0203;	????	
 3e0:	7a c1       	bic.b	@r1+,	r10	
 3e2:	03 fe       	.word	0xfe03;	????	Illegal as 2-op instr
 3e4:	01 01       	.word	0x0101;	????	
 3e6:	4b 02       	.word	0x024b;	????	
 3e8:	02 00       	.word	0x0002;	????	
 3ea:	01 01       	.word	0x0101;	????	
 3ec:	7e 00       	.word	0x007e;	????	
 3ee:	00 00       	.word	0x0000;	????	
 3f0:	02 00       	.word	0x0002;	????	
 3f2:	6a 00       	.word	0x006a;	????	
 3f4:	00 00       	.word	0x0000;	????	
 3f6:	01 01       	.word	0x0101;	????	
 3f8:	fb 0e       	.word	0x0efb;	????	
 3fa:	0d 00       	.word	0x000d;	????	
 3fc:	01 01       	.word	0x0101;	????	
 3fe:	01 01       	.word	0x0101;	????	
 400:	00 00       	.word	0x0000;	????	
 402:	00 01       	.word	0x0100;	????	
 404:	00 00       	.word	0x0000;	????	
 406:	01 2f       	jc	$-508    	;abs 0x20a
 408:	62 75       	subc.b	@r5,	r2	
 40a:	69 6c       	addc.b	@r12,	r9	
 40c:	64 2f       	jc	$-310    	;abs 0x2d6
 40e:	62 75       	subc.b	@r5,	r2	
 410:	69 6c       	addc.b	@r12,	r9	
 412:	64 64       	addc.b	@r4,	r4	
 414:	2f 67       	addc	@r7,	r15	
 416:	63 63       	.word	0x6363;	????	Illegal as 2-op instr
 418:	2d 6d       	addc	@r13,	r13	
 41a:	73 70       	.word	0x7073;	????	Illegal as 2-op instr
 41c:	34 33       	jn	$-406    	;abs 0x286
 41e:	30 2d       	jc	$+610    	;abs 0x680
 420:	34 2e       	jc	$-918    	;abs 0x8a
 422:	36 2e       	jc	$-914    	;abs 0x90
 424:	33 7e       	.word	0x7e33;	????	Illegal as 2-op instr
 426:	6d 73       	subc.b	#2,	r13	;r3 As==10
 428:	70 67       	addc.b	@r7+,	r0	
 42a:	63 63       	.word	0x6363;	????	Illegal as 2-op instr
 42c:	2d 32       	jn	$-932    	;abs 0x88
 42e:	30 31       	jn	$+610    	;abs 0x690
 430:	32 30       	jn	$+102    	;abs 0x496
 432:	34 30       	jn	$+106    	;abs 0x49c
 434:	36 2f       	jc	$-402    	;abs 0x2a2
 436:	2e 2f       	jc	$-418    	;abs 0x294
 438:	67 63       	addc.b	#2,	r7	;r3 As==10
 43a:	63 2d       	jc	$+712    	;abs 0x702
 43c:	34 2e       	jc	$-918    	;abs 0xa6
 43e:	36 2e       	jc	$-914    	;abs 0xac
 440:	33 2f       	jc	$-408    	;abs 0x2a8
 442:	67 63       	addc.b	#2,	r7	;r3 As==10
 444:	63 2f       	jc	$-312    	;abs 0x30c
 446:	63 6f       	.word	0x6f63;	????	Illegal as 2-op instr
 448:	6e 66       	addc.b	@r6,	r14	
 44a:	69 67       	addc.b	@r7,	r9	
 44c:	2f 6d       	addc	@r13,	r15	
 44e:	73 70       	.word	0x7073;	????	Illegal as 2-op instr
 450:	34 33       	jn	$-406    	;abs 0x2ba
 452:	30 00       	.word	0x0030;	????	
 454:	00 63       	adc	r0		
 456:	72 74       	subc.b	@r4+,	r2	
 458:	30 2e       	jc	$-926    	;abs 0xba
 45a:	53 00       	.word	0x0053;	????	
 45c:	01 00       	.word	0x0001;	????	
 45e:	00 00       	.word	0x0000;	????	
 460:	00 03       	.word	0x0300;	????	
 462:	02 c8       	bic	r8,	r2	
 464:	c3 03       	.word	0x03c3;	????	
 466:	cd 02       	.word	0x02cd;	????	
 468:	01 02       	.word	0x0201;	????	
 46a:	02 00       	.word	0x0002;	????	
 46c:	01 01       	.word	0x0101;	????	

Disassembly of section .debug_frame:

00000000 <.debug_frame>:
   0:	0e 00       	.word	0x000e;	????	
   2:	00 00       	.word	0x0000;	????	
   4:	ff ff ff ff 	and.b	@r15+,	-1(r15)	;0xffff(r15)
   8:	01 00       	.word	0x0001;	????	
   a:	01 7e       	subc	r14,	r1	
   c:	00 0c       	.word	0x0c00;	????	
   e:	01 02       	.word	0x0201;	????	
  10:	80 01       	.word	0x0180;	????	
  12:	0e 00       	.word	0x000e;	????	
  14:	00 00       	.word	0x0000;	????	
  16:	00 00       	.word	0x0000;	????	
  18:	00 00       	.word	0x0000;	????	
  1a:	3e c0 3c 01 	bic	#316,	r14	;#0x013c
  1e:	42 0d       	.word	0x0d42;	????	
  20:	04 42       	mov	r2,	r4	
  22:	0e 00       	.word	0x000e;	????	
  24:	14 00       	.word	0x0014;	????	
  26:	00 00       	.word	0x0000;	????	
  28:	00 00       	.word	0x0000;	????	
  2a:	00 00       	.word	0x0000;	????	
  2c:	84 c1 00 01 	bic	r1,	256(r4)	;0x0100(r4)
  30:	42 0e       	.word	0x0e42;	????	
  32:	04 84       	sub	r4,	r4	
  34:	02 42       	mov	r2,	r2	
  36:	0d 04       	.word	0x040d;	????	
  38:	42 0e       	.word	0x0e42;	????	
  3a:	02 00       	.word	0x0002;	????	
  3c:	14 00       	.word	0x0014;	????	
  3e:	00 00       	.word	0x0000;	????	
  40:	00 00       	.word	0x0000;	????	
  42:	00 00       	.word	0x0000;	????	
  44:	84 c2 36 00 	bic	r2,	54(r4)	;0x0036(r4)
  48:	42 0e       	.word	0x0e42;	????	
  4a:	04 84       	sub	r4,	r4	
  4c:	02 42       	mov	r2,	r2	
  4e:	0d 04       	.word	0x040d;	????	
  50:	42 0e       	.word	0x0e42;	????	
  52:	02 00       	.word	0x0002;	????	
  54:	28 00       	.word	0x0028;	????	
  56:	00 00       	.word	0x0000;	????	
  58:	00 00       	.word	0x0000;	????	
  5a:	00 00       	.word	0x0000;	????	
  5c:	ba c2 5e 00 	bic	#8,	94(r10)	;r2 As==11, 0x005e(r10)
  60:	42 0e       	.word	0x0e42;	????	
  62:	04 8f       	sub	r15,	r4	
  64:	02 42       	mov	r2,	r2	
  66:	0e 06       	.word	0x060e;	????	
  68:	8e 03       	.word	0x038e;	????	
  6a:	42 0e       	.word	0x0e42;	????	
  6c:	08 8d       	sub	r13,	r8	
  6e:	04 42       	mov	r2,	r4	
  70:	0e 0a       	.word	0x0a0e;	????	
  72:	8c 05       	.word	0x058c;	????	
  74:	42 0e       	.word	0x0e42;	????	
  76:	0c 84       	sub	r4,	r12	
  78:	06 42       	mov	r2,	r6	
  7a:	0d 04       	.word	0x040d;	????	
  7c:	44 0e       	.word	0x0e44;	????	
  7e:	02 00       	.word	0x0002;	????	
  80:	28 00       	.word	0x0028;	????	
  82:	00 00       	.word	0x0000;	????	
  84:	00 00       	.word	0x0000;	????	
  86:	00 00       	.word	0x0000;	????	
  88:	18 c3       	bic	#1,	r8	;r3 As==01
  8a:	64 00       	.word	0x0064;	????	
  8c:	42 0e       	.word	0x0e42;	????	
  8e:	04 8f       	sub	r15,	r4	
  90:	02 42       	mov	r2,	r2	
  92:	0e 06       	.word	0x060e;	????	
  94:	8e 03       	.word	0x038e;	????	
  96:	42 0e       	.word	0x0e42;	????	
  98:	08 8d       	sub	r13,	r8	
  9a:	04 42       	mov	r2,	r4	
  9c:	0e 0a       	.word	0x0a0e;	????	
  9e:	8c 05       	.word	0x058c;	????	
  a0:	42 0e       	.word	0x0e42;	????	
  a2:	0c 84       	sub	r4,	r12	
  a4:	06 42       	mov	r2,	r6	
  a6:	0d 04       	.word	0x040d;	????	
  a8:	44 0e       	.word	0x0e44;	????	
  aa:	02 00       	.word	0x0002;	????	
  ac:	14 00       	.word	0x0014;	????	
  ae:	00 00       	.word	0x0000;	????	
  b0:	00 00       	.word	0x0000;	????	
  b2:	00 00       	.word	0x0000;	????	
  b4:	7c c3       	bic.b	#-1,	r12	;r3 As==11
  b6:	26 00       	.word	0x0026;	????	
  b8:	42 0e       	.word	0x0e42;	????	
  ba:	04 84       	sub	r4,	r4	
  bc:	02 42       	mov	r2,	r2	
  be:	0d 04       	.word	0x040d;	????	
  c0:	42 0e       	.word	0x0e42;	????	
  c2:	02 00       	.word	0x0002;	????	
  c4:	14 00       	.word	0x0014;	????	
  c6:	00 00       	.word	0x0000;	????	
  c8:	00 00       	.word	0x0000;	????	
  ca:	00 00       	.word	0x0000;	????	
  cc:	a2 c3 26 00 	bic	#2,	&0x0026	;r3 As==10
  d0:	42 0e       	.word	0x0e42;	????	
  d2:	04 84       	sub	r4,	r4	
  d4:	02 42       	mov	r2,	r2	
  d6:	0d 04       	.word	0x040d;	????	
  d8:	42 0e       	.word	0x0e42;	????	
  da:	02 00       	.word	0x0002;	????	

Disassembly of section .debug_str:

00000000 <.debug_str>:
   0:	67 65       	addc.b	@r5,	r7	
   2:	74 5f       	add.b	@r15+,	r4	
   4:	64 61       	addc.b	@r1,	r4	
   6:	74 61       	addc.b	@r1+,	r4	
   8:	5f 6c 65 6e 	addc.b	28261(r12),r15	;0x6e65(r12)
   c:	67 74       	subc.b	@r4,	r7	
   e:	68 00       	.word	0x0068;	????	
  10:	5f 5f 55 43 	add.b	17237(r15),r15	;0x4355(r15)
  14:	41 30       	jn	$+132    	;abs 0x98
  16:	42 52       	rla.b	r2		
  18:	31 00       	.word	0x0031;	????	
  1a:	5f 5f 50 31 	add.b	12624(r15),r15	;0x3150(r15)
  1e:	4f 55       	add.b	r5,	r15	
  20:	54 00       	.word	0x0054;	????	
  22:	46 41       	mov.b	r1,	r6	
  24:	4c 53       	add.b	#0,	r12	;r3 As==00
  26:	45 00       	.word	0x0045;	????	
  28:	73 74       	.word	0x7473;	????	Illegal as 2-op instr
  2a:	61 72       	subc.b	#4,	r1	;r2 As==10
  2c:	74 5f       	add.b	@r15+,	r4	
  2e:	47 53       	add.b	#0,	r7	;r3 As==00
  30:	43 79       	.word	0x7943;	????	Illegal as 2-op instr
  32:	63 6c       	.word	0x6c63;	????	Illegal as 2-op instr
  34:	65 00       	.word	0x0065;	????	
  36:	5f 5f 50 31 	add.b	12624(r15),r15	;0x3150(r15)
  3a:	44 49       	mov.b	r9,	r4	
  3c:	52 00       	.word	0x0052;	????	
  3e:	5f 5f 49 45 	add.b	17737(r15),r15	;0x4549(r15)
  42:	32 00       	.word	0x0032;	????	
  44:	6d 61       	addc.b	@r1,	r13	
  46:	69 6e       	addc.b	@r14,	r9	
  48:	00 5f       	add	r15,	r0	
  4a:	5f 54 41 30 	add.b	12353(r4),r15	;0x3041(r4)
  4e:	52 00       	.word	0x0052;	????	
  50:	49 6e       	addc.b	r14,	r9	
  52:	69 74       	subc.b	@r4,	r9	
  54:	5f 43       	mov.b	#1,	r15	;r3 As==01
  56:	6f 6d       	addc.b	@r13,	r15	
  58:	70 6c       	addc.b	@r12+,	r0	
  5a:	65 74       	subc.b	@r4,	r5	
  5c:	65 00       	.word	0x0065;	????	
  5e:	5f 5f 43 41 	add.b	16707(r15),r15	;0x4143(r15)
  62:	4c 44       	mov.b	r4,	r12	
  64:	43 4f       	.word	0x4f43;	????	Illegal as 2-op instr
  66:	5f 31       	jn	$+704    	;abs 0x326
  68:	36 4d       	mov	@r13+,	r6	
  6a:	48 5a       	add.b	r10,	r8	
  6c:	00 5f       	add	r15,	r0	
  6e:	5f 55 43 41 	add.b	16707(r5),r15	;0x4143(r5)
  72:	30 53       	add	#-1,	r0	;r3 As==11
  74:	54 41 54 00 	mov.b	84(r1),	r4	;0x0054(r1)
  78:	5f 5f 54 41 	add.b	16724(r15),r15	;0x4154(r15)
  7c:	30 43       	br	#-1		;r3 As==11
  7e:	43 54       	.word	0x5443;	????	Illegal as 2-op instr
  80:	4c 30       	jn	$+154    	;abs 0x11a
  82:	00 75       	subc	r5,	r0	
  84:	69 6e       	addc.b	@r14,	r9	
  86:	74 38       	jl	$+234    	;abs 0x170
  88:	5f 74 00 62 	subc.b	25088(r4),r15	;0x6200(r4)
  8c:	6f 6f       	addc.b	@r15,	r15	
  8e:	6c 00       	.word	0x006c;	????	
  90:	5f 5f 50 31 	add.b	12624(r15),r15	;0x3150(r15)
  94:	53 45       	.word	0x4553;	????	Illegal as 2-op instr
  96:	4c 00       	.word	0x004c;	????	
  98:	5f 5f 50 32 	add.b	12880(r15),r15	;0x3250(r15)
  9c:	4f 55       	add.b	r5,	r15	
  9e:	54 00       	.word	0x0054;	????	
  a0:	6c 6f       	addc.b	@r15,	r12	
  a2:	6e 67       	addc.b	@r7,	r14	
  a4:	20 6c       	addc	@r12,	r0	
  a6:	6f 6e       	addc.b	@r14,	r15	
  a8:	67 20       	jnz	$+208    	;abs 0x178
  aa:	69 6e       	addc.b	@r14,	r9	
  ac:	74 00       	.word	0x0074;	????	
  ae:	5f 5f 44 43 	add.b	17220(r15),r15	;0x4344(r15)
  b2:	4f 43       	clr.b	r15		
  b4:	54 4c 00 73 	mov.b	29440(r12),r4	;0x7300(r12)
  b8:	74 6f       	addc.b	@r15+,	r4	
  ba:	70 5f       	add.b	@r15+,	r0	
  bc:	47 53       	add.b	#0,	r7	;r3 As==00
  be:	43 79       	.word	0x7943;	????	Illegal as 2-op instr
  c0:	63 6c       	.word	0x6c63;	????	Illegal as 2-op instr
  c2:	65 00       	.word	0x0065;	????	
  c4:	5f 5f 57 44 	add.b	17495(r15),r15	;0x4457(r15)
  c8:	54 43       	mov.b	#1,	r4	;r3 As==01
  ca:	54 4c 00 47 	mov.b	18176(r12),r4	;0x4700(r12)
  ce:	4e 55       	add.b	r5,	r14	
  d0:	20 43       	br	#2		;r3 As==10
  d2:	20 34       	jge	$+66     	;abs 0x114
  d4:	2e 36       	jge	$-930    	;abs 0xfd32
  d6:	2e 33       	jn	$-418    	;abs 0xff34
  d8:	20 32       	jn	$-958    	;abs 0xfd1a
  da:	30 31       	jn	$+610    	;abs 0x33c
  dc:	32 30       	jn	$+102    	;abs 0x142
  de:	33 30       	jn	$+104    	;abs 0x146
  e0:	31 20       	jnz	$+100    	;abs 0x144
  e2:	28 6d       	addc	@r13,	r8	
  e4:	73 70       	.word	0x7073;	????	Illegal as 2-op instr
  e6:	67 63       	addc.b	#2,	r7	;r3 As==10
  e8:	63 20       	jnz	$+200    	;abs 0x1b0
  ea:	4c 54       	add.b	r4,	r12	
  ec:	53 20       	jnz	$+168    	;abs 0x194
  ee:	32 30       	jn	$+102    	;abs 0x154
  f0:	31 32       	jn	$-924    	;abs 0xfd54
  f2:	30 34       	jge	$+98     	;abs 0x154
  f4:	30 36       	jge	$-926    	;abs 0xfd56
  f6:	20 75       	subc	@r5,	r0	
  f8:	6e 70       	subc.b	@r0,	r14	
  fa:	61 74       	subc.b	@r4,	r1	
  fc:	63 68       	.word	0x6863;	????	Illegal as 2-op instr
  fe:	65 64       	addc.b	@r4,	r5	
 100:	29 00       	.word	0x0029;	????	
 102:	5f 5f 50 32 	add.b	12880(r15),r15	;0x3250(r15)
 106:	44 49       	mov.b	r9,	r4	
 108:	52 00       	.word	0x0052;	????	
 10a:	67 65       	addc.b	@r5,	r7	
 10c:	74 5f       	add.b	@r15+,	r4	
 10e:	75 61       	addc.b	@r1+,	r5	
 110:	72 74       	subc.b	@r4+,	r2	
 112:	00 64       	addc	r4,	r0	
 114:	75 6d       	addc.b	@r13+,	r5	
 116:	6d 79       	subc.b	@r9,	r13	
 118:	00 58       	add	r8,	r0	
 11a:	4c 41       	mov.b	r1,	r12	
 11c:	54 5f 54 72 	add.b	29268(r15),r4	;0x7254(r15)
 120:	69 67       	addc.b	@r7,	r9	
 122:	00 75       	subc	r5,	r0	
 124:	6e 73       	subc.b	#2,	r14	;r3 As==10
 126:	69 67       	addc.b	@r7,	r9	
 128:	6e 65       	addc.b	@r5,	r14	
 12a:	64 20       	jnz	$+202    	;abs 0x1f4
 12c:	63 68       	.word	0x6863;	????	Illegal as 2-op instr
 12e:	61 72       	subc.b	#4,	r1	;r2 As==10
 130:	00 5f       	add	r15,	r0	
 132:	5f 50 31 53 	add.b	21297(r0),r15	;PC rel. 0x5465
 136:	45 4c       	mov.b	r12,	r5	
 138:	32 00       	.word	0x0032;	????	
 13a:	6c 6f       	addc.b	@r15,	r12	
 13c:	6e 67       	addc.b	@r7,	r14	
 13e:	20 6c       	addc	@r12,	r0	
 140:	6f 6e       	addc.b	@r14,	r15	
 142:	67 20       	jnz	$+208    	;abs 0x212
 144:	75 6e       	addc.b	@r14+,	r5	
 146:	73 69       	.word	0x6973;	????	Illegal as 2-op instr
 148:	67 6e       	addc.b	@r14,	r7	
 14a:	65 64       	addc.b	@r4,	r5	
 14c:	20 69       	addc	@r9,	r0	
 14e:	6e 74       	subc.b	@r4,	r14	
 150:	00 5f       	add	r15,	r0	
 152:	5f 50 32 53 	add.b	21298(r0),r15	;PC rel. 0x5486
 156:	45 4c       	mov.b	r12,	r5	
 158:	00 43       	clr	r0		
 15a:	75 72       	subc.b	#8,	r5	;r2 As==11
 15c:	72 5f       	add.b	@r15+,	r2	
 15e:	43 4d       	.word	0x4d43;	????	Illegal as 2-op instr
 160:	44 00       	.word	0x0044;	????	
 162:	2f 68       	addc	@r8,	r15	
 164:	6f 6d       	addc.b	@r13,	r15	
 166:	65 2f       	jc	$-308    	;abs 0x32
 168:	74 68       	addc.b	@r8+,	r4	
 16a:	65 6b       	addc.b	@r11,	r5	
 16c:	65 79       	subc.b	@r9,	r5	
 16e:	6d 61       	addc.b	@r1,	r13	
 170:	6b 65       	addc.b	@r5,	r11	
 172:	72 2f       	jc	$-282    	;abs 0x58
 174:	70 72       	subc.b	#8,	r0	;r2 As==11
 176:	6f 6a       	addc.b	@r10,	r15	
 178:	65 63       	addc.b	#2,	r5	;r3 As==10
 17a:	74 73       	subc.b	#-1,	r4	;r3 As==11
 17c:	2f 74       	subc	@r4,	r15	
 17e:	76 5f       	add.b	@r15+,	r6	
 180:	73 74       	.word	0x7473;	????	Illegal as 2-op instr
 182:	61 6e       	addc.b	@r14,	r1	
 184:	64 2f       	jc	$-310    	;abs 0x4e
 186:	63 6f       	.word	0x6f63;	????	Illegal as 2-op instr
 188:	64 65       	addc.b	@r5,	r4	
 18a:	2f 66       	addc	@r6,	r15	
 18c:	69 72       	subc.b	#4,	r9	;r2 As==10
 18e:	6d 77       	subc.b	@r7,	r13	
 190:	61 72       	subc.b	#4,	r1	;r2 As==10
 192:	65 00       	.word	0x0065;	????	
 194:	53 5f       	.word	0x5f53;	????	Illegal as 2-op instr
 196:	49 6e       	addc.b	r14,	r9	
 198:	64 65       	addc.b	@r5,	r4	
 19a:	78 00       	.word	0x0078;	????	
 19c:	5f 5f 55 43 	add.b	17237(r15),r15	;0x4355(r15)
 1a0:	41 30       	jn	$+132    	;abs 0x224
 1a2:	49 52       	add.b	r2,	r9	
 1a4:	54 43       	mov.b	#1,	r4	;r3 As==01
 1a6:	54 4c 00 55 	mov.b	21760(r12),r4	;0x5500(r12)
 1aa:	53 43       	.word	0x4353;	????	Illegal as 2-op instr
 1ac:	49 5f       	add.b	r15,	r9	
 1ae:	42 30       	jn	$+134    	;abs 0x234
 1b0:	5f 54 58 5f 	add.b	24408(r4),r15	;0x5f58(r4)
 1b4:	49 53       	add.b	#0,	r9	;r3 As==00
 1b6:	52 00       	.word	0x0052;	????	
 1b8:	44 43       	clr.b	r4		
 1ba:	5f 45 4e 55 	mov.b	21838(r5),r15	;0x554e(r5)
 1be:	4d 00       	.word	0x004d;	????	
 1c0:	47 53       	add.b	#0,	r7	;r3 As==00
 1c2:	5f 45 4e 55 	mov.b	21838(r5),r15	;0x554e(r5)
 1c6:	4d 00       	.word	0x004d;	????	
 1c8:	5f 5f 55 43 	add.b	17237(r15),r15	;0x4355(r15)
 1cc:	41 30       	jn	$+132    	;abs 0x250
 1ce:	4d 43       	clr.b	r13		
 1d0:	54 4c 00 5f 	mov.b	24320(r12),r4	;0x5f00(r12)
 1d4:	5f 54 41 30 	add.b	12353(r4),r15	;0x3041(r4)
 1d8:	43 54       	.word	0x5443;	????	Illegal as 2-op instr
 1da:	4c 00       	.word	0x004c;	????	
 1dc:	5f 5f 55 43 	add.b	17237(r15),r15	;0x4355(r15)
 1e0:	41 30       	jn	$+132    	;abs 0x264
 1e2:	42 52       	rla.b	r2		
 1e4:	30 00       	.word	0x0030;	????	
 1e6:	6d 61       	addc.b	@r1,	r13	
 1e8:	69 6e       	addc.b	@r14,	r9	
 1ea:	2e 63       	addc	#2,	r14	;r3 As==10
 1ec:	00 5f       	add	r15,	r0	
 1ee:	5f 42 43 53 	mov.b	&0x5343,r15	
 1f2:	43 54       	.word	0x5443;	????	Illegal as 2-op instr
 1f4:	4c 31       	jn	$+666    	;abs 0x48e
 1f6:	00 5f       	add	r15,	r0	
 1f8:	5f 42 43 53 	mov.b	&0x5343,r15	
 1fc:	43 54       	.word	0x5443;	????	Illegal as 2-op instr
 1fe:	4c 32       	jn	$-870    	;abs 0xfe98
 200:	00 5f       	add	r15,	r0	
 202:	5f 42 43 53 	mov.b	&0x5343,r15	
 206:	43 54       	.word	0x5443;	????	Illegal as 2-op instr
 208:	4c 33       	jn	$-358    	;abs 0xa2
 20a:	00 5f       	add	r15,	r0	
 20c:	5f 55 43 42 	add.b	16963(r5),r15	;0x4243(r5)
 210:	30 54       	add	@r4+,	r0	
 212:	58 42 55 46 	mov.b	&0x4655,r8	
 216:	00 53       	add	#0,	r0	;r3 As==00
 218:	5f 44 61 74 	mov.b	29793(r4),r15	;0x7461(r4)
 21c:	61 00       	.word	0x0061;	????	
 21e:	5f 5f 54 41 	add.b	16724(r15),r15	;0x4154(r15)
 222:	30 43       	br	#-1		;r3 As==11
 224:	43 52       	.word	0x5243;	????	Illegal as 2-op instr
 226:	30 00       	.word	0x0030;	????	
 228:	5f 5f 49 46 	add.b	17993(r15),r15	;0x4649(r15)
 22c:	47 32       	jn	$-880    	;abs 0xfebc
 22e:	00 5f       	add	r15,	r0	
 230:	5f 43       	mov.b	#1,	r15	;r3 As==01
 232:	41 4c       	mov.b	r12,	r1	
 234:	42 43       	clr.b	r2		
 236:	31 5f       	add	@r15+,	r1	
 238:	31 36       	jge	$-924    	;abs 0xfe9c
 23a:	4d 48       	mov.b	r8,	r13	
 23c:	5a 00       	.word	0x005a;	????	
 23e:	54 49 4d 45 	mov.b	17741(r9),r4	;0x454d(r9)
 242:	52 30       	jn	$+166    	;abs 0x2e8
 244:	5f 41 30 5f 	mov.b	24368(r1),r15	;0x5f30(r1)
 248:	49 53       	add.b	#0,	r9	;r3 As==00
 24a:	52 00       	.word	0x0052;	????	
 24c:	5f 5f 55 43 	add.b	17237(r15),r15	;0x4355(r15)
 250:	41 30       	jn	$+132    	;abs 0x2d4
 252:	43 54       	.word	0x5443;	????	Illegal as 2-op instr
 254:	4c 30       	jn	$+154    	;abs 0x2ee
 256:	00 5f       	add	r15,	r0	
 258:	5f 55 43 41 	add.b	16707(r5),r15	;0x4143(r5)
 25c:	30 43       	br	#-1		;r3 As==11
 25e:	54 4c 31 00 	mov.b	49(r12),r4	;0x0031(r12)
 262:	5f 5f 55 43 	add.b	17237(r15),r15	;0x4355(r15)
 266:	41 30       	jn	$+132    	;abs 0x2ea
 268:	52 58 42 55 	add.b	21826(r8),r2	;0x5542(r8)
 26c:	46 00       	.word	0x0046;	????	
 26e:	54 52 55 45 	add.b	&0x4555,r4	
 272:	00 5f       	add	r15,	r0	
 274:	5f 55 43 42 	add.b	16963(r5),r15	;0x4243(r5)
 278:	30 43       	br	#-1		;r3 As==11
 27a:	54 4c 30 00 	mov.b	48(r12),r4	;0x0030(r12)
 27e:	5f 5f 55 43 	add.b	17237(r15),r15	;0x4355(r15)
 282:	42 30       	jn	$+134    	;abs 0x308
 284:	43 54       	.word	0x5443;	????	Illegal as 2-op instr
 286:	4c 31       	jn	$+666    	;abs 0x520
 288:	00 52       	add	r2,	r0	
 28a:	58 5f 42 55 	add.b	21826(r15),r8	;0x5542(r15)
 28e:	46 46       	mov.b	r6,	r6	
	...

Disassembly of section .debug_loc:

00000000 <.debug_loc>:
   0:	3e c0 40 c0 	bic	#-16320,r14	;#0xc040
   4:	02 00       	.word	0x0002;	????	
   6:	71 00       	.word	0x0071;	????	
   8:	40 c0       	bic.b	r0,	r0	
   a:	42 c0       	bic.b	r0,	r2	
   c:	02 00       	.word	0x0002;	????	
   e:	74 00       	.word	0x0074;	????	
  10:	42 c0       	bic.b	r0,	r2	
  12:	7a c1       	bic.b	@r1+,	r10	
  14:	02 00       	.word	0x0002;	????	
  16:	74 7e       	subc.b	@r14+,	r4	
  18:	00 00       	.word	0x0000;	????	
  1a:	00 00       	.word	0x0000;	????	
  1c:	84 c1 86 c1 	bic	r1,	-15994(r4);0xc186(r4)
  20:	02 00       	.word	0x0002;	????	
  22:	71 02       	.word	0x0271;	????	
  24:	86 c1 88 c1 	bic	r1,	-15992(r6);0xc188(r6)
  28:	02 00       	.word	0x0002;	????	
  2a:	71 04       	.word	0x0471;	????	
  2c:	88 c1 8a c1 	bic	r1,	-15990(r8);0xc18a(r8)
  30:	02 00       	.word	0x0002;	????	
  32:	74 04       	.word	0x0474;	????	
  34:	8a c1 84 c2 	bic	r1,	-15740(r10);0xc284(r10)
  38:	02 00       	.word	0x0002;	????	
  3a:	74 02       	.word	0x0274;	????	
  3c:	00 00       	.word	0x0000;	????	
  3e:	00 00       	.word	0x0000;	????	
  40:	84 c2 86 c2 	bic	r2,	-15738(r4);0xc286(r4)
  44:	02 00       	.word	0x0002;	????	
  46:	71 02       	.word	0x0271;	????	
  48:	86 c2 88 c2 	bic	r2,	-15736(r6);0xc288(r6)
  4c:	02 00       	.word	0x0002;	????	
  4e:	71 04       	.word	0x0471;	????	
  50:	88 c2 8a c2 	bic	r2,	-15734(r8);0xc28a(r8)
  54:	02 00       	.word	0x0002;	????	
  56:	74 04       	.word	0x0474;	????	
  58:	8a c2 ba c2 	bic	r2,	-15686(r10);0xc2ba(r10)
  5c:	02 00       	.word	0x0002;	????	
  5e:	74 02       	.word	0x0274;	????	
  60:	00 00       	.word	0x0000;	????	
  62:	00 00       	.word	0x0000;	????	
  64:	ba c2 bc c2 	bic	#8,	-15684(r10);r2 As==11, 0xc2bc(r10)
  68:	02 00       	.word	0x0002;	????	
  6a:	71 00       	.word	0x0071;	????	
  6c:	bc c2 be c2 	bic	#8,	-15682(r12);r2 As==11, 0xc2be(r12)
  70:	02 00       	.word	0x0002;	????	
  72:	71 02       	.word	0x0271;	????	
  74:	be c2 c0 c2 	bic	#8,	-15680(r14);r2 As==11, 0xc2c0(r14)
  78:	02 00       	.word	0x0002;	????	
  7a:	71 04       	.word	0x0471;	????	
  7c:	c0 c2 c2 c2 	bic.b	r2,	-15678(r0);PC rel. 0xc340
  80:	02 00       	.word	0x0002;	????	
  82:	71 06       	.word	0x0671;	????	
  84:	c2 c2 c4 c2 	bic.b	r2,	&0xc2c4	
  88:	02 00       	.word	0x0002;	????	
  8a:	71 08       	.word	0x0871;	????	
  8c:	c4 c2 c6 c2 	bic.b	r2,	-15674(r4);0xc2c6(r4)
  90:	02 00       	.word	0x0002;	????	
  92:	71 0a       	.word	0x0a71;	????	
  94:	c6 c2 ca c2 	bic.b	r2,	-15670(r6);0xc2ca(r6)
  98:	02 00       	.word	0x0002;	????	
  9a:	74 0a       	.word	0x0a74;	????	
  9c:	ca c2 18 c3 	bic.b	r2,	-15592(r10);0xc318(r10)
  a0:	02 00       	.word	0x0002;	????	
  a2:	74 00       	.word	0x0074;	????	
  a4:	00 00       	.word	0x0000;	????	
  a6:	00 00       	.word	0x0000;	????	
  a8:	18 c3       	bic	#1,	r8	;r3 As==01
  aa:	1a c3       	bic	#1,	r10	;r3 As==01
  ac:	02 00       	.word	0x0002;	????	
  ae:	71 00       	.word	0x0071;	????	
  b0:	1a c3       	bic	#1,	r10	;r3 As==01
  b2:	1c c3       	bic	#1,	r12	;r3 As==01
  b4:	02 00       	.word	0x0002;	????	
  b6:	71 02       	.word	0x0271;	????	
  b8:	1c c3       	bic	#1,	r12	;r3 As==01
  ba:	1e c3       	bic	#1,	r14	;r3 As==01
  bc:	02 00       	.word	0x0002;	????	
  be:	71 04       	.word	0x0471;	????	
  c0:	1e c3       	bic	#1,	r14	;r3 As==01
  c2:	20 c3       	bic	#2,	r0	;r3 As==10
  c4:	02 00       	.word	0x0002;	????	
  c6:	71 06       	.word	0x0671;	????	
  c8:	20 c3       	bic	#2,	r0	;r3 As==10
  ca:	22 c3       	clrz			
  cc:	02 00       	.word	0x0002;	????	
  ce:	71 08       	.word	0x0871;	????	
  d0:	22 c3       	clrz			
  d2:	24 c3       	bic	#2,	r4	;r3 As==10
  d4:	02 00       	.word	0x0002;	????	
  d6:	71 0a       	.word	0x0a71;	????	
  d8:	24 c3       	bic	#2,	r4	;r3 As==10
  da:	28 c3       	bic	#2,	r8	;r3 As==10
  dc:	02 00       	.word	0x0002;	????	
  de:	74 0a       	.word	0x0a74;	????	
  e0:	28 c3       	bic	#2,	r8	;r3 As==10
  e2:	7c c3       	bic.b	#-1,	r12	;r3 As==11
  e4:	02 00       	.word	0x0002;	????	
  e6:	74 00       	.word	0x0074;	????	
  e8:	00 00       	.word	0x0000;	????	
  ea:	00 00       	.word	0x0000;	????	
  ec:	7c c3       	bic.b	#-1,	r12	;r3 As==11
  ee:	7e c3       	bic.b	#-1,	r14	;r3 As==11
  f0:	02 00       	.word	0x0002;	????	
  f2:	71 02       	.word	0x0271;	????	
  f4:	7e c3       	bic.b	#-1,	r14	;r3 As==11
  f6:	80 c3 02 00 	bic	#0,	2(r0)	;r3 As==00, PC rel. 0x00fa
  fa:	71 04       	.word	0x0471;	????	
  fc:	80 c3 82 c3 	bic	#0,	-15486(r0);r3 As==00, PC rel. 0xc480
 100:	02 00       	.word	0x0002;	????	
 102:	74 04       	.word	0x0474;	????	
 104:	82 c3 a2 c3 	bic	#0,	&0xc3a2	;r3 As==00
 108:	02 00       	.word	0x0002;	????	
 10a:	74 02       	.word	0x0274;	????	
 10c:	00 00       	.word	0x0000;	????	
 10e:	00 00       	.word	0x0000;	????	
 110:	a2 c3 a4 c3 	bic	#2,	&0xc3a4	;r3 As==10
 114:	02 00       	.word	0x0002;	????	
 116:	71 02       	.word	0x0271;	????	
 118:	a4 c3 a6 c3 	bic	#2,	-15450(r4);r3 As==10, 0xc3a6(r4)
 11c:	02 00       	.word	0x0002;	????	
 11e:	71 04       	.word	0x0471;	????	
 120:	a6 c3 a8 c3 	bic	#2,	-15448(r6);r3 As==10, 0xc3a8(r6)
 124:	02 00       	.word	0x0002;	????	
 126:	74 04       	.word	0x0474;	????	
 128:	a8 c3 c8 c3 	bic	#2,	-15416(r8);r3 As==10, 0xc3c8(r8)
 12c:	02 00       	.word	0x0002;	????	
 12e:	74 02       	.word	0x0274;	????	
 130:	00 00       	.word	0x0000;	????	
	...

Disassembly of section .debug_macinfo:

00000000 <.debug_macinfo>:
       0:	01 00       	.word	0x0001;	????	
       2:	5f 5f 53 54 	add.b	21587(r15),r15	;0x5453(r15)
       6:	44 43       	clr.b	r4		
       8:	5f 5f 20 31 	add.b	12576(r15),r15	;0x3120(r15)
       c:	00 01       	.word	0x0100;	????	
       e:	00 5f       	add	r15,	r0	
      10:	5f 53       	inc.b	r15		
      12:	54 44 43 5f 	mov.b	24387(r4),r4	;0x5f43(r4)
      16:	48 4f       	mov.b	r15,	r8	
      18:	53 54       	.word	0x5453;	????	Illegal as 2-op instr
      1a:	45 44       	mov.b	r4,	r5	
      1c:	5f 5f 20 31 	add.b	12576(r15),r15	;0x3120(r15)
      20:	00 01       	.word	0x0100;	????	
      22:	00 5f       	add	r15,	r0	
      24:	5f 47 4e 55 	mov.b	21838(r7),r15	;0x554e(r7)
      28:	43 5f       	.word	0x5f43;	????	Illegal as 2-op instr
      2a:	5f 20       	jnz	$+192    	;abs 0xea
      2c:	34 00       	.word	0x0034;	????	
      2e:	01 00       	.word	0x0001;	????	
      30:	5f 5f 47 4e 	add.b	20039(r15),r15	;0x4e47(r15)
      34:	55 43       	mov.b	#1,	r5	;r3 As==01
      36:	5f 4d 49 4e 	mov.b	20041(r13),r15	;0x4e49(r13)
      3a:	4f 52       	add.b	r2,	r15	
      3c:	5f 5f 20 36 	add.b	13856(r15),r15	;0x3620(r15)
      40:	00 01       	.word	0x0100;	????	
      42:	00 5f       	add	r15,	r0	
      44:	5f 47 4e 55 	mov.b	21838(r7),r15	;0x554e(r7)
      48:	43 5f       	.word	0x5f43;	????	Illegal as 2-op instr
      4a:	50 41 54 43 	br	17236(r1)	;0x4354(r1)
      4e:	48 4c       	mov.b	r12,	r8	
      50:	45 56       	add.b	r6,	r5	
      52:	45 4c       	mov.b	r12,	r5	
      54:	5f 5f 20 33 	add.b	13088(r15),r15	;0x3320(r15)
      58:	00 01       	.word	0x0100;	????	
      5a:	00 5f       	add	r15,	r0	
      5c:	5f 56 45 52 	add.b	21061(r6),r15	;0x5245(r6)
      60:	53 49       	.word	0x4953;	????	Illegal as 2-op instr
      62:	4f 4e       	mov.b	r14,	r15	
      64:	5f 5f 20 22 	add.b	8736(r15),r15	;0x2220(r15)
      68:	34 2e       	jc	$-918    	;abs 0xfcd2
      6a:	36 2e       	jc	$-914    	;abs 0xfcd8
      6c:	33 20       	jnz	$+104    	;abs 0xd4
      6e:	32 30       	jn	$+102    	;abs 0xd4
      70:	31 32       	jn	$-924    	;abs 0xfcd4
      72:	30 33       	jn	$-414    	;abs 0xfed4
      74:	30 31       	jn	$+610    	;abs 0x2d6
      76:	20 28       	jnc	$+66     	;abs 0xb8
      78:	6d 73       	subc.b	#2,	r13	;r3 As==10
      7a:	70 67       	addc.b	@r7+,	r0	
      7c:	63 63       	.word	0x6363;	????	Illegal as 2-op instr
      7e:	20 4c       	br	@r12		
      80:	54 53       	inc.b	r4		
      82:	20 32       	jn	$-958    	;abs 0xfcc4
      84:	30 31       	jn	$+610    	;abs 0x2e6
      86:	32 30       	jn	$+102    	;abs 0xec
      88:	34 30       	jn	$+106    	;abs 0xf2
      8a:	36 20       	jnz	$+110    	;abs 0xf8
      8c:	75 6e       	addc.b	@r14+,	r5	
      8e:	70 61       	addc.b	@r1+,	r0	
      90:	74 63       	addc.b	#-1,	r4	;r3 As==11
      92:	68 65       	addc.b	@r5,	r8	
      94:	64 29       	jnc	$+714    	;abs 0x35e
      96:	22 00       	.word	0x0022;	????	
      98:	01 00       	.word	0x0001;	????	
      9a:	5f 5f 46 49 	add.b	18758(r15),r15	;0x4946(r15)
      9e:	4e 49       	mov.b	r9,	r14	
      a0:	54 45 5f 4d 	mov.b	19807(r5),r4	;0x4d5f(r5)
      a4:	41 54       	add.b	r4,	r1	
      a6:	48 5f       	add.b	r15,	r8	
      a8:	4f 4e       	mov.b	r14,	r15	
      aa:	4c 59       	add.b	r9,	r12	
      ac:	5f 5f 20 30 	add.b	12320(r15),r15	;0x3020(r15)
      b0:	00 01       	.word	0x0100;	????	
      b2:	00 5f       	add	r15,	r0	
      b4:	5f 53       	inc.b	r15		
      b6:	49 5a       	add.b	r10,	r9	
      b8:	45 4f       	mov.b	r15,	r5	
      ba:	46 5f       	add.b	r15,	r6	
      bc:	49 4e       	mov.b	r14,	r9	
      be:	54 5f 5f 20 	add.b	8287(r15),r4	;0x205f(r15)
      c2:	32 00       	.word	0x0032;	????	
      c4:	01 00       	.word	0x0001;	????	
      c6:	5f 5f 53 49 	add.b	18771(r15),r15	;0x4953(r15)
      ca:	5a 45 4f 46 	mov.b	17999(r5),r10	;0x464f(r5)
      ce:	5f 4c 4f 4e 	mov.b	20047(r12),r15	;0x4e4f(r12)
      d2:	47 5f       	add.b	r15,	r7	
      d4:	5f 20       	jnz	$+192    	;abs 0x194
      d6:	34 00       	.word	0x0034;	????	
      d8:	01 00       	.word	0x0001;	????	
      da:	5f 5f 53 49 	add.b	18771(r15),r15	;0x4953(r15)
      de:	5a 45 4f 46 	mov.b	17999(r5),r10	;0x464f(r5)
      e2:	5f 4c 4f 4e 	mov.b	20047(r12),r15	;0x4e4f(r12)
      e6:	47 5f       	add.b	r15,	r7	
      e8:	4c 4f       	mov.b	r15,	r12	
      ea:	4e 47       	mov.b	r7,	r14	
      ec:	5f 5f 20 38 	add.b	14368(r15),r15	;0x3820(r15)
      f0:	00 01       	.word	0x0100;	????	
      f2:	00 5f       	add	r15,	r0	
      f4:	5f 53       	inc.b	r15		
      f6:	49 5a       	add.b	r10,	r9	
      f8:	45 4f       	mov.b	r15,	r5	
      fa:	46 5f       	add.b	r15,	r6	
      fc:	53 48       	.word	0x4853;	????	Illegal as 2-op instr
      fe:	4f 52       	add.b	r2,	r15	
     100:	54 5f 5f 20 	add.b	8287(r15),r4	;0x205f(r15)
     104:	32 00       	.word	0x0032;	????	
     106:	01 00       	.word	0x0001;	????	
     108:	5f 5f 53 49 	add.b	18771(r15),r15	;0x4953(r15)
     10c:	5a 45 4f 46 	mov.b	17999(r5),r10	;0x464f(r5)
     110:	5f 46 4c 4f 	mov.b	20300(r6),r15	;0x4f4c(r6)
     114:	41 54       	add.b	r4,	r1	
     116:	5f 5f 20 34 	add.b	13344(r15),r15	;0x3420(r15)
     11a:	00 01       	.word	0x0100;	????	
     11c:	00 5f       	add	r15,	r0	
     11e:	5f 53       	inc.b	r15		
     120:	49 5a       	add.b	r10,	r9	
     122:	45 4f       	mov.b	r15,	r5	
     124:	46 5f       	add.b	r15,	r6	
     126:	44 4f       	mov.b	r15,	r4	
     128:	55 42 4c 45 	mov.b	&0x454c,r5	
     12c:	5f 5f 20 34 	add.b	13344(r15),r15	;0x3420(r15)
     130:	00 01       	.word	0x0100;	????	
     132:	00 5f       	add	r15,	r0	
     134:	5f 53       	inc.b	r15		
     136:	49 5a       	add.b	r10,	r9	
     138:	45 4f       	mov.b	r15,	r5	
     13a:	46 5f       	add.b	r15,	r6	
     13c:	4c 4f       	mov.b	r15,	r12	
     13e:	4e 47       	mov.b	r7,	r14	
     140:	5f 44 4f 55 	mov.b	21839(r4),r15	;0x554f(r4)
     144:	42 4c       	mov.b	r12,	r2	
     146:	45 5f       	add.b	r15,	r5	
     148:	5f 20       	jnz	$+192    	;abs 0x208
     14a:	34 00       	.word	0x0034;	????	
     14c:	01 00       	.word	0x0001;	????	
     14e:	5f 5f 53 49 	add.b	18771(r15),r15	;0x4953(r15)
     152:	5a 45 4f 46 	mov.b	17999(r5),r10	;0x464f(r5)
     156:	5f 53       	inc.b	r15		
     158:	49 5a       	add.b	r10,	r9	
     15a:	45 5f       	add.b	r15,	r5	
     15c:	54 5f 5f 20 	add.b	8287(r15),r4	;0x205f(r15)
     160:	32 00       	.word	0x0032;	????	
     162:	01 00       	.word	0x0001;	????	
     164:	5f 5f 43 48 	add.b	18499(r15),r15	;0x4843(r15)
     168:	41 52       	add.b	r2,	r1	
     16a:	5f 42 49 54 	mov.b	&0x5449,r15	
     16e:	5f 5f 20 38 	add.b	14368(r15),r15	;0x3820(r15)
     172:	00 01       	.word	0x0100;	????	
     174:	00 5f       	add	r15,	r0	
     176:	5f 42 49 47 	mov.b	&0x4749,r15	
     17a:	47 45       	mov.b	r5,	r7	
     17c:	53 54       	.word	0x5453;	????	Illegal as 2-op instr
     17e:	5f 41 4c 49 	mov.b	18764(r1),r15	;0x494c(r1)
     182:	47 4e       	mov.b	r14,	r7	
     184:	4d 45       	mov.b	r5,	r13	
     186:	4e 54       	add.b	r4,	r14	
     188:	5f 5f 20 32 	add.b	12832(r15),r15	;0x3220(r15)
     18c:	00 01       	.word	0x0100;	????	
     18e:	00 5f       	add	r15,	r0	
     190:	5f 4f 52 44 	mov.b	17490(r15),r15	;0x4452(r15)
     194:	45 52       	add.b	r2,	r5	
     196:	5f 4c 49 54 	mov.b	21577(r12),r15	;0x5449(r12)
     19a:	54 4c 45 5f 	mov.b	24389(r12),r4	;0x5f45(r12)
     19e:	45 4e       	mov.b	r14,	r5	
     1a0:	44 49       	mov.b	r9,	r4	
     1a2:	41 4e       	mov.b	r14,	r1	
     1a4:	5f 5f 20 31 	add.b	12576(r15),r15	;0x3120(r15)
     1a8:	32 33       	jn	$-410    	;abs 0xe
     1aa:	34 00       	.word	0x0034;	????	
     1ac:	01 00       	.word	0x0001;	????	
     1ae:	5f 5f 4f 52 	add.b	21071(r15),r15	;0x524f(r15)
     1b2:	44 45       	mov.b	r5,	r4	
     1b4:	52 5f 42 49 	add.b	18754(r15),r2	;0x4942(r15)
     1b8:	47 5f       	add.b	r15,	r7	
     1ba:	45 4e       	mov.b	r14,	r5	
     1bc:	44 49       	mov.b	r9,	r4	
     1be:	41 4e       	mov.b	r14,	r1	
     1c0:	5f 5f 20 34 	add.b	13344(r15),r15	;0x3420(r15)
     1c4:	33 32       	jn	$-920    	;abs 0xfe2c
     1c6:	31 00       	.word	0x0031;	????	
     1c8:	01 00       	.word	0x0001;	????	
     1ca:	5f 5f 4f 52 	add.b	21071(r15),r15	;0x524f(r15)
     1ce:	44 45       	mov.b	r5,	r4	
     1d0:	52 5f 50 44 	add.b	17488(r15),r2	;0x4450(r15)
     1d4:	50 5f 45 4e 	add.b	20037(r15),r0	;0x4e45(r15)
     1d8:	44 49       	mov.b	r9,	r4	
     1da:	41 4e       	mov.b	r14,	r1	
     1dc:	5f 5f 20 33 	add.b	13088(r15),r15	;0x3320(r15)
     1e0:	34 31       	jn	$+618    	;abs 0x44a
     1e2:	32 00       	.word	0x0032;	????	
     1e4:	01 00       	.word	0x0001;	????	
     1e6:	5f 5f 42 59 	add.b	22850(r15),r15	;0x5942(r15)
     1ea:	54 45 5f 4f 	mov.b	20319(r5),r4	;0x4f5f(r5)
     1ee:	52 44 45 52 	mov.b	21061(r4),r2	;0x5245(r4)
     1f2:	5f 5f 20 5f 	add.b	24352(r15),r15	;0x5f20(r15)
     1f6:	5f 4f 52 44 	mov.b	17490(r15),r15	;0x4452(r15)
     1fa:	45 52       	add.b	r2,	r5	
     1fc:	5f 4c 49 54 	mov.b	21577(r12),r15	;0x5449(r12)
     200:	54 4c 45 5f 	mov.b	24389(r12),r4	;0x5f45(r12)
     204:	45 4e       	mov.b	r14,	r5	
     206:	44 49       	mov.b	r9,	r4	
     208:	41 4e       	mov.b	r14,	r1	
     20a:	5f 5f 00 01 	add.b	256(r15),r15	;0x0100(r15)
     20e:	00 5f       	add	r15,	r0	
     210:	5f 46 4c 4f 	mov.b	20300(r6),r15	;0x4f4c(r6)
     214:	41 54       	add.b	r4,	r1	
     216:	5f 57 4f 52 	add.b	21071(r7),r15	;0x524f(r7)
     21a:	44 5f       	add.b	r15,	r4	
     21c:	4f 52       	add.b	r2,	r15	
     21e:	44 45       	mov.b	r5,	r4	
     220:	52 5f 5f 20 	add.b	8287(r15),r2	;0x205f(r15)
     224:	5f 5f 4f 52 	add.b	21071(r15),r15	;0x524f(r15)
     228:	44 45       	mov.b	r5,	r4	
     22a:	52 5f 4c 49 	add.b	18764(r15),r2	;0x494c(r15)
     22e:	54 54 4c 45 	add.b	17740(r4),r4	;0x454c(r4)
     232:	5f 45 4e 44 	mov.b	17486(r5),r15	;0x444e(r5)
     236:	49 41       	mov.b	r1,	r9	
     238:	4e 5f       	add.b	r15,	r14	
     23a:	5f 00       	.word	0x005f;	????	
     23c:	01 00       	.word	0x0001;	????	
     23e:	5f 5f 53 49 	add.b	18771(r15),r15	;0x4953(r15)
     242:	5a 45 4f 46 	mov.b	17999(r5),r10	;0x464f(r5)
     246:	5f 50 4f 49 	add.b	18767(r0),r15	;PC rel. 0x4b97
     24a:	4e 54       	add.b	r4,	r14	
     24c:	45 52       	add.b	r2,	r5	
     24e:	5f 5f 20 32 	add.b	12832(r15),r15	;0x3220(r15)
     252:	00 01       	.word	0x0100;	????	
     254:	00 5f       	add	r15,	r0	
     256:	5f 53       	inc.b	r15		
     258:	49 5a       	add.b	r10,	r9	
     25a:	45 5f       	add.b	r15,	r5	
     25c:	54 59 50 45 	add.b	17744(r9),r4	;0x4550(r9)
     260:	5f 5f 20 75 	add.b	29984(r15),r15	;0x7520(r15)
     264:	6e 73       	subc.b	#2,	r14	;r3 As==10
     266:	69 67       	addc.b	@r7,	r9	
     268:	6e 65       	addc.b	@r5,	r14	
     26a:	64 20       	jnz	$+202    	;abs 0x334
     26c:	69 6e       	addc.b	@r14,	r9	
     26e:	74 00       	.word	0x0074;	????	
     270:	01 00       	.word	0x0001;	????	
     272:	5f 5f 50 54 	add.b	21584(r15),r15	;0x5450(r15)
     276:	52 44 49 46 	mov.b	17993(r4),r2	;0x4649(r4)
     27a:	46 5f       	add.b	r15,	r6	
     27c:	54 59 50 45 	add.b	17744(r9),r4	;0x4550(r9)
     280:	5f 5f 20 6c 	add.b	27680(r15),r15	;0x6c20(r15)
     284:	6f 6e       	addc.b	@r14,	r15	
     286:	67 20       	jnz	$+208    	;abs 0x356
     288:	69 6e       	addc.b	@r14,	r9	
     28a:	74 00       	.word	0x0074;	????	
     28c:	01 00       	.word	0x0001;	????	
     28e:	5f 5f 57 43 	add.b	17239(r15),r15	;0x4357(r15)
     292:	48 41       	mov.b	r1,	r8	
     294:	52 5f 54 59 	add.b	22868(r15),r2	;0x5954(r15)
     298:	50 45 5f 5f 	br	24415(r5)	;0x5f5f(r5)
     29c:	20 69       	addc	@r9,	r0	
     29e:	6e 74       	subc.b	@r4,	r14	
     2a0:	00 01       	.word	0x0100;	????	
     2a2:	00 5f       	add	r15,	r0	
     2a4:	5f 57 49 4e 	add.b	20041(r7),r15	;0x4e49(r7)
     2a8:	54 5f 54 59 	add.b	22868(r15),r4	;0x5954(r15)
     2ac:	50 45 5f 5f 	br	24415(r5)	;0x5f5f(r5)
     2b0:	20 75       	subc	@r5,	r0	
     2b2:	6e 73       	subc.b	#2,	r14	;r3 As==10
     2b4:	69 67       	addc.b	@r7,	r9	
     2b6:	6e 65       	addc.b	@r5,	r14	
     2b8:	64 20       	jnz	$+202    	;abs 0x382
     2ba:	69 6e       	addc.b	@r14,	r9	
     2bc:	74 00       	.word	0x0074;	????	
     2be:	01 00       	.word	0x0001;	????	
     2c0:	5f 5f 49 4e 	add.b	20041(r15),r15	;0x4e49(r15)
     2c4:	54 4d 41 58 	mov.b	22593(r13),r4	;0x5841(r13)
     2c8:	5f 54 59 50 	add.b	20569(r4),r15	;0x5059(r4)
     2cc:	45 5f       	add.b	r15,	r5	
     2ce:	5f 20       	jnz	$+192    	;abs 0x38e
     2d0:	6c 6f       	addc.b	@r15,	r12	
     2d2:	6e 67       	addc.b	@r7,	r14	
     2d4:	20 6c       	addc	@r12,	r0	
     2d6:	6f 6e       	addc.b	@r14,	r15	
     2d8:	67 20       	jnz	$+208    	;abs 0x3a8
     2da:	69 6e       	addc.b	@r14,	r9	
     2dc:	74 00       	.word	0x0074;	????	
     2de:	01 00       	.word	0x0001;	????	
     2e0:	5f 5f 55 49 	add.b	18773(r15),r15	;0x4955(r15)
     2e4:	4e 54       	add.b	r4,	r14	
     2e6:	4d 41       	mov.b	r1,	r13	
     2e8:	58 5f 54 59 	add.b	22868(r15),r8	;0x5954(r15)
     2ec:	50 45 5f 5f 	br	24415(r5)	;0x5f5f(r5)
     2f0:	20 6c       	addc	@r12,	r0	
     2f2:	6f 6e       	addc.b	@r14,	r15	
     2f4:	67 20       	jnz	$+208    	;abs 0x3c4
     2f6:	6c 6f       	addc.b	@r15,	r12	
     2f8:	6e 67       	addc.b	@r7,	r14	
     2fa:	20 75       	subc	@r5,	r0	
     2fc:	6e 73       	subc.b	#2,	r14	;r3 As==10
     2fe:	69 67       	addc.b	@r7,	r9	
     300:	6e 65       	addc.b	@r5,	r14	
     302:	64 20       	jnz	$+202    	;abs 0x3cc
     304:	69 6e       	addc.b	@r14,	r9	
     306:	74 00       	.word	0x0074;	????	
     308:	01 00       	.word	0x0001;	????	
     30a:	5f 5f 43 48 	add.b	18499(r15),r15	;0x4843(r15)
     30e:	41 52       	add.b	r2,	r1	
     310:	31 36       	jge	$-924    	;abs 0xff74
     312:	5f 54 59 50 	add.b	20569(r4),r15	;0x5059(r4)
     316:	45 5f       	add.b	r15,	r5	
     318:	5f 20       	jnz	$+192    	;abs 0x3d8
     31a:	73 68       	.word	0x6873;	????	Illegal as 2-op instr
     31c:	6f 72       	subc.b	#4,	r15	;r2 As==10
     31e:	74 20       	jnz	$+234    	;abs 0x408
     320:	75 6e       	addc.b	@r14+,	r5	
     322:	73 69       	.word	0x6973;	????	Illegal as 2-op instr
     324:	67 6e       	addc.b	@r14,	r7	
     326:	65 64       	addc.b	@r4,	r5	
     328:	20 69       	addc	@r9,	r0	
     32a:	6e 74       	subc.b	@r4,	r14	
     32c:	00 01       	.word	0x0100;	????	
     32e:	00 5f       	add	r15,	r0	
     330:	5f 43       	mov.b	#1,	r15	;r3 As==01
     332:	48 41       	mov.b	r1,	r8	
     334:	52 33       	jn	$-346    	;abs 0x1da
     336:	32 5f       	add	@r15+,	r2	
     338:	54 59 50 45 	add.b	17744(r9),r4	;0x4550(r9)
     33c:	5f 5f 20 75 	add.b	29984(r15),r15	;0x7520(r15)
     340:	6e 73       	subc.b	#2,	r14	;r3 As==10
     342:	69 67       	addc.b	@r7,	r9	
     344:	6e 65       	addc.b	@r5,	r14	
     346:	64 20       	jnz	$+202    	;abs 0x410
     348:	69 6e       	addc.b	@r14,	r9	
     34a:	74 00       	.word	0x0074;	????	
     34c:	01 00       	.word	0x0001;	????	
     34e:	5f 5f 47 58 	add.b	22599(r15),r15	;0x5847(r15)
     352:	58 5f 41 42 	add.b	16961(r15),r8	;0x4241(r15)
     356:	49 5f       	add.b	r15,	r9	
     358:	56 45 52 53 	mov.b	21330(r5),r6	;0x5352(r5)
     35c:	49 4f       	mov.b	r15,	r9	
     35e:	4e 20       	jnz	$+158    	;abs 0x3fc
     360:	31 30       	jn	$+100    	;abs 0x3c4
     362:	30 32       	jn	$-926    	;abs 0xffc4
     364:	00 01       	.word	0x0100;	????	
     366:	00 5f       	add	r15,	r0	
     368:	5f 55 53 49 	add.b	18771(r5),r15	;0x4953(r5)
     36c:	4e 47       	mov.b	r7,	r14	
     36e:	5f 53       	inc.b	r15		
     370:	4a 4c       	mov.b	r12,	r10	
     372:	4a 5f       	add.b	r15,	r10	
     374:	45 58       	add.b	r8,	r5	
     376:	43 45       	.word	0x4543;	????	Illegal as 2-op instr
     378:	50 54 49 4f 	add.b	20297(r4),r0	;0x4f49(r4)
     37c:	4e 53       	add.b	#0,	r14	;r3 As==00
     37e:	5f 5f 20 31 	add.b	12576(r15),r15	;0x3120(r15)
     382:	00 01       	.word	0x0100;	????	
     384:	00 5f       	add	r15,	r0	
     386:	5f 53       	inc.b	r15		
     388:	43 48       	.word	0x4843;	????	Illegal as 2-op instr
     38a:	41 52       	add.b	r2,	r1	
     38c:	5f 4d 41 58 	mov.b	22593(r13),r15	;0x5841(r13)
     390:	5f 5f 20 31 	add.b	12576(r15),r15	;0x3120(r15)
     394:	32 37       	jge	$-410    	;abs 0x1fa
     396:	00 01       	.word	0x0100;	????	
     398:	00 5f       	add	r15,	r0	
     39a:	5f 53       	inc.b	r15		
     39c:	48 52       	add.b	r2,	r8	
     39e:	54 5f 4d 41 	add.b	16717(r15),r4	;0x414d(r15)
     3a2:	58 5f 5f 20 	add.b	8287(r15),r8	;0x205f(r15)
     3a6:	33 32       	jn	$-920    	;abs 0xe
     3a8:	37 36       	jge	$-912    	;abs 0x18
     3aa:	37 00       	.word	0x0037;	????	
     3ac:	01 00       	.word	0x0001;	????	
     3ae:	5f 5f 49 4e 	add.b	20041(r15),r15	;0x4e49(r15)
     3b2:	54 5f 4d 41 	add.b	16717(r15),r4	;0x414d(r15)
     3b6:	58 5f 5f 20 	add.b	8287(r15),r8	;0x205f(r15)
     3ba:	33 32       	jn	$-920    	;abs 0x22
     3bc:	37 36       	jge	$-912    	;abs 0x2c
     3be:	37 00       	.word	0x0037;	????	
     3c0:	01 00       	.word	0x0001;	????	
     3c2:	5f 5f 4c 4f 	add.b	20300(r15),r15	;0x4f4c(r15)
     3c6:	4e 47       	mov.b	r7,	r14	
     3c8:	5f 4d 41 58 	mov.b	22593(r13),r15	;0x5841(r13)
     3cc:	5f 5f 20 32 	add.b	12832(r15),r15	;0x3220(r15)
     3d0:	31 34       	jge	$+100    	;abs 0x434
     3d2:	37 34       	jge	$+112    	;abs 0x442
     3d4:	38 33       	jn	$-398    	;abs 0x246
     3d6:	36 34       	jge	$+110    	;abs 0x444
     3d8:	37 4c       	mov	@r12+,	r7	
     3da:	00 01       	.word	0x0100;	????	
     3dc:	00 5f       	add	r15,	r0	
     3de:	5f 4c 4f 4e 	mov.b	20047(r12),r15	;0x4e4f(r12)
     3e2:	47 5f       	add.b	r15,	r7	
     3e4:	4c 4f       	mov.b	r15,	r12	
     3e6:	4e 47       	mov.b	r7,	r14	
     3e8:	5f 4d 41 58 	mov.b	22593(r13),r15	;0x5841(r13)
     3ec:	5f 5f 20 39 	add.b	14624(r15),r15	;0x3920(r15)
     3f0:	32 32       	jn	$-922    	;abs 0x56
     3f2:	33 33       	jn	$-408    	;abs 0x25a
     3f4:	37 32       	jn	$-912    	;abs 0x64
     3f6:	30 33       	jn	$-414    	;abs 0x258
     3f8:	36 38       	jl	$+110    	;abs 0x466
     3fa:	35 34       	jge	$+108    	;abs 0x466
     3fc:	37 37       	jge	$-400    	;abs 0x26c
     3fe:	35 38       	jl	$+108    	;abs 0x46a
     400:	30 37       	jge	$-414    	;abs 0x262
     402:	4c 4c       	mov.b	r12,	r12	
     404:	00 01       	.word	0x0100;	????	
     406:	00 5f       	add	r15,	r0	
     408:	5f 57 43 48 	add.b	18499(r7),r15	;0x4843(r7)
     40c:	41 52       	add.b	r2,	r1	
     40e:	5f 4d 41 58 	mov.b	22593(r13),r15	;0x5841(r13)
     412:	5f 5f 20 33 	add.b	13088(r15),r15	;0x3320(r15)
     416:	32 37       	jge	$-410    	;abs 0x27c
     418:	36 37       	jge	$-402    	;abs 0x286
     41a:	00 01       	.word	0x0100;	????	
     41c:	00 5f       	add	r15,	r0	
     41e:	5f 57 43 48 	add.b	18499(r7),r15	;0x4843(r7)
     422:	41 52       	add.b	r2,	r1	
     424:	5f 4d 49 4e 	mov.b	20041(r13),r15	;0x4e49(r13)
     428:	5f 5f 20 28 	add.b	10272(r15),r15	;0x2820(r15)
     42c:	2d 5f       	add	@r15,	r13	
     42e:	5f 57 43 48 	add.b	18499(r7),r15	;0x4843(r7)
     432:	41 52       	add.b	r2,	r1	
     434:	5f 4d 41 58 	mov.b	22593(r13),r15	;0x5841(r13)
     438:	5f 5f 20 2d 	add.b	11552(r15),r15	;0x2d20(r15)
     43c:	20 31       	jn	$+578    	;abs 0x67e
     43e:	29 00       	.word	0x0029;	????	
     440:	01 00       	.word	0x0001;	????	
     442:	5f 5f 57 49 	add.b	18775(r15),r15	;0x4957(r15)
     446:	4e 54       	add.b	r4,	r14	
     448:	5f 4d 41 58 	mov.b	22593(r13),r15	;0x5841(r13)
     44c:	5f 5f 20 36 	add.b	13856(r15),r15	;0x3620(r15)
     450:	35 35       	jge	$+620    	;abs 0x6bc
     452:	33 35       	jge	$+616    	;abs 0x6ba
     454:	55 00       	.word	0x0055;	????	
     456:	01 00       	.word	0x0001;	????	
     458:	5f 5f 57 49 	add.b	18775(r15),r15	;0x4957(r15)
     45c:	4e 54       	add.b	r4,	r14	
     45e:	5f 4d 49 4e 	mov.b	20041(r13),r15	;0x4e49(r13)
     462:	5f 5f 20 30 	add.b	12320(r15),r15	;0x3020(r15)
     466:	55 00       	.word	0x0055;	????	
     468:	01 00       	.word	0x0001;	????	
     46a:	5f 5f 50 54 	add.b	21584(r15),r15	;0x5450(r15)
     46e:	52 44 49 46 	mov.b	17993(r4),r2	;0x4649(r4)
     472:	46 5f       	add.b	r15,	r6	
     474:	4d 41       	mov.b	r1,	r13	
     476:	58 5f 5f 20 	add.b	8287(r15),r8	;0x205f(r15)
     47a:	32 31       	jn	$+614    	;abs 0x6e0
     47c:	34 37       	jge	$-406    	;abs 0x2e6
     47e:	34 38       	jl	$+106    	;abs 0x4e8
     480:	33 36       	jge	$-920    	;abs 0xe8
     482:	34 37       	jge	$-406    	;abs 0x2ec
     484:	4c 00       	.word	0x004c;	????	
     486:	01 00       	.word	0x0001;	????	
     488:	5f 5f 53 49 	add.b	18771(r15),r15	;0x4953(r15)
     48c:	5a 45 5f 4d 	mov.b	19807(r5),r10	;0x4d5f(r5)
     490:	41 58       	add.b	r8,	r1	
     492:	5f 5f 20 36 	add.b	13856(r15),r15	;0x3620(r15)
     496:	35 35       	jge	$+620    	;abs 0x702
     498:	33 35       	jge	$+616    	;abs 0x700
     49a:	55 00       	.word	0x0055;	????	
     49c:	01 00       	.word	0x0001;	????	
     49e:	5f 5f 49 4e 	add.b	20041(r15),r15	;0x4e49(r15)
     4a2:	54 4d 41 58 	mov.b	22593(r13),r4	;0x5841(r13)
     4a6:	5f 4d 41 58 	mov.b	22593(r13),r15	;0x5841(r13)
     4aa:	5f 5f 20 39 	add.b	14624(r15),r15	;0x3920(r15)
     4ae:	32 32       	jn	$-922    	;abs 0x114
     4b0:	33 33       	jn	$-408    	;abs 0x318
     4b2:	37 32       	jn	$-912    	;abs 0x122
     4b4:	30 33       	jn	$-414    	;abs 0x316
     4b6:	36 38       	jl	$+110    	;abs 0x524
     4b8:	35 34       	jge	$+108    	;abs 0x524
     4ba:	37 37       	jge	$-400    	;abs 0x32a
     4bc:	35 38       	jl	$+108    	;abs 0x528
     4be:	30 37       	jge	$-414    	;abs 0x320
     4c0:	4c 4c       	mov.b	r12,	r12	
     4c2:	00 01       	.word	0x0100;	????	
     4c4:	00 5f       	add	r15,	r0	
     4c6:	5f 49 4e 54 	mov.b	21582(r9),r15	;0x544e(r9)
     4ca:	4d 41       	mov.b	r1,	r13	
     4cc:	58 5f 43 28 	add.b	10307(r15),r8	;0x2843(r15)
     4d0:	63 29       	jnc	$+712    	;abs 0x798
     4d2:	20 63       	addc	#2,	r0	;r3 As==10
     4d4:	20 23       	jnz	$-446    	;abs 0x316
     4d6:	23 20       	jnz	$+72     	;abs 0x51e
     4d8:	4c 4c       	mov.b	r12,	r12	
     4da:	00 01       	.word	0x0100;	????	
     4dc:	00 5f       	add	r15,	r0	
     4de:	5f 55 49 4e 	add.b	20041(r5),r15	;0x4e49(r5)
     4e2:	54 4d 41 58 	mov.b	22593(r13),r4	;0x5841(r13)
     4e6:	5f 4d 41 58 	mov.b	22593(r13),r15	;0x5841(r13)
     4ea:	5f 5f 20 31 	add.b	12576(r15),r15	;0x3120(r15)
     4ee:	38 34       	jge	$+114    	;abs 0x560
     4f0:	34 36       	jge	$-918    	;abs 0x15a
     4f2:	37 34       	jge	$+112    	;abs 0x562
     4f4:	34 30       	jn	$+106    	;abs 0x55e
     4f6:	37 33       	jn	$-400    	;abs 0x366
     4f8:	37 30       	jn	$+112    	;abs 0x568
     4fa:	39 35       	jge	$+628    	;abs 0x76e
     4fc:	35 31       	jn	$+620    	;abs 0x768
     4fe:	36 31       	jn	$+622    	;abs 0x76c
     500:	35 55       	add	@r5+,	r5	
     502:	4c 4c       	mov.b	r12,	r12	
     504:	00 01       	.word	0x0100;	????	
     506:	00 5f       	add	r15,	r0	
     508:	5f 55 49 4e 	add.b	20041(r5),r15	;0x4e49(r5)
     50c:	54 4d 41 58 	mov.b	22593(r13),r4	;0x5841(r13)
     510:	5f 43       	mov.b	#1,	r15	;r3 As==01
     512:	28 63       	addc	#2,	r8	;r3 As==10
     514:	29 20       	jnz	$+84     	;abs 0x568
     516:	63 20       	jnz	$+200    	;abs 0x5de
     518:	23 23       	jnz	$-440    	;abs 0x360
     51a:	20 55       	add	@r5,	r0	
     51c:	4c 4c       	mov.b	r12,	r12	
     51e:	00 01       	.word	0x0100;	????	
     520:	00 5f       	add	r15,	r0	
     522:	5f 46 4c 54 	mov.b	21580(r6),r15	;0x544c(r6)
     526:	5f 45 56 41 	mov.b	16726(r5),r15	;0x4156(r5)
     52a:	4c 5f       	add.b	r15,	r12	
     52c:	4d 45       	mov.b	r5,	r13	
     52e:	54 48 4f 44 	mov.b	17487(r8),r4	;0x444f(r8)
     532:	5f 5f 20 30 	add.b	12320(r15),r15	;0x3020(r15)
     536:	00 01       	.word	0x0100;	????	
     538:	00 5f       	add	r15,	r0	
     53a:	5f 44 45 43 	mov.b	17221(r4),r15	;0x4345(r4)
     53e:	5f 45 56 41 	mov.b	16726(r5),r15	;0x4156(r5)
     542:	4c 5f       	add.b	r15,	r12	
     544:	4d 45       	mov.b	r5,	r13	
     546:	54 48 4f 44 	mov.b	17487(r8),r4	;0x444f(r8)
     54a:	5f 5f 20 32 	add.b	12832(r15),r15	;0x3220(r15)
     54e:	00 01       	.word	0x0100;	????	
     550:	00 5f       	add	r15,	r0	
     552:	5f 46 4c 54 	mov.b	21580(r6),r15	;0x544c(r6)
     556:	5f 52 41 44 	add.b	&0x4441,r15	
     55a:	49 58       	add.b	r8,	r9	
     55c:	5f 5f 20 32 	add.b	12832(r15),r15	;0x3220(r15)
     560:	00 01       	.word	0x0100;	????	
     562:	00 5f       	add	r15,	r0	
     564:	5f 46 4c 54 	mov.b	21580(r6),r15	;0x544c(r6)
     568:	5f 4d 41 4e 	mov.b	20033(r13),r15	;0x4e41(r13)
     56c:	54 5f 44 49 	add.b	18756(r15),r4	;0x4944(r15)
     570:	47 5f       	add.b	r15,	r7	
     572:	5f 20       	jnz	$+192    	;abs 0x632
     574:	32 34       	jge	$+102    	;abs 0x5da
     576:	00 01       	.word	0x0100;	????	
     578:	00 5f       	add	r15,	r0	
     57a:	5f 46 4c 54 	mov.b	21580(r6),r15	;0x544c(r6)
     57e:	5f 44 49 47 	mov.b	18249(r4),r15	;0x4749(r4)
     582:	5f 5f 20 36 	add.b	13856(r15),r15	;0x3620(r15)
     586:	00 01       	.word	0x0100;	????	
     588:	00 5f       	add	r15,	r0	
     58a:	5f 46 4c 54 	mov.b	21580(r6),r15	;0x544c(r6)
     58e:	5f 4d 49 4e 	mov.b	20041(r13),r15	;0x4e49(r13)
     592:	5f 45 58 50 	mov.b	20568(r5),r15	;0x5058(r5)
     596:	5f 5f 20 28 	add.b	10272(r15),r15	;0x2820(r15)
     59a:	2d 31       	jn	$+604    	;abs 0x7f6
     59c:	32 35       	jge	$+614    	;abs 0x802
     59e:	29 00       	.word	0x0029;	????	
     5a0:	01 00       	.word	0x0001;	????	
     5a2:	5f 5f 46 4c 	add.b	19526(r15),r15	;0x4c46(r15)
     5a6:	54 5f 4d 49 	add.b	18765(r15),r4	;0x494d(r15)
     5aa:	4e 5f       	add.b	r15,	r14	
     5ac:	31 30       	jn	$+100    	;abs 0x610
     5ae:	5f 45 58 50 	mov.b	20568(r5),r15	;0x5058(r5)
     5b2:	5f 5f 20 28 	add.b	10272(r15),r15	;0x2820(r15)
     5b6:	2d 33       	jn	$-420    	;abs 0x412
     5b8:	37 29       	jnc	$+624    	;abs 0x828
     5ba:	00 01       	.word	0x0100;	????	
     5bc:	00 5f       	add	r15,	r0	
     5be:	5f 46 4c 54 	mov.b	21580(r6),r15	;0x544c(r6)
     5c2:	5f 4d 41 58 	mov.b	22593(r13),r15	;0x5841(r13)
     5c6:	5f 45 58 50 	mov.b	20568(r5),r15	;0x5058(r5)
     5ca:	5f 5f 20 31 	add.b	12576(r15),r15	;0x3120(r15)
     5ce:	32 38       	jl	$+102    	;abs 0x634
     5d0:	00 01       	.word	0x0100;	????	
     5d2:	00 5f       	add	r15,	r0	
     5d4:	5f 46 4c 54 	mov.b	21580(r6),r15	;0x544c(r6)
     5d8:	5f 4d 41 58 	mov.b	22593(r13),r15	;0x5841(r13)
     5dc:	5f 31       	jn	$+704    	;abs 0x89c
     5de:	30 5f       	add	@r15+,	r0	
     5e0:	45 58       	add.b	r8,	r5	
     5e2:	50 5f 5f 20 	add.b	8287(r15),r0	;0x205f(r15)
     5e6:	33 38       	jl	$+104    	;abs 0x64e
     5e8:	00 01       	.word	0x0100;	????	
     5ea:	00 5f       	add	r15,	r0	
     5ec:	5f 46 4c 54 	mov.b	21580(r6),r15	;0x544c(r6)
     5f0:	5f 44 45 43 	mov.b	17221(r4),r15	;0x4345(r4)
     5f4:	49 4d       	mov.b	r13,	r9	
     5f6:	41 4c       	mov.b	r12,	r1	
     5f8:	5f 44 49 47 	mov.b	18249(r4),r15	;0x4749(r4)
     5fc:	5f 5f 20 39 	add.b	14624(r15),r15	;0x3920(r15)
     600:	00 01       	.word	0x0100;	????	
     602:	00 5f       	add	r15,	r0	
     604:	5f 46 4c 54 	mov.b	21580(r6),r15	;0x544c(r6)
     608:	5f 4d 41 58 	mov.b	22593(r13),r15	;0x5841(r13)
     60c:	5f 5f 20 33 	add.b	13088(r15),r15	;0x3320(r15)
     610:	2e 34       	jge	$+94     	;abs 0x66e
     612:	30 32       	jn	$-926    	;abs 0x274
     614:	38 32       	jn	$-910    	;abs 0x286
     616:	33 34       	jge	$+104    	;abs 0x67e
     618:	37 65       	addc	@r5+,	r7	
     61a:	2b 33       	jn	$-424    	;abs 0x472
     61c:	38 46       	mov	@r6+,	r8	
     61e:	00 01       	.word	0x0100;	????	
     620:	00 5f       	add	r15,	r0	
     622:	5f 46 4c 54 	mov.b	21580(r6),r15	;0x544c(r6)
     626:	5f 4d 49 4e 	mov.b	20041(r13),r15	;0x4e49(r13)
     62a:	5f 5f 20 31 	add.b	12576(r15),r15	;0x3120(r15)
     62e:	2e 31       	jn	$+606    	;abs 0x88c
     630:	37 35       	jge	$+624    	;abs 0x8a0
     632:	34 39       	jl	$+618    	;abs 0x89c
     634:	34 33       	jn	$-406    	;abs 0x49e
     636:	35 65       	addc	@r5+,	r5	
     638:	2d 33       	jn	$-420    	;abs 0x494
     63a:	38 46       	mov	@r6+,	r8	
     63c:	00 01       	.word	0x0100;	????	
     63e:	00 5f       	add	r15,	r0	
     640:	5f 46 4c 54 	mov.b	21580(r6),r15	;0x544c(r6)
     644:	5f 45 50 53 	mov.b	21328(r5),r15	;0x5350(r5)
     648:	49 4c       	mov.b	r12,	r9	
     64a:	4f 4e       	mov.b	r14,	r15	
     64c:	5f 5f 20 31 	add.b	12576(r15),r15	;0x3120(r15)
     650:	2e 31       	jn	$+606    	;abs 0x8ae
     652:	39 32       	jn	$-908    	;abs 0x2c6
     654:	30 39       	jl	$+610    	;abs 0x8b6
     656:	32 39       	jl	$+614    	;abs 0x8bc
     658:	30 65       	addc	@r5+,	r0	
     65a:	2d 37       	jge	$-420    	;abs 0x4b6
     65c:	46 00       	.word	0x0046;	????	
     65e:	01 00       	.word	0x0001;	????	
     660:	5f 5f 46 4c 	add.b	19526(r15),r15	;0x4c46(r15)
     664:	54 5f 44 45 	add.b	17732(r15),r4	;0x4544(r15)
     668:	4e 4f       	mov.b	r15,	r14	
     66a:	52 4d 5f 4d 	mov.b	19807(r13),r2	;0x4d5f(r13)
     66e:	49 4e       	mov.b	r14,	r9	
     670:	5f 5f 20 31 	add.b	12576(r15),r15	;0x3120(r15)
     674:	2e 34       	jge	$+94     	;abs 0x6d2
     676:	30 31       	jn	$+610    	;abs 0x8d8
     678:	32 39       	jl	$+614    	;abs 0x8de
     67a:	38 34       	jge	$+114    	;abs 0x6ec
     67c:	36 65       	addc	@r5+,	r6	
     67e:	2d 34       	jge	$+92     	;abs 0x6da
     680:	35 46       	mov	@r6+,	r5	
     682:	00 01       	.word	0x0100;	????	
     684:	00 5f       	add	r15,	r0	
     686:	5f 46 4c 54 	mov.b	21580(r6),r15	;0x544c(r6)
     68a:	5f 48 41 53 	mov.b	21313(r8),r15	;0x5341(r8)
     68e:	5f 44 45 4e 	mov.b	20037(r4),r15	;0x4e45(r4)
     692:	4f 52       	add.b	r2,	r15	
     694:	4d 5f       	add.b	r15,	r13	
     696:	5f 20       	jnz	$+192    	;abs 0x756
     698:	31 00       	.word	0x0031;	????	
     69a:	01 00       	.word	0x0001;	????	
     69c:	5f 5f 46 4c 	add.b	19526(r15),r15	;0x4c46(r15)
     6a0:	54 5f 48 41 	add.b	16712(r15),r4	;0x4148(r15)
     6a4:	53 5f       	.word	0x5f53;	????	Illegal as 2-op instr
     6a6:	49 4e       	mov.b	r14,	r9	
     6a8:	46 49       	mov.b	r9,	r6	
     6aa:	4e 49       	mov.b	r9,	r14	
     6ac:	54 59 5f 5f 	add.b	24415(r9),r4	;0x5f5f(r9)
     6b0:	20 31       	jn	$+578    	;abs 0x8f2
     6b2:	00 01       	.word	0x0100;	????	
     6b4:	00 5f       	add	r15,	r0	
     6b6:	5f 46 4c 54 	mov.b	21580(r6),r15	;0x544c(r6)
     6ba:	5f 48 41 53 	mov.b	21313(r8),r15	;0x5341(r8)
     6be:	5f 51 55 49 	add.b	18773(r1),r15	;0x4955(r1)
     6c2:	45 54       	add.b	r4,	r5	
     6c4:	5f 4e 41 4e 	mov.b	20033(r14),r15	;0x4e41(r14)
     6c8:	5f 5f 20 31 	add.b	12576(r15),r15	;0x3120(r15)
     6cc:	00 01       	.word	0x0100;	????	
     6ce:	00 5f       	add	r15,	r0	
     6d0:	5f 44 42 4c 	mov.b	19522(r4),r15	;0x4c42(r4)
     6d4:	5f 4d 41 4e 	mov.b	20033(r13),r15	;0x4e41(r13)
     6d8:	54 5f 44 49 	add.b	18756(r15),r4	;0x4944(r15)
     6dc:	47 5f       	add.b	r15,	r7	
     6de:	5f 20       	jnz	$+192    	;abs 0x79e
     6e0:	32 34       	jge	$+102    	;abs 0x746
     6e2:	00 01       	.word	0x0100;	????	
     6e4:	00 5f       	add	r15,	r0	
     6e6:	5f 44 42 4c 	mov.b	19522(r4),r15	;0x4c42(r4)
     6ea:	5f 44 49 47 	mov.b	18249(r4),r15	;0x4749(r4)
     6ee:	5f 5f 20 36 	add.b	13856(r15),r15	;0x3620(r15)
     6f2:	00 01       	.word	0x0100;	????	
     6f4:	00 5f       	add	r15,	r0	
     6f6:	5f 44 42 4c 	mov.b	19522(r4),r15	;0x4c42(r4)
     6fa:	5f 4d 49 4e 	mov.b	20041(r13),r15	;0x4e49(r13)
     6fe:	5f 45 58 50 	mov.b	20568(r5),r15	;0x5058(r5)
     702:	5f 5f 20 28 	add.b	10272(r15),r15	;0x2820(r15)
     706:	2d 31       	jn	$+604    	;abs 0x962
     708:	32 35       	jge	$+614    	;abs 0x96e
     70a:	29 00       	.word	0x0029;	????	
     70c:	01 00       	.word	0x0001;	????	
     70e:	5f 5f 44 42 	add.b	16964(r15),r15	;0x4244(r15)
     712:	4c 5f       	add.b	r15,	r12	
     714:	4d 49       	mov.b	r9,	r13	
     716:	4e 5f       	add.b	r15,	r14	
     718:	31 30       	jn	$+100    	;abs 0x77c
     71a:	5f 45 58 50 	mov.b	20568(r5),r15	;0x5058(r5)
     71e:	5f 5f 20 28 	add.b	10272(r15),r15	;0x2820(r15)
     722:	2d 33       	jn	$-420    	;abs 0x57e
     724:	37 29       	jnc	$+624    	;abs 0x994
     726:	00 01       	.word	0x0100;	????	
     728:	00 5f       	add	r15,	r0	
     72a:	5f 44 42 4c 	mov.b	19522(r4),r15	;0x4c42(r4)
     72e:	5f 4d 41 58 	mov.b	22593(r13),r15	;0x5841(r13)
     732:	5f 45 58 50 	mov.b	20568(r5),r15	;0x5058(r5)
     736:	5f 5f 20 31 	add.b	12576(r15),r15	;0x3120(r15)
     73a:	32 38       	jl	$+102    	;abs 0x7a0
     73c:	00 01       	.word	0x0100;	????	
     73e:	00 5f       	add	r15,	r0	
     740:	5f 44 42 4c 	mov.b	19522(r4),r15	;0x4c42(r4)
     744:	5f 4d 41 58 	mov.b	22593(r13),r15	;0x5841(r13)
     748:	5f 31       	jn	$+704    	;abs 0xa08
     74a:	30 5f       	add	@r15+,	r0	
     74c:	45 58       	add.b	r8,	r5	
     74e:	50 5f 5f 20 	add.b	8287(r15),r0	;0x205f(r15)
     752:	33 38       	jl	$+104    	;abs 0x7ba
     754:	00 01       	.word	0x0100;	????	
     756:	00 5f       	add	r15,	r0	
     758:	5f 44 42 4c 	mov.b	19522(r4),r15	;0x4c42(r4)
     75c:	5f 44 45 43 	mov.b	17221(r4),r15	;0x4345(r4)
     760:	49 4d       	mov.b	r13,	r9	
     762:	41 4c       	mov.b	r12,	r1	
     764:	5f 44 49 47 	mov.b	18249(r4),r15	;0x4749(r4)
     768:	5f 5f 20 39 	add.b	14624(r15),r15	;0x3920(r15)
     76c:	00 01       	.word	0x0100;	????	
     76e:	00 5f       	add	r15,	r0	
     770:	5f 44 42 4c 	mov.b	19522(r4),r15	;0x4c42(r4)
     774:	5f 4d 41 58 	mov.b	22593(r13),r15	;0x5841(r13)
     778:	5f 5f 20 28 	add.b	10272(r15),r15	;0x2820(r15)
     77c:	28 64       	addc	@r4,	r8	
     77e:	6f 75       	subc.b	@r5,	r15	
     780:	62 6c       	addc.b	@r12,	r2	
     782:	65 29       	jnc	$+716    	;abs 0xa4e
     784:	33 2e       	jc	$-920    	;abs 0x3ec
     786:	34 30       	jn	$+106    	;abs 0x7f0
     788:	32 38       	jl	$+102    	;abs 0x7ee
     78a:	32 33       	jn	$-410    	;abs 0x5f0
     78c:	34 37       	jge	$-406    	;abs 0x5f6
     78e:	65 2b       	jnc	$-308    	;abs 0x65a
     790:	33 38       	jl	$+104    	;abs 0x7f8
     792:	4c 29       	jnc	$+666    	;abs 0xa2c
     794:	00 01       	.word	0x0100;	????	
     796:	00 5f       	add	r15,	r0	
     798:	5f 44 42 4c 	mov.b	19522(r4),r15	;0x4c42(r4)
     79c:	5f 4d 49 4e 	mov.b	20041(r13),r15	;0x4e49(r13)
     7a0:	5f 5f 20 28 	add.b	10272(r15),r15	;0x2820(r15)
     7a4:	28 64       	addc	@r4,	r8	
     7a6:	6f 75       	subc.b	@r5,	r15	
     7a8:	62 6c       	addc.b	@r12,	r2	
     7aa:	65 29       	jnc	$+716    	;abs 0xa76
     7ac:	31 2e       	jc	$-924    	;abs 0x410
     7ae:	31 37       	jge	$-412    	;abs 0x612
     7b0:	35 34       	jge	$+108    	;abs 0x81c
     7b2:	39 34       	jge	$+116    	;abs 0x826
     7b4:	33 35       	jge	$+616    	;abs 0xa1c
     7b6:	65 2d       	jc	$+716    	;abs 0xa82
     7b8:	33 38       	jl	$+104    	;abs 0x820
     7ba:	4c 29       	jnc	$+666    	;abs 0xa54
     7bc:	00 01       	.word	0x0100;	????	
     7be:	00 5f       	add	r15,	r0	
     7c0:	5f 44 42 4c 	mov.b	19522(r4),r15	;0x4c42(r4)
     7c4:	5f 45 50 53 	mov.b	21328(r5),r15	;0x5350(r5)
     7c8:	49 4c       	mov.b	r12,	r9	
     7ca:	4f 4e       	mov.b	r14,	r15	
     7cc:	5f 5f 20 28 	add.b	10272(r15),r15	;0x2820(r15)
     7d0:	28 64       	addc	@r4,	r8	
     7d2:	6f 75       	subc.b	@r5,	r15	
     7d4:	62 6c       	addc.b	@r12,	r2	
     7d6:	65 29       	jnc	$+716    	;abs 0xaa2
     7d8:	31 2e       	jc	$-924    	;abs 0x43c
     7da:	31 39       	jl	$+612    	;abs 0xa3e
     7dc:	32 30       	jn	$+102    	;abs 0x842
     7de:	39 32       	jn	$-908    	;abs 0x452
     7e0:	39 30       	jn	$+116    	;abs 0x854
     7e2:	65 2d       	jc	$+716    	;abs 0xaae
     7e4:	37 4c       	mov	@r12+,	r7	
     7e6:	29 00       	.word	0x0029;	????	
     7e8:	01 00       	.word	0x0001;	????	
     7ea:	5f 5f 44 42 	add.b	16964(r15),r15	;0x4244(r15)
     7ee:	4c 5f       	add.b	r15,	r12	
     7f0:	44 45       	mov.b	r5,	r4	
     7f2:	4e 4f       	mov.b	r15,	r14	
     7f4:	52 4d 5f 4d 	mov.b	19807(r13),r2	;0x4d5f(r13)
     7f8:	49 4e       	mov.b	r14,	r9	
     7fa:	5f 5f 20 28 	add.b	10272(r15),r15	;0x2820(r15)
     7fe:	28 64       	addc	@r4,	r8	
     800:	6f 75       	subc.b	@r5,	r15	
     802:	62 6c       	addc.b	@r12,	r2	
     804:	65 29       	jnc	$+716    	;abs 0xad0
     806:	31 2e       	jc	$-924    	;abs 0x46a
     808:	34 30       	jn	$+106    	;abs 0x872
     80a:	31 32       	jn	$-924    	;abs 0x46e
     80c:	39 38       	jl	$+116    	;abs 0x880
     80e:	34 36       	jge	$-918    	;abs 0x478
     810:	65 2d       	jc	$+716    	;abs 0xadc
     812:	34 35       	jge	$+618    	;abs 0xa7c
     814:	4c 29       	jnc	$+666    	;abs 0xaae
     816:	00 01       	.word	0x0100;	????	
     818:	00 5f       	add	r15,	r0	
     81a:	5f 44 42 4c 	mov.b	19522(r4),r15	;0x4c42(r4)
     81e:	5f 48 41 53 	mov.b	21313(r8),r15	;0x5341(r8)
     822:	5f 44 45 4e 	mov.b	20037(r4),r15	;0x4e45(r4)
     826:	4f 52       	add.b	r2,	r15	
     828:	4d 5f       	add.b	r15,	r13	
     82a:	5f 20       	jnz	$+192    	;abs 0x8ea
     82c:	31 00       	.word	0x0031;	????	
     82e:	01 00       	.word	0x0001;	????	
     830:	5f 5f 44 42 	add.b	16964(r15),r15	;0x4244(r15)
     834:	4c 5f       	add.b	r15,	r12	
     836:	48 41       	mov.b	r1,	r8	
     838:	53 5f       	.word	0x5f53;	????	Illegal as 2-op instr
     83a:	49 4e       	mov.b	r14,	r9	
     83c:	46 49       	mov.b	r9,	r6	
     83e:	4e 49       	mov.b	r9,	r14	
     840:	54 59 5f 5f 	add.b	24415(r9),r4	;0x5f5f(r9)
     844:	20 31       	jn	$+578    	;abs 0xa86
     846:	00 01       	.word	0x0100;	????	
     848:	00 5f       	add	r15,	r0	
     84a:	5f 44 42 4c 	mov.b	19522(r4),r15	;0x4c42(r4)
     84e:	5f 48 41 53 	mov.b	21313(r8),r15	;0x5341(r8)
     852:	5f 51 55 49 	add.b	18773(r1),r15	;0x4955(r1)
     856:	45 54       	add.b	r4,	r5	
     858:	5f 4e 41 4e 	mov.b	20033(r14),r15	;0x4e41(r14)
     85c:	5f 5f 20 31 	add.b	12576(r15),r15	;0x3120(r15)
     860:	00 01       	.word	0x0100;	????	
     862:	00 5f       	add	r15,	r0	
     864:	5f 4c 44 42 	mov.b	16964(r12),r15	;0x4244(r12)
     868:	4c 5f       	add.b	r15,	r12	
     86a:	4d 41       	mov.b	r1,	r13	
     86c:	4e 54       	add.b	r4,	r14	
     86e:	5f 44 49 47 	mov.b	18249(r4),r15	;0x4749(r4)
     872:	5f 5f 20 32 	add.b	12832(r15),r15	;0x3220(r15)
     876:	34 00       	.word	0x0034;	????	
     878:	01 00       	.word	0x0001;	????	
     87a:	5f 5f 4c 44 	add.b	17484(r15),r15	;0x444c(r15)
     87e:	42 4c       	mov.b	r12,	r2	
     880:	5f 44 49 47 	mov.b	18249(r4),r15	;0x4749(r4)
     884:	5f 5f 20 36 	add.b	13856(r15),r15	;0x3620(r15)
     888:	00 01       	.word	0x0100;	????	
     88a:	00 5f       	add	r15,	r0	
     88c:	5f 4c 44 42 	mov.b	16964(r12),r15	;0x4244(r12)
     890:	4c 5f       	add.b	r15,	r12	
     892:	4d 49       	mov.b	r9,	r13	
     894:	4e 5f       	add.b	r15,	r14	
     896:	45 58       	add.b	r8,	r5	
     898:	50 5f 5f 20 	add.b	8287(r15),r0	;0x205f(r15)
     89c:	28 2d       	jc	$+594    	;abs 0xaee
     89e:	31 32       	jn	$-924    	;abs 0x502
     8a0:	35 29       	jnc	$+620    	;abs 0xb0c
     8a2:	00 01       	.word	0x0100;	????	
     8a4:	00 5f       	add	r15,	r0	
     8a6:	5f 4c 44 42 	mov.b	16964(r12),r15	;0x4244(r12)
     8aa:	4c 5f       	add.b	r15,	r12	
     8ac:	4d 49       	mov.b	r9,	r13	
     8ae:	4e 5f       	add.b	r15,	r14	
     8b0:	31 30       	jn	$+100    	;abs 0x914
     8b2:	5f 45 58 50 	mov.b	20568(r5),r15	;0x5058(r5)
     8b6:	5f 5f 20 28 	add.b	10272(r15),r15	;0x2820(r15)
     8ba:	2d 33       	jn	$-420    	;abs 0x716
     8bc:	37 29       	jnc	$+624    	;abs 0xb2c
     8be:	00 01       	.word	0x0100;	????	
     8c0:	00 5f       	add	r15,	r0	
     8c2:	5f 4c 44 42 	mov.b	16964(r12),r15	;0x4244(r12)
     8c6:	4c 5f       	add.b	r15,	r12	
     8c8:	4d 41       	mov.b	r1,	r13	
     8ca:	58 5f 45 58 	add.b	22597(r15),r8	;0x5845(r15)
     8ce:	50 5f 5f 20 	add.b	8287(r15),r0	;0x205f(r15)
     8d2:	31 32       	jn	$-924    	;abs 0x536
     8d4:	38 00       	.word	0x0038;	????	
     8d6:	01 00       	.word	0x0001;	????	
     8d8:	5f 5f 4c 44 	add.b	17484(r15),r15	;0x444c(r15)
     8dc:	42 4c       	mov.b	r12,	r2	
     8de:	5f 4d 41 58 	mov.b	22593(r13),r15	;0x5841(r13)
     8e2:	5f 31       	jn	$+704    	;abs 0xba2
     8e4:	30 5f       	add	@r15+,	r0	
     8e6:	45 58       	add.b	r8,	r5	
     8e8:	50 5f 5f 20 	add.b	8287(r15),r0	;0x205f(r15)
     8ec:	33 38       	jl	$+104    	;abs 0x954
     8ee:	00 01       	.word	0x0100;	????	
     8f0:	00 5f       	add	r15,	r0	
     8f2:	5f 44 45 43 	mov.b	17221(r4),r15	;0x4345(r4)
     8f6:	49 4d       	mov.b	r13,	r9	
     8f8:	41 4c       	mov.b	r12,	r1	
     8fa:	5f 44 49 47 	mov.b	18249(r4),r15	;0x4749(r4)
     8fe:	5f 5f 20 39 	add.b	14624(r15),r15	;0x3920(r15)
     902:	00 01       	.word	0x0100;	????	
     904:	00 5f       	add	r15,	r0	
     906:	5f 4c 44 42 	mov.b	16964(r12),r15	;0x4244(r12)
     90a:	4c 5f       	add.b	r15,	r12	
     90c:	4d 41       	mov.b	r1,	r13	
     90e:	58 5f 5f 20 	add.b	8287(r15),r8	;0x205f(r15)
     912:	33 2e       	jc	$-920    	;abs 0x57a
     914:	34 30       	jn	$+106    	;abs 0x97e
     916:	32 38       	jl	$+102    	;abs 0x97c
     918:	32 33       	jn	$-410    	;abs 0x77e
     91a:	34 37       	jge	$-406    	;abs 0x784
     91c:	65 2b       	jnc	$-308    	;abs 0x7e8
     91e:	33 38       	jl	$+104    	;abs 0x986
     920:	4c 00       	.word	0x004c;	????	
     922:	01 00       	.word	0x0001;	????	
     924:	5f 5f 4c 44 	add.b	17484(r15),r15	;0x444c(r15)
     928:	42 4c       	mov.b	r12,	r2	
     92a:	5f 4d 49 4e 	mov.b	20041(r13),r15	;0x4e49(r13)
     92e:	5f 5f 20 31 	add.b	12576(r15),r15	;0x3120(r15)
     932:	2e 31       	jn	$+606    	;abs 0xb90
     934:	37 35       	jge	$+624    	;abs 0xba4
     936:	34 39       	jl	$+618    	;abs 0xba0
     938:	34 33       	jn	$-406    	;abs 0x7a2
     93a:	35 65       	addc	@r5+,	r5	
     93c:	2d 33       	jn	$-420    	;abs 0x798
     93e:	38 4c       	mov	@r12+,	r8	
     940:	00 01       	.word	0x0100;	????	
     942:	00 5f       	add	r15,	r0	
     944:	5f 4c 44 42 	mov.b	16964(r12),r15	;0x4244(r12)
     948:	4c 5f       	add.b	r15,	r12	
     94a:	45 50       	add.b	r0,	r5	
     94c:	53 49       	.word	0x4953;	????	Illegal as 2-op instr
     94e:	4c 4f       	mov.b	r15,	r12	
     950:	4e 5f       	add.b	r15,	r14	
     952:	5f 20       	jnz	$+192    	;abs 0xa12
     954:	31 2e       	jc	$-924    	;abs 0x5b8
     956:	31 39       	jl	$+612    	;abs 0xbba
     958:	32 30       	jn	$+102    	;abs 0x9be
     95a:	39 32       	jn	$-908    	;abs 0x5ce
     95c:	39 30       	jn	$+116    	;abs 0x9d0
     95e:	65 2d       	jc	$+716    	;abs 0xc2a
     960:	37 4c       	mov	@r12+,	r7	
     962:	00 01       	.word	0x0100;	????	
     964:	00 5f       	add	r15,	r0	
     966:	5f 4c 44 42 	mov.b	16964(r12),r15	;0x4244(r12)
     96a:	4c 5f       	add.b	r15,	r12	
     96c:	44 45       	mov.b	r5,	r4	
     96e:	4e 4f       	mov.b	r15,	r14	
     970:	52 4d 5f 4d 	mov.b	19807(r13),r2	;0x4d5f(r13)
     974:	49 4e       	mov.b	r14,	r9	
     976:	5f 5f 20 31 	add.b	12576(r15),r15	;0x3120(r15)
     97a:	2e 34       	jge	$+94     	;abs 0x9d8
     97c:	30 31       	jn	$+610    	;abs 0xbde
     97e:	32 39       	jl	$+614    	;abs 0xbe4
     980:	38 34       	jge	$+114    	;abs 0x9f2
     982:	36 65       	addc	@r5+,	r6	
     984:	2d 34       	jge	$+92     	;abs 0x9e0
     986:	35 4c       	mov	@r12+,	r5	
     988:	00 01       	.word	0x0100;	????	
     98a:	00 5f       	add	r15,	r0	
     98c:	5f 4c 44 42 	mov.b	16964(r12),r15	;0x4244(r12)
     990:	4c 5f       	add.b	r15,	r12	
     992:	48 41       	mov.b	r1,	r8	
     994:	53 5f       	.word	0x5f53;	????	Illegal as 2-op instr
     996:	44 45       	mov.b	r5,	r4	
     998:	4e 4f       	mov.b	r15,	r14	
     99a:	52 4d 5f 5f 	mov.b	24415(r13),r2	;0x5f5f(r13)
     99e:	20 31       	jn	$+578    	;abs 0xbe0
     9a0:	00 01       	.word	0x0100;	????	
     9a2:	00 5f       	add	r15,	r0	
     9a4:	5f 4c 44 42 	mov.b	16964(r12),r15	;0x4244(r12)
     9a8:	4c 5f       	add.b	r15,	r12	
     9aa:	48 41       	mov.b	r1,	r8	
     9ac:	53 5f       	.word	0x5f53;	????	Illegal as 2-op instr
     9ae:	49 4e       	mov.b	r14,	r9	
     9b0:	46 49       	mov.b	r9,	r6	
     9b2:	4e 49       	mov.b	r9,	r14	
     9b4:	54 59 5f 5f 	add.b	24415(r9),r4	;0x5f5f(r9)
     9b8:	20 31       	jn	$+578    	;abs 0xbfa
     9ba:	00 01       	.word	0x0100;	????	
     9bc:	00 5f       	add	r15,	r0	
     9be:	5f 4c 44 42 	mov.b	16964(r12),r15	;0x4244(r12)
     9c2:	4c 5f       	add.b	r15,	r12	
     9c4:	48 41       	mov.b	r1,	r8	
     9c6:	53 5f       	.word	0x5f53;	????	Illegal as 2-op instr
     9c8:	51 55 49 45 	add.b	17737(r5),r1	;0x4549(r5)
     9cc:	54 5f 4e 41 	add.b	16718(r15),r4	;0x414e(r15)
     9d0:	4e 5f       	add.b	r15,	r14	
     9d2:	5f 20       	jnz	$+192    	;abs 0xa92
     9d4:	31 00       	.word	0x0031;	????	
     9d6:	01 00       	.word	0x0001;	????	
     9d8:	5f 5f 44 45 	add.b	17732(r15),r15	;0x4544(r15)
     9dc:	43 33       	jn	$-376    	;abs 0x864
     9de:	32 5f       	add	@r15+,	r2	
     9e0:	4d 41       	mov.b	r1,	r13	
     9e2:	4e 54       	add.b	r4,	r14	
     9e4:	5f 44 49 47 	mov.b	18249(r4),r15	;0x4749(r4)
     9e8:	5f 5f 20 37 	add.b	14112(r15),r15	;0x3720(r15)
     9ec:	00 01       	.word	0x0100;	????	
     9ee:	00 5f       	add	r15,	r0	
     9f0:	5f 44 45 43 	mov.b	17221(r4),r15	;0x4345(r4)
     9f4:	33 32       	jn	$-920    	;abs 0x65c
     9f6:	5f 4d 49 4e 	mov.b	20041(r13),r15	;0x4e49(r13)
     9fa:	5f 45 58 50 	mov.b	20568(r5),r15	;0x5058(r5)
     9fe:	5f 5f 20 28 	add.b	10272(r15),r15	;0x2820(r15)
     a02:	2d 39       	jl	$+604    	;abs 0xc5e
     a04:	34 29       	jnc	$+618    	;abs 0xc6e
     a06:	00 01       	.word	0x0100;	????	
     a08:	00 5f       	add	r15,	r0	
     a0a:	5f 44 45 43 	mov.b	17221(r4),r15	;0x4345(r4)
     a0e:	33 32       	jn	$-920    	;abs 0x676
     a10:	5f 4d 41 58 	mov.b	22593(r13),r15	;0x5841(r13)
     a14:	5f 45 58 50 	mov.b	20568(r5),r15	;0x5058(r5)
     a18:	5f 5f 20 39 	add.b	14624(r15),r15	;0x3920(r15)
     a1c:	37 00       	.word	0x0037;	????	
     a1e:	01 00       	.word	0x0001;	????	
     a20:	5f 5f 44 45 	add.b	17732(r15),r15	;0x4544(r15)
     a24:	43 33       	jn	$-376    	;abs 0x8ac
     a26:	32 5f       	add	@r15+,	r2	
     a28:	4d 49       	mov.b	r9,	r13	
     a2a:	4e 5f       	add.b	r15,	r14	
     a2c:	5f 20       	jnz	$+192    	;abs 0xaec
     a2e:	31 45       	mov	@r5+,	r1	
     a30:	2d 39       	jl	$+604    	;abs 0xc8c
     a32:	35 44       	mov	@r4+,	r5	
     a34:	46 00       	.word	0x0046;	????	
     a36:	01 00       	.word	0x0001;	????	
     a38:	5f 5f 44 45 	add.b	17732(r15),r15	;0x4544(r15)
     a3c:	43 33       	jn	$-376    	;abs 0x8c4
     a3e:	32 5f       	add	@r15+,	r2	
     a40:	4d 41       	mov.b	r1,	r13	
     a42:	58 5f 5f 20 	add.b	8287(r15),r8	;0x205f(r15)
     a46:	39 2e       	jc	$-908    	;abs 0x6ba
     a48:	39 39       	jl	$+628    	;abs 0xcbc
     a4a:	39 39       	jl	$+628    	;abs 0xcbe
     a4c:	39 39       	jl	$+628    	;abs 0xcc0
     a4e:	45 39       	jl	$+652    	;abs 0xcda
     a50:	36 44       	mov	@r4+,	r6	
     a52:	46 00       	.word	0x0046;	????	
     a54:	01 00       	.word	0x0001;	????	
     a56:	5f 5f 44 45 	add.b	17732(r15),r15	;0x4544(r15)
     a5a:	43 33       	jn	$-376    	;abs 0x8e2
     a5c:	32 5f       	add	@r15+,	r2	
     a5e:	45 50       	add.b	r0,	r5	
     a60:	53 49       	.word	0x4953;	????	Illegal as 2-op instr
     a62:	4c 4f       	mov.b	r15,	r12	
     a64:	4e 5f       	add.b	r15,	r14	
     a66:	5f 20       	jnz	$+192    	;abs 0xb26
     a68:	31 45       	mov	@r5+,	r1	
     a6a:	2d 36       	jge	$-932    	;abs 0x6c6
     a6c:	44 46       	mov.b	r6,	r4	
     a6e:	00 01       	.word	0x0100;	????	
     a70:	00 5f       	add	r15,	r0	
     a72:	5f 44 45 43 	mov.b	17221(r4),r15	;0x4345(r4)
     a76:	33 32       	jn	$-920    	;abs 0x6de
     a78:	5f 53       	inc.b	r15		
     a7a:	55 42 4e 4f 	mov.b	&0x4f4e,r5	
     a7e:	52 4d 41 4c 	mov.b	19521(r13),r2	;0x4c41(r13)
     a82:	5f 4d 49 4e 	mov.b	20041(r13),r15	;0x4e49(r13)
     a86:	5f 5f 20 30 	add.b	12320(r15),r15	;0x3020(r15)
     a8a:	2e 30       	jn	$+94     	;abs 0xae8
     a8c:	30 30       	jn	$+98     	;abs 0xaee
     a8e:	30 30       	jn	$+98     	;abs 0xaf0
     a90:	31 45       	mov	@r5+,	r1	
     a92:	2d 39       	jl	$+604    	;abs 0xcee
     a94:	35 44       	mov	@r4+,	r5	
     a96:	46 00       	.word	0x0046;	????	
     a98:	01 00       	.word	0x0001;	????	
     a9a:	5f 5f 44 45 	add.b	17732(r15),r15	;0x4544(r15)
     a9e:	43 36       	jge	$-888    	;abs 0x726
     aa0:	34 5f       	add	@r15+,	r4	
     aa2:	4d 41       	mov.b	r1,	r13	
     aa4:	4e 54       	add.b	r4,	r14	
     aa6:	5f 44 49 47 	mov.b	18249(r4),r15	;0x4749(r4)
     aaa:	5f 5f 20 31 	add.b	12576(r15),r15	;0x3120(r15)
     aae:	36 00       	.word	0x0036;	????	
     ab0:	01 00       	.word	0x0001;	????	
     ab2:	5f 5f 44 45 	add.b	17732(r15),r15	;0x4544(r15)
     ab6:	43 36       	jge	$-888    	;abs 0x73e
     ab8:	34 5f       	add	@r15+,	r4	
     aba:	4d 49       	mov.b	r9,	r13	
     abc:	4e 5f       	add.b	r15,	r14	
     abe:	45 58       	add.b	r8,	r5	
     ac0:	50 5f 5f 20 	add.b	8287(r15),r0	;0x205f(r15)
     ac4:	28 2d       	jc	$+594    	;abs 0xd16
     ac6:	33 38       	jl	$+104    	;abs 0xb2e
     ac8:	32 29       	jnc	$+614    	;abs 0xd2e
     aca:	00 01       	.word	0x0100;	????	
     acc:	00 5f       	add	r15,	r0	
     ace:	5f 44 45 43 	mov.b	17221(r4),r15	;0x4345(r4)
     ad2:	36 34       	jge	$+110    	;abs 0xb40
     ad4:	5f 4d 41 58 	mov.b	22593(r13),r15	;0x5841(r13)
     ad8:	5f 45 58 50 	mov.b	20568(r5),r15	;0x5058(r5)
     adc:	5f 5f 20 33 	add.b	13088(r15),r15	;0x3320(r15)
     ae0:	38 35       	jge	$+626    	;abs 0xd52
     ae2:	00 01       	.word	0x0100;	????	
     ae4:	00 5f       	add	r15,	r0	
     ae6:	5f 44 45 43 	mov.b	17221(r4),r15	;0x4345(r4)
     aea:	36 34       	jge	$+110    	;abs 0xb58
     aec:	5f 4d 49 4e 	mov.b	20041(r13),r15	;0x4e49(r13)
     af0:	5f 5f 20 31 	add.b	12576(r15),r15	;0x3120(r15)
     af4:	45 2d       	jc	$+652    	;abs 0xd80
     af6:	33 38       	jl	$+104    	;abs 0xb5e
     af8:	33 44       	.word	0x4433;	????	Illegal as 2-op instr
     afa:	44 00       	.word	0x0044;	????	
     afc:	01 00       	.word	0x0001;	????	
     afe:	5f 5f 44 45 	add.b	17732(r15),r15	;0x4544(r15)
     b02:	43 36       	jge	$-888    	;abs 0x78a
     b04:	34 5f       	add	@r15+,	r4	
     b06:	4d 41       	mov.b	r1,	r13	
     b08:	58 5f 5f 20 	add.b	8287(r15),r8	;0x205f(r15)
     b0c:	39 2e       	jc	$-908    	;abs 0x780
     b0e:	39 39       	jl	$+628    	;abs 0xd82
     b10:	39 39       	jl	$+628    	;abs 0xd84
     b12:	39 39       	jl	$+628    	;abs 0xd86
     b14:	39 39       	jl	$+628    	;abs 0xd88
     b16:	39 39       	jl	$+628    	;abs 0xd8a
     b18:	39 39       	jl	$+628    	;abs 0xd8c
     b1a:	39 39       	jl	$+628    	;abs 0xd8e
     b1c:	39 45       	mov	@r5+,	r9	
     b1e:	33 38       	jl	$+104    	;abs 0xb86
     b20:	34 44       	mov	@r4+,	r4	
     b22:	44 00       	.word	0x0044;	????	
     b24:	01 00       	.word	0x0001;	????	
     b26:	5f 5f 44 45 	add.b	17732(r15),r15	;0x4544(r15)
     b2a:	43 36       	jge	$-888    	;abs 0x7b2
     b2c:	34 5f       	add	@r15+,	r4	
     b2e:	45 50       	add.b	r0,	r5	
     b30:	53 49       	.word	0x4953;	????	Illegal as 2-op instr
     b32:	4c 4f       	mov.b	r15,	r12	
     b34:	4e 5f       	add.b	r15,	r14	
     b36:	5f 20       	jnz	$+192    	;abs 0xbf6
     b38:	31 45       	mov	@r5+,	r1	
     b3a:	2d 31       	jn	$+604    	;abs 0xd96
     b3c:	35 44       	mov	@r4+,	r5	
     b3e:	44 00       	.word	0x0044;	????	
     b40:	01 00       	.word	0x0001;	????	
     b42:	5f 5f 44 45 	add.b	17732(r15),r15	;0x4544(r15)
     b46:	43 36       	jge	$-888    	;abs 0x7ce
     b48:	34 5f       	add	@r15+,	r4	
     b4a:	53 55       	.word	0x5553;	????	Illegal as 2-op instr
     b4c:	42 4e       	mov.b	r14,	r2	
     b4e:	4f 52       	add.b	r2,	r15	
     b50:	4d 41       	mov.b	r1,	r13	
     b52:	4c 5f       	add.b	r15,	r12	
     b54:	4d 49       	mov.b	r9,	r13	
     b56:	4e 5f       	add.b	r15,	r14	
     b58:	5f 20       	jnz	$+192    	;abs 0xc18
     b5a:	30 2e       	jc	$-926    	;abs 0x7bc
     b5c:	30 30       	jn	$+98     	;abs 0xbbe
     b5e:	30 30       	jn	$+98     	;abs 0xbc0
     b60:	30 30       	jn	$+98     	;abs 0xbc2
     b62:	30 30       	jn	$+98     	;abs 0xbc4
     b64:	30 30       	jn	$+98     	;abs 0xbc6
     b66:	30 30       	jn	$+98     	;abs 0xbc8
     b68:	30 30       	jn	$+98     	;abs 0xbca
     b6a:	31 45       	mov	@r5+,	r1	
     b6c:	2d 33       	jn	$-420    	;abs 0x9c8
     b6e:	38 33       	jn	$-398    	;abs 0x9e0
     b70:	44 44       	mov.b	r4,	r4	
     b72:	00 01       	.word	0x0100;	????	
     b74:	00 5f       	add	r15,	r0	
     b76:	5f 44 45 43 	mov.b	17221(r4),r15	;0x4345(r4)
     b7a:	31 32       	jn	$-924    	;abs 0x7de
     b7c:	38 5f       	add	@r15+,	r8	
     b7e:	4d 41       	mov.b	r1,	r13	
     b80:	4e 54       	add.b	r4,	r14	
     b82:	5f 44 49 47 	mov.b	18249(r4),r15	;0x4749(r4)
     b86:	5f 5f 20 33 	add.b	13088(r15),r15	;0x3320(r15)
     b8a:	34 00       	.word	0x0034;	????	
     b8c:	01 00       	.word	0x0001;	????	
     b8e:	5f 5f 44 45 	add.b	17732(r15),r15	;0x4544(r15)
     b92:	43 31       	jn	$+648    	;abs 0xe1a
     b94:	32 38       	jl	$+102    	;abs 0xbfa
     b96:	5f 4d 49 4e 	mov.b	20041(r13),r15	;0x4e49(r13)
     b9a:	5f 45 58 50 	mov.b	20568(r5),r15	;0x5058(r5)
     b9e:	5f 5f 20 28 	add.b	10272(r15),r15	;0x2820(r15)
     ba2:	2d 36       	jge	$-932    	;abs 0x7fe
     ba4:	31 34       	jge	$+100    	;abs 0xc08
     ba6:	32 29       	jnc	$+614    	;abs 0xe0c
     ba8:	00 01       	.word	0x0100;	????	
     baa:	00 5f       	add	r15,	r0	
     bac:	5f 44 45 43 	mov.b	17221(r4),r15	;0x4345(r4)
     bb0:	31 32       	jn	$-924    	;abs 0x814
     bb2:	38 5f       	add	@r15+,	r8	
     bb4:	4d 41       	mov.b	r1,	r13	
     bb6:	58 5f 45 58 	add.b	22597(r15),r8	;0x5845(r15)
     bba:	50 5f 5f 20 	add.b	8287(r15),r0	;0x205f(r15)
     bbe:	36 31       	jn	$+622    	;abs 0xe2c
     bc0:	34 35       	jge	$+618    	;abs 0xe2a
     bc2:	00 01       	.word	0x0100;	????	
     bc4:	00 5f       	add	r15,	r0	
     bc6:	5f 44 45 43 	mov.b	17221(r4),r15	;0x4345(r4)
     bca:	31 32       	jn	$-924    	;abs 0x82e
     bcc:	38 5f       	add	@r15+,	r8	
     bce:	4d 49       	mov.b	r9,	r13	
     bd0:	4e 5f       	add.b	r15,	r14	
     bd2:	5f 20       	jnz	$+192    	;abs 0xc92
     bd4:	31 45       	mov	@r5+,	r1	
     bd6:	2d 36       	jge	$-932    	;abs 0x832
     bd8:	31 34       	jge	$+100    	;abs 0xc3c
     bda:	33 44       	.word	0x4433;	????	Illegal as 2-op instr
     bdc:	4c 00       	.word	0x004c;	????	
     bde:	01 00       	.word	0x0001;	????	
     be0:	5f 5f 44 45 	add.b	17732(r15),r15	;0x4544(r15)
     be4:	43 31       	jn	$+648    	;abs 0xe6c
     be6:	32 38       	jl	$+102    	;abs 0xc4c
     be8:	5f 4d 41 58 	mov.b	22593(r13),r15	;0x5841(r13)
     bec:	5f 5f 20 39 	add.b	14624(r15),r15	;0x3920(r15)
     bf0:	2e 39       	jl	$+606    	;abs 0xe4e
     bf2:	39 39       	jl	$+628    	;abs 0xe66
     bf4:	39 39       	jl	$+628    	;abs 0xe68
     bf6:	39 39       	jl	$+628    	;abs 0xe6a
     bf8:	39 39       	jl	$+628    	;abs 0xe6c
     bfa:	39 39       	jl	$+628    	;abs 0xe6e
     bfc:	39 39       	jl	$+628    	;abs 0xe70
     bfe:	39 39       	jl	$+628    	;abs 0xe72
     c00:	39 39       	jl	$+628    	;abs 0xe74
     c02:	39 39       	jl	$+628    	;abs 0xe76
     c04:	39 39       	jl	$+628    	;abs 0xe78
     c06:	39 39       	jl	$+628    	;abs 0xe7a
     c08:	39 39       	jl	$+628    	;abs 0xe7c
     c0a:	39 39       	jl	$+628    	;abs 0xe7e
     c0c:	39 39       	jl	$+628    	;abs 0xe80
     c0e:	39 39       	jl	$+628    	;abs 0xe82
     c10:	39 39       	jl	$+628    	;abs 0xe84
     c12:	45 36       	jge	$-884    	;abs 0x89e
     c14:	31 34       	jge	$+100    	;abs 0xc78
     c16:	34 44       	mov	@r4+,	r4	
     c18:	4c 00       	.word	0x004c;	????	
     c1a:	01 00       	.word	0x0001;	????	
     c1c:	5f 5f 44 45 	add.b	17732(r15),r15	;0x4544(r15)
     c20:	43 31       	jn	$+648    	;abs 0xea8
     c22:	32 38       	jl	$+102    	;abs 0xc88
     c24:	5f 45 50 53 	mov.b	21328(r5),r15	;0x5350(r5)
     c28:	49 4c       	mov.b	r12,	r9	
     c2a:	4f 4e       	mov.b	r14,	r15	
     c2c:	5f 5f 20 31 	add.b	12576(r15),r15	;0x3120(r15)
     c30:	45 2d       	jc	$+652    	;abs 0xebc
     c32:	33 33       	jn	$-408    	;abs 0xa9a
     c34:	44 4c       	mov.b	r12,	r4	
     c36:	00 01       	.word	0x0100;	????	
     c38:	00 5f       	add	r15,	r0	
     c3a:	5f 44 45 43 	mov.b	17221(r4),r15	;0x4345(r4)
     c3e:	31 32       	jn	$-924    	;abs 0x8a2
     c40:	38 5f       	add	@r15+,	r8	
     c42:	53 55       	.word	0x5553;	????	Illegal as 2-op instr
     c44:	42 4e       	mov.b	r14,	r2	
     c46:	4f 52       	add.b	r2,	r15	
     c48:	4d 41       	mov.b	r1,	r13	
     c4a:	4c 5f       	add.b	r15,	r12	
     c4c:	4d 49       	mov.b	r9,	r13	
     c4e:	4e 5f       	add.b	r15,	r14	
     c50:	5f 20       	jnz	$+192    	;abs 0xd10
     c52:	30 2e       	jc	$-926    	;abs 0x8b4
     c54:	30 30       	jn	$+98     	;abs 0xcb6
     c56:	30 30       	jn	$+98     	;abs 0xcb8
     c58:	30 30       	jn	$+98     	;abs 0xcba
     c5a:	30 30       	jn	$+98     	;abs 0xcbc
     c5c:	30 30       	jn	$+98     	;abs 0xcbe
     c5e:	30 30       	jn	$+98     	;abs 0xcc0
     c60:	30 30       	jn	$+98     	;abs 0xcc2
     c62:	30 30       	jn	$+98     	;abs 0xcc4
     c64:	30 30       	jn	$+98     	;abs 0xcc6
     c66:	30 30       	jn	$+98     	;abs 0xcc8
     c68:	30 30       	jn	$+98     	;abs 0xcca
     c6a:	30 30       	jn	$+98     	;abs 0xccc
     c6c:	30 30       	jn	$+98     	;abs 0xcce
     c6e:	30 30       	jn	$+98     	;abs 0xcd0
     c70:	30 30       	jn	$+98     	;abs 0xcd2
     c72:	30 30       	jn	$+98     	;abs 0xcd4
     c74:	31 45       	mov	@r5+,	r1	
     c76:	2d 36       	jge	$-932    	;abs 0x8d2
     c78:	31 34       	jge	$+100    	;abs 0xcdc
     c7a:	33 44       	.word	0x4433;	????	Illegal as 2-op instr
     c7c:	4c 00       	.word	0x004c;	????	
     c7e:	01 00       	.word	0x0001;	????	
     c80:	5f 5f 52 45 	add.b	17746(r15),r15	;0x4552(r15)
     c84:	47 49       	mov.b	r9,	r7	
     c86:	53 54       	.word	0x5453;	????	Illegal as 2-op instr
     c88:	45 52       	add.b	r2,	r5	
     c8a:	5f 50 52 45 	add.b	17746(r0),r15	;PC rel. 0x51de
     c8e:	46 49       	mov.b	r9,	r6	
     c90:	58 5f 5f 20 	add.b	8287(r15),r8	;0x205f(r15)
     c94:	00 01       	.word	0x0100;	????	
     c96:	00 5f       	add	r15,	r0	
     c98:	5f 55 53 45 	add.b	17747(r5),r15	;0x4553(r5)
     c9c:	52 5f 4c 41 	add.b	16716(r15),r2	;0x414c(r15)
     ca0:	42 45       	mov.b	r5,	r2	
     ca2:	4c 5f       	add.b	r15,	r12	
     ca4:	50 52 45 46 	add.b	&0x4645,r0	
     ca8:	49 58       	add.b	r8,	r9	
     caa:	5f 5f 20 00 	add.b	32(r15),r15	;0x0020(r15)
     cae:	01 00       	.word	0x0001;	????	
     cb0:	5f 5f 47 4e 	add.b	20039(r15),r15	;0x4e47(r15)
     cb4:	55 43       	mov.b	#1,	r5	;r3 As==01
     cb6:	5f 47 4e 55 	mov.b	21838(r7),r15	;0x554e(r7)
     cba:	5f 49 4e 4c 	mov.b	19534(r9),r15	;0x4c4e(r9)
     cbe:	49 4e       	mov.b	r14,	r9	
     cc0:	45 5f       	add.b	r15,	r5	
     cc2:	5f 20       	jnz	$+192    	;abs 0xd82
     cc4:	31 00       	.word	0x0031;	????	
     cc6:	01 00       	.word	0x0001;	????	
     cc8:	5f 5f 4e 4f 	add.b	20302(r15),r15	;0x4f4e(r15)
     ccc:	5f 49 4e 4c 	mov.b	19534(r9),r15	;0x4c4e(r9)
     cd0:	49 4e       	mov.b	r14,	r9	
     cd2:	45 5f       	add.b	r15,	r5	
     cd4:	5f 20       	jnz	$+192    	;abs 0xd94
     cd6:	31 00       	.word	0x0031;	????	
     cd8:	01 00       	.word	0x0001;	????	
     cda:	5f 5f 50 52 	add.b	21072(r15),r15	;0x5250(r15)
     cde:	41 47       	mov.b	r7,	r1	
     ce0:	4d 41       	mov.b	r1,	r13	
     ce2:	5f 52 45 44 	add.b	&0x4445,r15	
     ce6:	45 46       	mov.b	r6,	r5	
     ce8:	49 4e       	mov.b	r14,	r9	
     cea:	45 5f       	add.b	r15,	r5	
     cec:	45 58       	add.b	r8,	r5	
     cee:	54 4e 41 4d 	mov.b	19777(r14),r4	;0x4d41(r14)
     cf2:	45 20       	jnz	$+140    	;abs 0xd7e
     cf4:	31 00       	.word	0x0031;	????	
     cf6:	01 00       	.word	0x0001;	????	
     cf8:	5f 5f 53 49 	add.b	18771(r15),r15	;0x4953(r15)
     cfc:	5a 45 4f 46 	mov.b	17999(r5),r10	;0x464f(r5)
     d00:	5f 57 43 48 	add.b	18499(r7),r15	;0x4843(r7)
     d04:	41 52       	add.b	r2,	r1	
     d06:	5f 54 5f 5f 	add.b	24415(r4),r15	;0x5f5f(r4)
     d0a:	20 32       	jn	$-958    	;abs 0x94c
     d0c:	00 01       	.word	0x0100;	????	
     d0e:	00 5f       	add	r15,	r0	
     d10:	5f 53       	inc.b	r15		
     d12:	49 5a       	add.b	r10,	r9	
     d14:	45 4f       	mov.b	r15,	r5	
     d16:	46 5f       	add.b	r15,	r6	
     d18:	57 49 4e 54 	mov.b	21582(r9),r7	;0x544e(r9)
     d1c:	5f 54 5f 5f 	add.b	24415(r4),r15	;0x5f5f(r4)
     d20:	20 32       	jn	$-958    	;abs 0x962
     d22:	00 01       	.word	0x0100;	????	
     d24:	00 5f       	add	r15,	r0	
     d26:	5f 53       	inc.b	r15		
     d28:	49 5a       	add.b	r10,	r9	
     d2a:	45 4f       	mov.b	r15,	r5	
     d2c:	46 5f       	add.b	r15,	r6	
     d2e:	50 54 52 44 	add.b	17490(r4),r0	;0x4452(r4)
     d32:	49 46       	mov.b	r6,	r9	
     d34:	46 5f       	add.b	r15,	r6	
     d36:	54 5f 5f 20 	add.b	8287(r15),r4	;0x205f(r15)
     d3a:	34 00       	.word	0x0034;	????	
     d3c:	01 00       	.word	0x0001;	????	
     d3e:	5f 5f 4d 53 	add.b	21325(r15),r15	;0x534d(r15)
     d42:	50 34       	jge	$+162    	;abs 0xde4
     d44:	33 30       	jn	$+104    	;abs 0xdac
     d46:	20 31       	jn	$+578    	;abs 0xf88
     d48:	00 01       	.word	0x0100;	????	
     d4a:	00 5f       	add	r15,	r0	
     d4c:	5f 4d 53 50 	mov.b	20563(r13),r15	;0x5053(r13)
     d50:	34 33       	jn	$-406    	;abs 0xbba
     d52:	30 5f       	add	@r15+,	r0	
     d54:	5f 20       	jnz	$+192    	;abs 0xe14
     d56:	31 00       	.word	0x0031;	????	
     d58:	01 00       	.word	0x0001;	????	
     d5a:	4d 53       	add.b	#0,	r13	;r3 As==00
     d5c:	50 34       	jge	$+162    	;abs 0xdfe
     d5e:	33 30       	jn	$+104    	;abs 0xdc6
     d60:	20 31       	jn	$+578    	;abs 0xfa2
     d62:	00 01       	.word	0x0100;	????	
     d64:	00 4d       	br	r13		
     d66:	53 50       	.word	0x5053;	????	Illegal as 2-op instr
     d68:	34 33       	jn	$-406    	;abs 0xbd2
     d6a:	30 5f       	add	@r15+,	r0	
     d6c:	4e 4f       	mov.b	r15,	r14	
     d6e:	5f 48 57 4d 	mov.b	19799(r8),r15	;0x4d57(r8)
     d72:	55 4c 20 31 	mov.b	12576(r12),r5	;0x3120(r12)
     d76:	00 01       	.word	0x0100;	????	
     d78:	00 5f       	add	r15,	r0	
     d7a:	5f 4d 53 50 	mov.b	20563(r13),r15	;0x5053(r13)
     d7e:	47 43       	clr.b	r7		
     d80:	43 5f       	.word	0x5f43;	????	Illegal as 2-op instr
     d82:	5f 20       	jnz	$+192    	;abs 0xe42
     d84:	32 30       	jn	$+102    	;abs 0xdea
     d86:	31 32       	jn	$-924    	;abs 0x9ea
     d88:	30 34       	jge	$+98     	;abs 0xdea
     d8a:	30 36       	jge	$-926    	;abs 0x9ec
     d8c:	00 01       	.word	0x0100;	????	
     d8e:	00 5f       	add	r15,	r0	
     d90:	5f 4d 53 50 	mov.b	20563(r13),r15	;0x5053(r13)
     d94:	34 33       	jn	$-406    	;abs 0xbfe
     d96:	30 5f       	add	@r15+,	r0	
     d98:	43 50       	.word	0x5043;	????	Illegal as 2-op instr
     d9a:	55 5f 4d 53 	add.b	21325(r15),r5	;0x534d(r15)
     d9e:	50 34       	jge	$+162    	;abs 0xe40
     da0:	33 30       	jn	$+104    	;abs 0xe08
     da2:	5f 5f 20 30 	add.b	12320(r15),r15	;0x3020(r15)
     da6:	00 01       	.word	0x0100;	????	
     da8:	00 5f       	add	r15,	r0	
     daa:	5f 4d 53 50 	mov.b	20563(r13),r15	;0x5053(r13)
     dae:	34 33       	jn	$-406    	;abs 0xc18
     db0:	30 5f       	add	@r15+,	r0	
     db2:	43 50       	.word	0x5043;	????	Illegal as 2-op instr
     db4:	55 5f 4d 53 	add.b	21325(r15),r5	;0x534d(r15)
     db8:	50 34       	jge	$+162    	;abs 0xe5a
     dba:	33 30       	jn	$+104    	;abs 0xe22
     dbc:	58 5f 5f 20 	add.b	8287(r15),r8	;0x205f(r15)
     dc0:	32 00       	.word	0x0032;	????	
     dc2:	01 00       	.word	0x0001;	????	
     dc4:	5f 5f 4d 53 	add.b	21325(r15),r15	;0x534d(r15)
     dc8:	50 34       	jge	$+162    	;abs 0xe6a
     dca:	33 30       	jn	$+104    	;abs 0xe32
     dcc:	5f 43       	mov.b	#1,	r15	;r3 As==01
     dce:	50 55 5f 4d 	add.b	19807(r5),r0	;0x4d5f(r5)
     dd2:	53 50       	.word	0x5053;	????	Illegal as 2-op instr
     dd4:	34 33       	jn	$-406    	;abs 0xc3e
     dd6:	30 58       	add	@r8+,	r0	
     dd8:	56 32       	jn	$-850    	;abs 0xa86
     dda:	5f 5f 20 33 	add.b	13088(r15),r15	;0x3320(r15)
     dde:	00 01       	.word	0x0100;	????	
     de0:	00 5f       	add	r15,	r0	
     de2:	5f 4d 53 50 	mov.b	20563(r13),r15	;0x5053(r13)
     de6:	34 33       	jn	$-406    	;abs 0xc50
     de8:	30 5f       	add	@r15+,	r0	
     dea:	4d 50       	add.b	r0,	r13	
     dec:	59 5f 4e 4f 	add.b	20302(r15),r9	;0x4f4e(r15)
     df0:	4e 45       	mov.b	r5,	r14	
     df2:	5f 5f 20 30 	add.b	12320(r15),r15	;0x3020(r15)
     df6:	00 01       	.word	0x0100;	????	
     df8:	00 5f       	add	r15,	r0	
     dfa:	5f 4d 53 50 	mov.b	20563(r13),r15	;0x5053(r13)
     dfe:	34 33       	jn	$-406    	;abs 0xc68
     e00:	30 5f       	add	@r15+,	r0	
     e02:	4d 50       	add.b	r0,	r13	
     e04:	59 5f 54 59 	add.b	22868(r15),r9	;0x5954(r15)
     e08:	50 45 5f 31 	br	12639(r5)	;0x315f(r5)
     e0c:	36 5f       	add	@r15+,	r6	
     e0e:	5f 20       	jnz	$+192    	;abs 0xece
     e10:	31 36       	jge	$-924    	;abs 0xa74
     e12:	00 01       	.word	0x0100;	????	
     e14:	00 5f       	add	r15,	r0	
     e16:	5f 4d 53 50 	mov.b	20563(r13),r15	;0x5053(r13)
     e1a:	34 33       	jn	$-406    	;abs 0xc84
     e1c:	30 5f       	add	@r15+,	r0	
     e1e:	4d 50       	add.b	r0,	r13	
     e20:	59 5f 54 59 	add.b	22868(r15),r9	;0x5954(r15)
     e24:	50 45 5f 33 	br	13151(r5)	;0x335f(r5)
     e28:	32 5f       	add	@r15+,	r2	
     e2a:	5f 20       	jnz	$+192    	;abs 0xeea
     e2c:	33 32       	jn	$-920    	;abs 0xa94
     e2e:	00 01       	.word	0x0100;	????	
     e30:	00 5f       	add	r15,	r0	
     e32:	5f 4d 53 50 	mov.b	20563(r13),r15	;0x5053(r13)
     e36:	34 33       	jn	$-406    	;abs 0xca0
     e38:	30 5f       	add	@r15+,	r0	
     e3a:	4d 50       	add.b	r0,	r13	
     e3c:	59 5f 54 59 	add.b	22868(r15),r9	;0x5954(r15)
     e40:	50 45 5f 41 	br	16735(r5)	;0x415f(r5)
     e44:	4e 59       	add.b	r9,	r14	
     e46:	5f 5f 20 34 	add.b	13344(r15),r15	;0x3420(r15)
     e4a:	38 00       	.word	0x0038;	????	
     e4c:	01 00       	.word	0x0001;	????	
     e4e:	5f 5f 4d 53 	add.b	21325(r15),r15	;0x534d(r15)
     e52:	50 34       	jge	$+162    	;abs 0xef4
     e54:	33 30       	jn	$+104    	;abs 0xebc
     e56:	5f 4d 50 59 	mov.b	22864(r13),r15	;0x5950(r13)
     e5a:	5f 48 41 53 	mov.b	21313(r8),r15	;0x5341(r8)
     e5e:	5f 53       	inc.b	r15		
     e60:	45 5f       	add.b	r15,	r5	
     e62:	5f 20       	jnz	$+192    	;abs 0xf22
     e64:	31 00       	.word	0x0031;	????	
     e66:	01 00       	.word	0x0001;	????	
     e68:	5f 5f 4d 53 	add.b	21325(r15),r15	;0x534d(r15)
     e6c:	50 34       	jge	$+162    	;abs 0xf0e
     e6e:	33 30       	jn	$+104    	;abs 0xed6
     e70:	5f 4d 50 59 	mov.b	22864(r13),r15	;0x5950(r13)
     e74:	5f 48 41 53 	mov.b	21313(r8),r15	;0x5341(r8)
     e78:	5f 44 57 5f 	mov.b	24407(r4),r15	;0x5f57(r4)
     e7c:	5f 20       	jnz	$+192    	;abs 0xf3c
     e7e:	32 00       	.word	0x0032;	????	
     e80:	01 00       	.word	0x0001;	????	
     e82:	5f 5f 4d 53 	add.b	21325(r15),r15	;0x534d(r15)
     e86:	50 34       	jge	$+162    	;abs 0xf28
     e88:	33 30       	jn	$+104    	;abs 0xef0
     e8a:	5f 4d 50 59 	mov.b	22864(r13),r15	;0x5950(r13)
     e8e:	5f 31       	jn	$+704    	;abs 0x114e
     e90:	36 5f       	add	@r15+,	r6	
     e92:	5f 20       	jnz	$+192    	;abs 0xf52
     e94:	31 36       	jge	$-924    	;abs 0xaf8
     e96:	00 01       	.word	0x0100;	????	
     e98:	00 5f       	add	r15,	r0	
     e9a:	5f 4d 53 50 	mov.b	20563(r13),r15	;0x5053(r13)
     e9e:	34 33       	jn	$-406    	;abs 0xd08
     ea0:	30 5f       	add	@r15+,	r0	
     ea2:	4d 50       	add.b	r0,	r13	
     ea4:	59 5f 31 36 	add.b	13873(r15),r9	;0x3631(r15)
     ea8:	53 45       	.word	0x4553;	????	Illegal as 2-op instr
     eaa:	5f 5f 20 31 	add.b	12576(r15),r15	;0x3120(r15)
     eae:	37 00       	.word	0x0037;	????	
     eb0:	01 00       	.word	0x0001;	????	
     eb2:	5f 5f 4d 53 	add.b	21325(r15),r15	;0x534d(r15)
     eb6:	50 34       	jge	$+162    	;abs 0xf58
     eb8:	33 30       	jn	$+104    	;abs 0xf20
     eba:	5f 4d 50 59 	mov.b	22864(r13),r15	;0x5950(r13)
     ebe:	5f 33       	jn	$-320    	;abs 0xd7e
     ec0:	32 5f       	add	@r15+,	r2	
     ec2:	5f 20       	jnz	$+192    	;abs 0xf82
     ec4:	34 39       	jl	$+618    	;abs 0x112e
     ec6:	00 01       	.word	0x0100;	????	
     ec8:	00 5f       	add	r15,	r0	
     eca:	5f 4d 53 50 	mov.b	20563(r13),r15	;0x5053(r13)
     ece:	34 33       	jn	$-406    	;abs 0xd38
     ed0:	30 5f       	add	@r15+,	r0	
     ed2:	4d 50       	add.b	r0,	r13	
     ed4:	59 5f 33 32 	add.b	12851(r15),r9	;0x3233(r15)
     ed8:	44 57       	add.b	r7,	r4	
     eda:	5f 5f 20 35 	add.b	13600(r15),r15	;0x3520(r15)
     ede:	31 00       	.word	0x0031;	????	
     ee0:	01 00       	.word	0x0001;	????	
     ee2:	5f 5f 4d 53 	add.b	21325(r15),r15	;0x534d(r15)
     ee6:	50 34       	jge	$+162    	;abs 0xf88
     ee8:	33 30       	jn	$+104    	;abs 0xf50
     eea:	5f 43       	mov.b	#1,	r15	;r3 As==01
     eec:	50 55 5f 5f 	add.b	24415(r5),r0	;0x5f5f(r5)
     ef0:	20 30       	jn	$+66     	;abs 0xf32
     ef2:	00 01       	.word	0x0100;	????	
     ef4:	00 5f       	add	r15,	r0	
     ef6:	5f 4d 53 50 	mov.b	20563(r13),r15	;0x5053(r13)
     efa:	34 33       	jn	$-406    	;abs 0xd64
     efc:	30 5f       	add	@r15+,	r0	
     efe:	49 56       	add.b	r6,	r9	
     f00:	43 4e       	.word	0x4e43;	????	Illegal as 2-op instr
     f02:	54 5f 5f 20 	add.b	8287(r15),r4	;0x205f(r15)
     f06:	31 36       	jge	$-924    	;abs 0xb6a
     f08:	00 01       	.word	0x0100;	????	
     f0a:	00 5f       	add	r15,	r0	
     f0c:	5f 69 6e 74 	addc.b	29806(r9),r15	;0x746e(r9)
     f10:	65 72       	subc.b	#4,	r5	;r2 As==10
     f12:	72 75       	subc.b	@r5+,	r2	
     f14:	70 74       	subc.b	@r4+,	r0	
     f16:	20 5f       	add	@r15,	r0	
     f18:	5f 61 74 74 	addc.b	29812(r1),r15	;0x7474(r1)
     f1c:	72 69       	addc.b	@r9+,	r2	
     f1e:	62 75       	subc.b	@r5,	r2	
     f20:	74 65       	addc.b	@r5+,	r4	
     f22:	5f 5f 28 28 	add.b	10280(r15),r15	;0x2828(r15)
     f26:	5f 5f 69 6e 	add.b	28265(r15),r15	;0x6e69(r15)
     f2a:	74 65       	addc.b	@r5+,	r4	
     f2c:	72 72       	subc.b	#8,	r2	;r2 As==11
     f2e:	75 70 74 5f 	subc.b	#24436,	r5	;#0x5f74
     f32:	5f 29       	jnc	$+704    	;abs 0x11f2
     f34:	29 00       	.word	0x0029;	????	
     f36:	01 00       	.word	0x0001;	????	
     f38:	5f 5f 4d 53 	add.b	21325(r15),r15	;0x534d(r15)
     f3c:	50 34       	jge	$+162    	;abs 0xfde
     f3e:	33 30       	jn	$+104    	;abs 0xfa6
     f40:	47 32       	jn	$-880    	;abs 0xbd0
     f42:	35 35       	jge	$+620    	;abs 0x11ae
     f44:	33 5f       	.word	0x5f33;	????	Illegal as 2-op instr
     f46:	5f 20       	jnz	$+192    	;abs 0x1006
     f48:	31 00       	.word	0x0031;	????	
     f4a:	03 00       	.word	0x0003;	????	
     f4c:	01 03       	.word	0x0301;	????	
     f4e:	14 04       	.word	0x0414;	????	
     f50:	01 0d       	.word	0x0d01;	????	
     f52:	5f 5f 6d 73 	add.b	29549(r15),r15	;0x736d(r15)
     f56:	70 34       	jge	$+226    	;abs 0x1038
     f58:	33 30       	jn	$+104    	;abs 0xfc0
     f5a:	5f 68 5f 20 	addc.b	8287(r8),r15	;0x205f(r8)
     f5e:	00 01       	.word	0x0100;	????	
     f60:	10 5f 5f 4d 	add	19807(r15),r0	;0x4d5f(r15)
     f64:	53 50       	.word	0x5053;	????	Illegal as 2-op instr
     f66:	34 33       	jn	$-406    	;abs 0xdd0
     f68:	30 4d       	br	@r13+		
     f6a:	43 55       	.word	0x5543;	????	Illegal as 2-op instr
     f6c:	5f 55 50 53 	add.b	21328(r5),r15	;0x5350(r5)
     f70:	54 52 45 41 	add.b	&0x4145,r4	
     f74:	4d 5f       	add.b	r15,	r13	
     f76:	5f 20       	jnz	$+192    	;abs 0x1036
     f78:	32 30       	jn	$+102    	;abs 0xfde
     f7a:	31 32       	jn	$-924    	;abs 0xbde
     f7c:	30 33       	jn	$-414    	;abs 0xdde
     f7e:	33 30       	jn	$+104    	;abs 0xfe6
     f80:	00 01       	.word	0x0100;	????	
     f82:	12 5f 5f 4d 	add	19807(r15),r2	;0x4d5f(r15)
     f86:	53 50       	.word	0x5053;	????	Illegal as 2-op instr
     f88:	34 33       	jn	$-406    	;abs 0xdf2
     f8a:	30 4d       	br	@r13+		
     f8c:	43 55       	.word	0x5543;	????	Illegal as 2-op instr
     f8e:	5f 5f 20 32 	add.b	12832(r15),r15	;0x3220(r15)
     f92:	30 31       	jn	$+610    	;abs 0x11f4
     f94:	32 30       	jn	$+102    	;abs 0xffa
     f96:	34 30       	jn	$+106    	;abs 0x1000
     f98:	36 00       	.word	0x0036;	????	
     f9a:	01 16       	.word	0x1601;	????	
     f9c:	4d 53       	add.b	#0,	r13	;r3 As==00
     f9e:	50 34       	jge	$+162    	;abs 0x1040
     fa0:	33 30       	jn	$+104    	;abs 0x1008
     fa2:	5f 43       	mov.b	#1,	r15	;r3 As==01
     fa4:	50 55 5f 4d 	add.b	19807(r5),r0	;0x4d5f(r5)
     fa8:	53 50       	.word	0x5053;	????	Illegal as 2-op instr
     faa:	34 33       	jn	$-406    	;abs 0xe14
     fac:	30 20       	jnz	$+98     	;abs 0x100e
     fae:	30 78       	subc	@r8+,	r0	
     fb0:	30 30       	jn	$+98     	;abs 0x1012
     fb2:	30 30       	jn	$+98     	;abs 0x1014
     fb4:	00 01       	.word	0x0100;	????	
     fb6:	17 4d 53 50 	mov	20563(r13),r7	;0x5053(r13)
     fba:	34 33       	jn	$-406    	;abs 0xe24
     fbc:	30 5f       	add	@r15+,	r0	
     fbe:	43 50       	.word	0x5043;	????	Illegal as 2-op instr
     fc0:	55 5f 4d 53 	add.b	21325(r15),r5	;0x534d(r15)
     fc4:	50 34       	jge	$+162    	;abs 0x1066
     fc6:	33 30       	jn	$+104    	;abs 0x102e
     fc8:	58 20       	jnz	$+178    	;abs 0x107a
     fca:	30 78       	subc	@r8+,	r0	
     fcc:	30 30       	jn	$+98     	;abs 0x102e
     fce:	30 32       	jn	$-926    	;abs 0xc30
     fd0:	00 01       	.word	0x0100;	????	
     fd2:	18 4d 53 50 	mov	20563(r13),r8	;0x5053(r13)
     fd6:	34 33       	jn	$-406    	;abs 0xe40
     fd8:	30 5f       	add	@r15+,	r0	
     fda:	43 50       	.word	0x5043;	????	Illegal as 2-op instr
     fdc:	55 5f 4d 53 	add.b	21325(r15),r5	;0x534d(r15)
     fe0:	50 34       	jge	$+162    	;abs 0x1082
     fe2:	33 30       	jn	$+104    	;abs 0x104a
     fe4:	58 56 32 20 	add.b	8242(r6),r8	;0x2032(r6)
     fe8:	30 78       	subc	@r8+,	r0	
     fea:	30 30       	jn	$+98     	;abs 0x104c
     fec:	30 33       	jn	$-414    	;abs 0xe4e
     fee:	00 01       	.word	0x0100;	????	
     ff0:	1c 4d 53 50 	mov	20563(r13),r12	;0x5053(r13)
     ff4:	34 33       	jn	$-406    	;abs 0xe5e
     ff6:	30 5f       	add	@r15+,	r0	
     ff8:	4d 50       	add.b	r0,	r13	
     ffa:	59 5f 4e 4f 	add.b	20302(r15),r9	;0x4f4e(r15)
     ffe:	4e 45       	mov.b	r5,	r14	
    1000:	20 30       	jn	$+66     	;abs 0x1042
    1002:	78 30       	jn	$+242    	;abs 0x10f4
    1004:	30 30       	jn	$+98     	;abs 0x1066
    1006:	30 00       	.word	0x0030;	????	
    1008:	01 1d       	.word	0x1d01;	????	
    100a:	4d 53       	add.b	#0,	r13	;r3 As==00
    100c:	50 34       	jge	$+162    	;abs 0x10ae
    100e:	33 30       	jn	$+104    	;abs 0x1076
    1010:	5f 4d 50 59 	mov.b	22864(r13),r15	;0x5950(r13)
    1014:	5f 54 59 50 	add.b	20569(r4),r15	;0x5059(r4)
    1018:	45 5f       	add.b	r15,	r5	
    101a:	31 36       	jge	$-924    	;abs 0xc7e
    101c:	20 30       	jn	$+66     	;abs 0x105e
    101e:	78 30       	jn	$+242    	;abs 0x1110
    1020:	30 31       	jn	$+610    	;abs 0x1282
    1022:	30 00       	.word	0x0030;	????	
    1024:	01 1e       	.word	0x1e01;	????	
    1026:	4d 53       	add.b	#0,	r13	;r3 As==00
    1028:	50 34       	jge	$+162    	;abs 0x10ca
    102a:	33 30       	jn	$+104    	;abs 0x1092
    102c:	5f 4d 50 59 	mov.b	22864(r13),r15	;0x5950(r13)
    1030:	5f 54 59 50 	add.b	20569(r4),r15	;0x5059(r4)
    1034:	45 5f       	add.b	r15,	r5	
    1036:	33 32       	jn	$-920    	;abs 0xc9e
    1038:	20 30       	jn	$+66     	;abs 0x107a
    103a:	78 30       	jn	$+242    	;abs 0x112c
    103c:	30 32       	jn	$-926    	;abs 0xc9e
    103e:	30 00       	.word	0x0030;	????	
    1040:	01 1f       	.word	0x1f01;	????	
    1042:	4d 53       	add.b	#0,	r13	;r3 As==00
    1044:	50 34       	jge	$+162    	;abs 0x10e6
    1046:	33 30       	jn	$+104    	;abs 0x10ae
    1048:	5f 4d 50 59 	mov.b	22864(r13),r15	;0x5950(r13)
    104c:	5f 54 59 50 	add.b	20569(r4),r15	;0x5059(r4)
    1050:	45 5f       	add.b	r15,	r5	
    1052:	41 4e       	mov.b	r14,	r1	
    1054:	59 20       	jnz	$+180    	;abs 0x1108
    1056:	30 78       	subc	@r8+,	r0	
    1058:	30 30       	jn	$+98     	;abs 0x10ba
    105a:	33 30       	jn	$+104    	;abs 0x10c2
    105c:	00 01       	.word	0x0100;	????	
    105e:	20 4d       	br	@r13		
    1060:	53 50       	.word	0x5053;	????	Illegal as 2-op instr
    1062:	34 33       	jn	$-406    	;abs 0xecc
    1064:	30 5f       	add	@r15+,	r0	
    1066:	4d 50       	add.b	r0,	r13	
    1068:	59 5f 48 41 	add.b	16712(r15),r9	;0x4148(r15)
    106c:	53 5f       	.word	0x5f53;	????	Illegal as 2-op instr
    106e:	53 45       	.word	0x4553;	????	Illegal as 2-op instr
    1070:	20 30       	jn	$+66     	;abs 0x10b2
    1072:	78 30       	jn	$+242    	;abs 0x1164
    1074:	30 30       	jn	$+98     	;abs 0x10d6
    1076:	31 00       	.word	0x0031;	????	
    1078:	01 21       	jnz	$+516    	;abs 0x127c
    107a:	4d 53       	add.b	#0,	r13	;r3 As==00
    107c:	50 34       	jge	$+162    	;abs 0x111e
    107e:	33 30       	jn	$+104    	;abs 0x10e6
    1080:	5f 4d 50 59 	mov.b	22864(r13),r15	;0x5950(r13)
    1084:	5f 48 41 53 	mov.b	21313(r8),r15	;0x5341(r8)
    1088:	5f 44 57 20 	mov.b	8279(r4),r15	;0x2057(r4)
    108c:	30 78       	subc	@r8+,	r0	
    108e:	30 30       	jn	$+98     	;abs 0x10f0
    1090:	30 32       	jn	$-926    	;abs 0xcf2
    1092:	00 01       	.word	0x0100;	????	
    1094:	22 4d       	mov	@r13,	r2	
    1096:	53 50       	.word	0x5053;	????	Illegal as 2-op instr
    1098:	34 33       	jn	$-406    	;abs 0xf02
    109a:	30 5f       	add	@r15+,	r0	
    109c:	4d 50       	add.b	r0,	r13	
    109e:	59 5f 31 36 	add.b	13873(r15),r9	;0x3631(r15)
    10a2:	20 4d       	br	@r13		
    10a4:	53 50       	.word	0x5053;	????	Illegal as 2-op instr
    10a6:	34 33       	jn	$-406    	;abs 0xf10
    10a8:	30 5f       	add	@r15+,	r0	
    10aa:	4d 50       	add.b	r0,	r13	
    10ac:	59 5f 54 59 	add.b	22868(r15),r9	;0x5954(r15)
    10b0:	50 45 5f 31 	br	12639(r5)	;0x315f(r5)
    10b4:	36 00       	.word	0x0036;	????	
    10b6:	01 23       	jnz	$-508    	;abs 0xeba
    10b8:	4d 53       	add.b	#0,	r13	;r3 As==00
    10ba:	50 34       	jge	$+162    	;abs 0x115c
    10bc:	33 30       	jn	$+104    	;abs 0x1124
    10be:	5f 4d 50 59 	mov.b	22864(r13),r15	;0x5950(r13)
    10c2:	5f 31       	jn	$+704    	;abs 0x1382
    10c4:	36 53       	add	#-1,	r6	;r3 As==11
    10c6:	45 20       	jnz	$+140    	;abs 0x1152
    10c8:	28 4d       	mov	@r13,	r8	
    10ca:	53 50       	.word	0x5053;	????	Illegal as 2-op instr
    10cc:	34 33       	jn	$-406    	;abs 0xf36
    10ce:	30 5f       	add	@r15+,	r0	
    10d0:	4d 50       	add.b	r0,	r13	
    10d2:	59 5f 31 36 	add.b	13873(r15),r9	;0x3631(r15)
    10d6:	20 7c       	subc	@r12,	r0	
    10d8:	20 4d       	br	@r13		
    10da:	53 50       	.word	0x5053;	????	Illegal as 2-op instr
    10dc:	34 33       	jn	$-406    	;abs 0xf46
    10de:	30 5f       	add	@r15+,	r0	
    10e0:	4d 50       	add.b	r0,	r13	
    10e2:	59 5f 48 41 	add.b	16712(r15),r9	;0x4148(r15)
    10e6:	53 5f       	.word	0x5f53;	????	Illegal as 2-op instr
    10e8:	53 45       	.word	0x4553;	????	Illegal as 2-op instr
    10ea:	29 00       	.word	0x0029;	????	
    10ec:	01 24       	jz	$+4      	;abs 0x10f0
    10ee:	4d 53       	add.b	#0,	r13	;r3 As==00
    10f0:	50 34       	jge	$+162    	;abs 0x1192
    10f2:	33 30       	jn	$+104    	;abs 0x115a
    10f4:	5f 4d 50 59 	mov.b	22864(r13),r15	;0x5950(r13)
    10f8:	5f 33       	jn	$-320    	;abs 0xfb8
    10fa:	32 20       	jnz	$+102    	;abs 0x1160
    10fc:	28 4d       	mov	@r13,	r8	
    10fe:	53 50       	.word	0x5053;	????	Illegal as 2-op instr
    1100:	34 33       	jn	$-406    	;abs 0xf6a
    1102:	30 5f       	add	@r15+,	r0	
    1104:	4d 50       	add.b	r0,	r13	
    1106:	59 5f 54 59 	add.b	22868(r15),r9	;0x5954(r15)
    110a:	50 45 5f 31 	br	12639(r5)	;0x315f(r5)
    110e:	36 20       	jnz	$+110    	;abs 0x117c
    1110:	7c 20       	jnz	$+250    	;abs 0x120a
    1112:	4d 53       	add.b	#0,	r13	;r3 As==00
    1114:	50 34       	jge	$+162    	;abs 0x11b6
    1116:	33 30       	jn	$+104    	;abs 0x117e
    1118:	5f 4d 50 59 	mov.b	22864(r13),r15	;0x5950(r13)
    111c:	5f 54 59 50 	add.b	20569(r4),r15	;0x5059(r4)
    1120:	45 5f       	add.b	r15,	r5	
    1122:	33 32       	jn	$-920    	;abs 0xd8a
    1124:	20 7c       	subc	@r12,	r0	
    1126:	20 4d       	br	@r13		
    1128:	53 50       	.word	0x5053;	????	Illegal as 2-op instr
    112a:	34 33       	jn	$-406    	;abs 0xf94
    112c:	30 5f       	add	@r15+,	r0	
    112e:	4d 50       	add.b	r0,	r13	
    1130:	59 5f 48 41 	add.b	16712(r15),r9	;0x4148(r15)
    1134:	53 5f       	.word	0x5f53;	????	Illegal as 2-op instr
    1136:	53 45       	.word	0x4553;	????	Illegal as 2-op instr
    1138:	29 00       	.word	0x0029;	????	
    113a:	01 25       	jz	$+516    	;abs 0x133e
    113c:	4d 53       	add.b	#0,	r13	;r3 As==00
    113e:	50 34       	jge	$+162    	;abs 0x11e0
    1140:	33 30       	jn	$+104    	;abs 0x11a8
    1142:	5f 4d 50 59 	mov.b	22864(r13),r15	;0x5950(r13)
    1146:	5f 33       	jn	$-320    	;abs 0x1006
    1148:	32 44       	mov	@r4+,	r2	
    114a:	57 20       	jnz	$+176    	;abs 0x11fa
    114c:	28 4d       	mov	@r13,	r8	
    114e:	53 50       	.word	0x5053;	????	Illegal as 2-op instr
    1150:	34 33       	jn	$-406    	;abs 0xfba
    1152:	30 5f       	add	@r15+,	r0	
    1154:	4d 50       	add.b	r0,	r13	
    1156:	59 5f 33 32 	add.b	12851(r15),r9	;0x3233(r15)
    115a:	20 7c       	subc	@r12,	r0	
    115c:	20 4d       	br	@r13		
    115e:	53 50       	.word	0x5053;	????	Illegal as 2-op instr
    1160:	34 33       	jn	$-406    	;abs 0xfca
    1162:	30 5f       	add	@r15+,	r0	
    1164:	4d 50       	add.b	r0,	r13	
    1166:	59 5f 48 41 	add.b	16712(r15),r9	;0x4148(r15)
    116a:	53 5f       	.word	0x5f53;	????	Illegal as 2-op instr
    116c:	44 57       	add.b	r7,	r4	
    116e:	29 00       	.word	0x0029;	????	
    1170:	03 ca       	.word	0xca03;	????	Illegal as 2-op instr
    1172:	02 03       	.word	0x0302;	????	
    1174:	01 30       	jn	$+4      	;abs 0x1178
    1176:	5f 5f 4d 53 	add.b	21325(r15),r15	;0x534d(r15)
    117a:	50 34       	jge	$+162    	;abs 0x121c
    117c:	33 30       	jn	$+104    	;abs 0x11e4
    117e:	47 32       	jn	$-880    	;abs 0xe0e
    1180:	35 35       	jge	$+620    	;abs 0x13ec
    1182:	33 20       	jnz	$+104    	;abs 0x11ea
    1184:	00 01       	.word	0x0100;	????	
    1186:	32 5f       	add	@r15+,	r2	
    1188:	5f 4d 53 50 	mov.b	20563(r13),r15	;0x5053(r13)
    118c:	34 33       	jn	$-406    	;abs 0xff6
    118e:	30 5f       	add	@r15+,	r0	
    1190:	48 45       	mov.b	r5,	r8	
    1192:	41 44       	mov.b	r4,	r1	
    1194:	45 52       	add.b	r2,	r5	
    1196:	5f 56 45 52 	add.b	21061(r6),r15	;0x5245(r6)
    119a:	53 49       	.word	0x4953;	????	Illegal as 2-op instr
    119c:	4f 4e       	mov.b	r14,	r15	
    119e:	5f 5f 20 31 	add.b	12576(r15),r15	;0x3120(r15)
    11a2:	30 36       	jge	$-926    	;abs 0xe04
    11a4:	34 00       	.word	0x0034;	????	
    11a6:	01 34       	jge	$+4      	;abs 0x11aa
    11a8:	5f 5f 4d 53 	add.b	21325(r15),r15	;0x534d(r15)
    11ac:	50 34       	jge	$+162    	;abs 0x124e
    11ae:	33 30       	jn	$+104    	;abs 0x1216
    11b0:	5f 54 49 5f 	add.b	24393(r4),r15	;0x5f49(r4)
    11b4:	48 45       	mov.b	r5,	r8	
    11b6:	41 44       	mov.b	r4,	r1	
    11b8:	45 52       	add.b	r2,	r5	
    11ba:	53 5f       	.word	0x5f53;	????	Illegal as 2-op instr
    11bc:	5f 20       	jnz	$+192    	;abs 0x127c
    11be:	00 03       	.word	0x0300;	????	
    11c0:	3a 05       	.word	0x053a;	????	
    11c2:	01 25       	jz	$+516    	;abs 0x13c6
    11c4:	5f 5f 4d 53 	add.b	21325(r15),r15	;0x534d(r15)
    11c8:	50 34       	jge	$+162    	;abs 0x126a
    11ca:	33 30       	jn	$+104    	;abs 0x1232
    11cc:	5f 49 4f 4d 	mov.b	19791(r9),r15	;0x4d4f(r9)
    11d0:	41 43       	clr.b	r1		
    11d2:	52 4f 53 5f 	mov.b	24403(r15),r2	;0x5f53(r15)
    11d6:	48 5f       	add.b	r15,	r8	
    11d8:	20 00       	.word	0x0020;	????	
    11da:	01 33       	jn	$-508    	;abs 0xfde
    11dc:	73 66       	.word	0x6673;	????	Illegal as 2-op instr
    11de:	72 62       	addc.b	#8,	r2	;r2 As==11
    11e0:	5f 28       	jnc	$+192    	;abs 0x12a0
    11e2:	78 2c       	jc	$+242    	;abs 0x12d4
    11e4:	78 5f       	add.b	@r15+,	r8	
    11e6:	29 20       	jnz	$+84     	;abs 0x123a
    11e8:	76 6f       	addc.b	@r15+,	r6	
    11ea:	6c 61       	addc.b	@r1,	r12	
    11ec:	74 69       	addc.b	@r9+,	r4	
    11ee:	6c 65       	addc.b	@r5,	r12	
    11f0:	20 75       	subc	@r5,	r0	
    11f2:	6e 73       	subc.b	#2,	r14	;r3 As==10
    11f4:	69 67       	addc.b	@r7,	r9	
    11f6:	6e 65       	addc.b	@r5,	r14	
    11f8:	64 20       	jnz	$+202    	;abs 0x12c2
    11fa:	63 68       	.word	0x6863;	????	Illegal as 2-op instr
    11fc:	61 72       	subc.b	#4,	r1	;r2 As==10
    11fe:	20 78       	subc	@r8,	r0	
    1200:	20 5f       	add	@r15,	r0	
    1202:	5f 61 73 6d 	addc.b	28019(r1),r15	;0x6d73(r1)
    1206:	5f 5f 28 22 	add.b	8744(r15),r15	;0x2228(r15)
    120a:	5f 5f 22 20 	add.b	8226(r15),r15	;0x2022(r15)
    120e:	23 78       	.word	0x7823;	????	Illegal as 2-op instr
    1210:	29 00       	.word	0x0029;	????	
    1212:	01 34       	jge	$+4      	;abs 0x1216
    1214:	73 66       	.word	0x6673;	????	Illegal as 2-op instr
    1216:	72 62       	addc.b	#8,	r2	;r2 As==11
    1218:	28 78       	subc	@r8,	r8	
    121a:	2c 78       	subc	@r8,	r12	
    121c:	5f 29       	jnc	$+704    	;abs 0x14dc
    121e:	20 65       	addc	@r5,	r0	
    1220:	78 74       	subc.b	@r4+,	r8	
    1222:	65 72       	subc.b	#4,	r5	;r2 As==10
    1224:	6e 20       	jnz	$+222    	;abs 0x1302
    1226:	73 66       	.word	0x6673;	????	Illegal as 2-op instr
    1228:	72 62       	addc.b	#8,	r2	;r2 As==11
    122a:	5f 28       	jnc	$+192    	;abs 0x12ea
    122c:	78 2c       	jc	$+242    	;abs 0x131e
    122e:	78 5f       	add.b	@r15+,	r8	
    1230:	29 00       	.word	0x0029;	????	
    1232:	01 36       	jge	$-1020   	;abs 0xe36
    1234:	73 66       	.word	0x6673;	????	Illegal as 2-op instr
    1236:	72 77       	subc.b	@r7+,	r2	
    1238:	5f 28       	jnc	$+192    	;abs 0x12f8
    123a:	78 2c       	jc	$+242    	;abs 0x132c
    123c:	78 5f       	add.b	@r15+,	r8	
    123e:	29 20       	jnz	$+84     	;abs 0x1292
    1240:	76 6f       	addc.b	@r15+,	r6	
    1242:	6c 61       	addc.b	@r1,	r12	
    1244:	74 69       	addc.b	@r9+,	r4	
    1246:	6c 65       	addc.b	@r5,	r12	
    1248:	20 75       	subc	@r5,	r0	
    124a:	6e 73       	subc.b	#2,	r14	;r3 As==10
    124c:	69 67       	addc.b	@r7,	r9	
    124e:	6e 65       	addc.b	@r5,	r14	
    1250:	64 20       	jnz	$+202    	;abs 0x131a
    1252:	69 6e       	addc.b	@r14,	r9	
    1254:	74 20       	jnz	$+234    	;abs 0x133e
    1256:	78 20       	jnz	$+242    	;abs 0x1348
    1258:	5f 5f 61 73 	add.b	29537(r15),r15	;0x7361(r15)
    125c:	6d 5f       	add.b	@r15,	r13	
    125e:	5f 28       	jnc	$+192    	;abs 0x131e
    1260:	22 5f       	add	@r15,	r2	
    1262:	5f 22       	jnz	$-832    	;abs 0xf22
    1264:	20 23       	jnz	$-446    	;abs 0x10a6
    1266:	78 29       	jnc	$+754    	;abs 0x1558
    1268:	00 01       	.word	0x0100;	????	
    126a:	37 73       	subc	#-1,	r7	;r3 As==11
    126c:	66 72       	subc.b	#4,	r6	;r2 As==10
    126e:	77 28       	jnc	$+240    	;abs 0x135e
    1270:	78 2c       	jc	$+242    	;abs 0x1362
    1272:	78 5f       	add.b	@r15+,	r8	
    1274:	29 20       	jnz	$+84     	;abs 0x12c8
    1276:	65 78       	subc.b	@r8,	r5	
    1278:	74 65       	addc.b	@r5+,	r4	
    127a:	72 6e       	addc.b	@r14+,	r2	
    127c:	20 73       	subc	#2,	r0	;r3 As==10
    127e:	66 72       	subc.b	#4,	r6	;r2 As==10
    1280:	77 5f       	add.b	@r15+,	r7	
    1282:	28 78       	subc	@r8,	r8	
    1284:	2c 78       	subc	@r8,	r12	
    1286:	5f 29       	jnc	$+704    	;abs 0x1546
    1288:	00 01       	.word	0x0100;	????	
    128a:	39 73       	subc	#-1,	r9	;r3 As==11
    128c:	66 72       	subc.b	#4,	r6	;r2 As==10
    128e:	61 5f       	add.b	@r15,	r1	
    1290:	28 78       	subc	@r8,	r8	
    1292:	2c 78       	subc	@r8,	r12	
    1294:	5f 29       	jnc	$+704    	;abs 0x1554
    1296:	20 76       	subc	@r6,	r0	
    1298:	6f 6c       	addc.b	@r12,	r15	
    129a:	61 74       	subc.b	@r4,	r1	
    129c:	69 6c       	addc.b	@r12,	r9	
    129e:	65 20       	jnz	$+204    	;abs 0x136a
    12a0:	75 6e       	addc.b	@r14+,	r5	
    12a2:	73 69       	.word	0x6973;	????	Illegal as 2-op instr
    12a4:	67 6e       	addc.b	@r14,	r7	
    12a6:	65 64       	addc.b	@r4,	r5	
    12a8:	20 6c       	addc	@r12,	r0	
    12aa:	6f 6e       	addc.b	@r14,	r15	
    12ac:	67 20       	jnz	$+208    	;abs 0x137c
    12ae:	69 6e       	addc.b	@r14,	r9	
    12b0:	74 20       	jnz	$+234    	;abs 0x139a
    12b2:	78 20       	jnz	$+242    	;abs 0x13a4
    12b4:	5f 5f 61 73 	add.b	29537(r15),r15	;0x7361(r15)
    12b8:	6d 5f       	add.b	@r15,	r13	
    12ba:	5f 28       	jnc	$+192    	;abs 0x137a
    12bc:	22 5f       	add	@r15,	r2	
    12be:	5f 22       	jnz	$-832    	;abs 0xf7e
    12c0:	20 23       	jnz	$-446    	;abs 0x1102
    12c2:	78 29       	jnc	$+754    	;abs 0x15b4
    12c4:	00 01       	.word	0x0100;	????	
    12c6:	3a 73       	subc	#-1,	r10	;r3 As==11
    12c8:	66 72       	subc.b	#4,	r6	;r2 As==10
    12ca:	61 28       	jnc	$+196    	;abs 0x138e
    12cc:	78 2c       	jc	$+242    	;abs 0x13be
    12ce:	78 5f       	add.b	@r15+,	r8	
    12d0:	29 20       	jnz	$+84     	;abs 0x1324
    12d2:	65 78       	subc.b	@r8,	r5	
    12d4:	74 65       	addc.b	@r5+,	r4	
    12d6:	72 6e       	addc.b	@r14+,	r2	
    12d8:	20 73       	subc	#2,	r0	;r3 As==10
    12da:	66 72       	subc.b	#4,	r6	;r2 As==10
    12dc:	61 5f       	add.b	@r15,	r1	
    12de:	28 78       	subc	@r8,	r8	
    12e0:	2c 78       	subc	@r8,	r12	
    12e2:	5f 29       	jnc	$+704    	;abs 0x15a2
    12e4:	00 01       	.word	0x0100;	????	
    12e6:	3c 63       	addc	#-1,	r12	;r3 As==11
    12e8:	6f 6e       	addc.b	@r14,	r15	
    12ea:	73 74       	.word	0x7473;	????	Illegal as 2-op instr
    12ec:	5f 73       	subc.b	#1,	r15	;r3 As==01
    12ee:	66 72       	subc.b	#4,	r6	;r2 As==10
    12f0:	62 28       	jnc	$+198    	;abs 0x13b6
    12f2:	78 2c       	jc	$+242    	;abs 0x13e4
    12f4:	78 5f       	add.b	@r15+,	r8	
    12f6:	29 20       	jnz	$+84     	;abs 0x134a
    12f8:	65 78       	subc.b	@r8,	r5	
    12fa:	74 65       	addc.b	@r5+,	r4	
    12fc:	72 6e       	addc.b	@r14+,	r2	
    12fe:	20 63       	addc	#2,	r0	;r3 As==10
    1300:	6f 6e       	addc.b	@r14,	r15	
    1302:	73 74       	.word	0x7473;	????	Illegal as 2-op instr
    1304:	20 73       	subc	#2,	r0	;r3 As==10
    1306:	66 72       	subc.b	#4,	r6	;r2 As==10
    1308:	62 5f       	add.b	@r15,	r2	
    130a:	28 78       	subc	@r8,	r8	
    130c:	2c 78       	subc	@r8,	r12	
    130e:	5f 29       	jnc	$+704    	;abs 0x15ce
    1310:	00 01       	.word	0x0100;	????	
    1312:	3d 63       	addc	#-1,	r13	;r3 As==11
    1314:	6f 6e       	addc.b	@r14,	r15	
    1316:	73 74       	.word	0x7473;	????	Illegal as 2-op instr
    1318:	5f 73       	subc.b	#1,	r15	;r3 As==01
    131a:	66 72       	subc.b	#4,	r6	;r2 As==10
    131c:	77 28       	jnc	$+240    	;abs 0x140c
    131e:	78 2c       	jc	$+242    	;abs 0x1410
    1320:	78 5f       	add.b	@r15+,	r8	
    1322:	29 20       	jnz	$+84     	;abs 0x1376
    1324:	65 78       	subc.b	@r8,	r5	
    1326:	74 65       	addc.b	@r5+,	r4	
    1328:	72 6e       	addc.b	@r14+,	r2	
    132a:	20 63       	addc	#2,	r0	;r3 As==10
    132c:	6f 6e       	addc.b	@r14,	r15	
    132e:	73 74       	.word	0x7473;	????	Illegal as 2-op instr
    1330:	20 73       	subc	#2,	r0	;r3 As==10
    1332:	66 72       	subc.b	#4,	r6	;r2 As==10
    1334:	77 5f       	add.b	@r15+,	r7	
    1336:	28 78       	subc	@r8,	r8	
    1338:	2c 78       	subc	@r8,	r12	
    133a:	5f 29       	jnc	$+704    	;abs 0x15fa
    133c:	00 01       	.word	0x0100;	????	
    133e:	3e 63       	addc	#-1,	r14	;r3 As==11
    1340:	6f 6e       	addc.b	@r14,	r15	
    1342:	73 74       	.word	0x7473;	????	Illegal as 2-op instr
    1344:	5f 73       	subc.b	#1,	r15	;r3 As==01
    1346:	66 72       	subc.b	#4,	r6	;r2 As==10
    1348:	61 28       	jnc	$+196    	;abs 0x140c
    134a:	78 2c       	jc	$+242    	;abs 0x143c
    134c:	78 5f       	add.b	@r15+,	r8	
    134e:	29 20       	jnz	$+84     	;abs 0x13a2
    1350:	65 78       	subc.b	@r8,	r5	
    1352:	74 65       	addc.b	@r5+,	r4	
    1354:	72 6e       	addc.b	@r14+,	r2	
    1356:	20 63       	addc	#2,	r0	;r3 As==10
    1358:	6f 6e       	addc.b	@r14,	r15	
    135a:	73 74       	.word	0x7473;	????	Illegal as 2-op instr
    135c:	20 73       	subc	#2,	r0	;r3 As==10
    135e:	66 72       	subc.b	#4,	r6	;r2 As==10
    1360:	61 5f       	add.b	@r15,	r1	
    1362:	28 78       	subc	@r8,	r8	
    1364:	2c 78       	subc	@r8,	r12	
    1366:	5f 29       	jnc	$+704    	;abs 0x1626
    1368:	00 01       	.word	0x0100;	????	
    136a:	41 5f       	add.b	r15,	r1	
    136c:	5f 69 6e 74 	addc.b	29806(r9),r15	;0x746e(r9)
    1370:	65 72       	subc.b	#4,	r5	;r2 As==10
    1372:	72 75       	subc.b	@r5+,	r2	
    1374:	70 74       	subc.b	@r4+,	r0	
    1376:	20 5f       	add	@r15,	r0	
    1378:	5f 61 74 74 	addc.b	29812(r1),r15	;0x7474(r1)
    137c:	72 69       	addc.b	@r9+,	r2	
    137e:	62 75       	subc.b	@r5,	r2	
    1380:	74 65       	addc.b	@r5+,	r4	
    1382:	5f 5f 28 28 	add.b	10280(r15),r15	;0x2828(r15)
    1386:	5f 5f 69 6e 	add.b	28265(r15),r15	;0x6e69(r15)
    138a:	74 65       	addc.b	@r5+,	r4	
    138c:	72 72       	subc.b	#8,	r2	;r2 As==11
    138e:	75 70 74 5f 	subc.b	#24436,	r5	;#0x5f74
    1392:	5f 29       	jnc	$+704    	;abs 0x1652
    1394:	29 00       	.word	0x0029;	????	
    1396:	04 01       	.word	0x0104;	????	
    1398:	40 42       	br	r2		
    139a:	49 54       	add.b	r4,	r9	
    139c:	30 20       	jnz	$+98     	;abs 0x13fe
    139e:	28 30       	jn	$+82     	;abs 0x13f0
    13a0:	78 30       	jn	$+242    	;abs 0x1492
    13a2:	30 30       	jn	$+98     	;abs 0x1404
    13a4:	31 29       	jnc	$+612    	;abs 0x1608
    13a6:	00 01       	.word	0x0100;	????	
    13a8:	41 42       	mov.b	r2,	r1	
    13aa:	49 54       	add.b	r4,	r9	
    13ac:	31 20       	jnz	$+100    	;abs 0x1410
    13ae:	28 30       	jn	$+82     	;abs 0x1400
    13b0:	78 30       	jn	$+242    	;abs 0x14a2
    13b2:	30 30       	jn	$+98     	;abs 0x1414
    13b4:	32 29       	jnc	$+614    	;abs 0x161a
    13b6:	00 01       	.word	0x0100;	????	
    13b8:	42 42       	mov.b	r2,	r2	
    13ba:	49 54       	add.b	r4,	r9	
    13bc:	32 20       	jnz	$+102    	;abs 0x1422
    13be:	28 30       	jn	$+82     	;abs 0x1410
    13c0:	78 30       	jn	$+242    	;abs 0x14b2
    13c2:	30 30       	jn	$+98     	;abs 0x1424
    13c4:	34 29       	jnc	$+618    	;abs 0x162e
    13c6:	00 01       	.word	0x0100;	????	
    13c8:	43 42       	.word	0x4243;	????	Illegal as 2-op instr
    13ca:	49 54       	add.b	r4,	r9	
    13cc:	33 20       	jnz	$+104    	;abs 0x1434
    13ce:	28 30       	jn	$+82     	;abs 0x1420
    13d0:	78 30       	jn	$+242    	;abs 0x14c2
    13d2:	30 30       	jn	$+98     	;abs 0x1434
    13d4:	38 29       	jnc	$+626    	;abs 0x1646
    13d6:	00 01       	.word	0x0100;	????	
    13d8:	44 42       	mov.b	r2,	r4	
    13da:	49 54       	add.b	r4,	r9	
    13dc:	34 20       	jnz	$+106    	;abs 0x1446
    13de:	28 30       	jn	$+82     	;abs 0x1430
    13e0:	78 30       	jn	$+242    	;abs 0x14d2
    13e2:	30 31       	jn	$+610    	;abs 0x1644
    13e4:	30 29       	jnc	$+610    	;abs 0x1646
    13e6:	00 01       	.word	0x0100;	????	
    13e8:	45 42       	mov.b	r2,	r5	
    13ea:	49 54       	add.b	r4,	r9	
    13ec:	35 20       	jnz	$+108    	;abs 0x1458
    13ee:	28 30       	jn	$+82     	;abs 0x1440
    13f0:	78 30       	jn	$+242    	;abs 0x14e2
    13f2:	30 32       	jn	$-926    	;abs 0x1054
    13f4:	30 29       	jnc	$+610    	;abs 0x1656
    13f6:	00 01       	.word	0x0100;	????	
    13f8:	46 42       	mov.b	r2,	r6	
    13fa:	49 54       	add.b	r4,	r9	
    13fc:	36 20       	jnz	$+110    	;abs 0x146a
    13fe:	28 30       	jn	$+82     	;abs 0x1450
    1400:	78 30       	jn	$+242    	;abs 0x14f2
    1402:	30 34       	jge	$+98     	;abs 0x1464
    1404:	30 29       	jnc	$+610    	;abs 0x1666
    1406:	00 01       	.word	0x0100;	????	
    1408:	47 42       	mov.b	r2,	r7	
    140a:	49 54       	add.b	r4,	r9	
    140c:	37 20       	jnz	$+112    	;abs 0x147c
    140e:	28 30       	jn	$+82     	;abs 0x1460
    1410:	78 30       	jn	$+242    	;abs 0x1502
    1412:	30 38       	jl	$+98     	;abs 0x1474
    1414:	30 29       	jnc	$+610    	;abs 0x1676
    1416:	00 01       	.word	0x0100;	????	
    1418:	48 42       	mov.b	r2,	r8	
    141a:	49 54       	add.b	r4,	r9	
    141c:	38 20       	jnz	$+114    	;abs 0x148e
    141e:	28 30       	jn	$+82     	;abs 0x1470
    1420:	78 30       	jn	$+242    	;abs 0x1512
    1422:	31 30       	jn	$+100    	;abs 0x1486
    1424:	30 29       	jnc	$+610    	;abs 0x1686
    1426:	00 01       	.word	0x0100;	????	
    1428:	49 42       	mov.b	r2,	r9	
    142a:	49 54       	add.b	r4,	r9	
    142c:	39 20       	jnz	$+116    	;abs 0x14a0
    142e:	28 30       	jn	$+82     	;abs 0x1480
    1430:	78 30       	jn	$+242    	;abs 0x1522
    1432:	32 30       	jn	$+102    	;abs 0x1498
    1434:	30 29       	jnc	$+610    	;abs 0x1696
    1436:	00 01       	.word	0x0100;	????	
    1438:	4a 42       	mov.b	r2,	r10	
    143a:	49 54       	add.b	r4,	r9	
    143c:	41 20       	jnz	$+132    	;abs 0x14c0
    143e:	28 30       	jn	$+82     	;abs 0x1490
    1440:	78 30       	jn	$+242    	;abs 0x1532
    1442:	34 30       	jn	$+106    	;abs 0x14ac
    1444:	30 29       	jnc	$+610    	;abs 0x16a6
    1446:	00 01       	.word	0x0100;	????	
    1448:	4b 42       	mov.b	r2,	r11	
    144a:	49 54       	add.b	r4,	r9	
    144c:	42 20       	jnz	$+134    	;abs 0x14d2
    144e:	28 30       	jn	$+82     	;abs 0x14a0
    1450:	78 30       	jn	$+242    	;abs 0x1542
    1452:	38 30       	jn	$+114    	;abs 0x14c4
    1454:	30 29       	jnc	$+610    	;abs 0x16b6
    1456:	00 01       	.word	0x0100;	????	
    1458:	4c 42       	mov.b	r2,	r12	
    145a:	49 54       	add.b	r4,	r9	
    145c:	43 20       	jnz	$+136    	;abs 0x14e4
    145e:	28 30       	jn	$+82     	;abs 0x14b0
    1460:	78 31       	jn	$+754    	;abs 0x1752
    1462:	30 30       	jn	$+98     	;abs 0x14c4
    1464:	30 29       	jnc	$+610    	;abs 0x16c6
    1466:	00 01       	.word	0x0100;	????	
    1468:	4d 42       	mov.b	r2,	r13	
    146a:	49 54       	add.b	r4,	r9	
    146c:	44 20       	jnz	$+138    	;abs 0x14f6
    146e:	28 30       	jn	$+82     	;abs 0x14c0
    1470:	78 32       	jn	$-782    	;abs 0x1162
    1472:	30 30       	jn	$+98     	;abs 0x14d4
    1474:	30 29       	jnc	$+610    	;abs 0x16d6
    1476:	00 01       	.word	0x0100;	????	
    1478:	4e 42       	mov.b	r2,	r14	
    147a:	49 54       	add.b	r4,	r9	
    147c:	45 20       	jnz	$+140    	;abs 0x1508
    147e:	28 30       	jn	$+82     	;abs 0x14d0
    1480:	78 34       	jge	$+242    	;abs 0x1572
    1482:	30 30       	jn	$+98     	;abs 0x14e4
    1484:	30 29       	jnc	$+610    	;abs 0x16e6
    1486:	00 01       	.word	0x0100;	????	
    1488:	4f 42       	mov.b	r2,	r15	
    148a:	49 54       	add.b	r4,	r9	
    148c:	46 20       	jnz	$+142    	;abs 0x151a
    148e:	28 30       	jn	$+82     	;abs 0x14e0
    1490:	78 38       	jl	$+242    	;abs 0x1582
    1492:	30 30       	jn	$+98     	;abs 0x14f4
    1494:	30 29       	jnc	$+610    	;abs 0x16f6
    1496:	00 01       	.word	0x0100;	????	
    1498:	55 43       	mov.b	#1,	r5	;r3 As==01
    149a:	20 28       	jnc	$+66     	;abs 0x14dc
    149c:	30 78       	subc	@r8+,	r0	
    149e:	30 30       	jn	$+98     	;abs 0x1500
    14a0:	30 31       	jn	$+610    	;abs 0x1702
    14a2:	29 00       	.word	0x0029;	????	
    14a4:	01 56       	add	r6,	r1	
    14a6:	5a 20       	jnz	$+182    	;abs 0x155c
    14a8:	28 30       	jn	$+82     	;abs 0x14fa
    14aa:	78 30       	jn	$+242    	;abs 0x159c
    14ac:	30 30       	jn	$+98     	;abs 0x150e
    14ae:	32 29       	jnc	$+614    	;abs 0x1714
    14b0:	00 01       	.word	0x0100;	????	
    14b2:	57 4e 20 28 	mov.b	10272(r14),r7	;0x2820(r14)
    14b6:	30 78       	subc	@r8+,	r0	
    14b8:	30 30       	jn	$+98     	;abs 0x151a
    14ba:	30 34       	jge	$+98     	;abs 0x151c
    14bc:	29 00       	.word	0x0029;	????	
    14be:	01 58       	add	r8,	r1	
    14c0:	56 20       	jnz	$+174    	;abs 0x156e
    14c2:	28 30       	jn	$+82     	;abs 0x1514
    14c4:	78 30       	jn	$+242    	;abs 0x15b6
    14c6:	31 30       	jn	$+100    	;abs 0x152a
    14c8:	30 29       	jnc	$+610    	;abs 0x172a
    14ca:	00 01       	.word	0x0100;	????	
    14cc:	59 47 49 45 	mov.b	17737(r7),r9	;0x4549(r7)
    14d0:	20 28       	jnc	$+66     	;abs 0x1512
    14d2:	30 78       	subc	@r8+,	r0	
    14d4:	30 30       	jn	$+98     	;abs 0x1536
    14d6:	30 38       	jl	$+98     	;abs 0x1538
    14d8:	29 00       	.word	0x0029;	????	
    14da:	01 5a       	add	r10,	r1	
    14dc:	43 50       	.word	0x5043;	????	Illegal as 2-op instr
    14de:	55 4f 46 46 	mov.b	17990(r15),r5	;0x4646(r15)
    14e2:	20 28       	jnc	$+66     	;abs 0x1524
    14e4:	30 78       	subc	@r8+,	r0	
    14e6:	30 30       	jn	$+98     	;abs 0x1548
    14e8:	31 30       	jn	$+100    	;abs 0x154c
    14ea:	29 00       	.word	0x0029;	????	
    14ec:	01 5b       	add	r11,	r1	
    14ee:	4f 53       	add.b	#0,	r15	;r3 As==00
    14f0:	43 4f       	.word	0x4f43;	????	Illegal as 2-op instr
    14f2:	46 46       	mov.b	r6,	r6	
    14f4:	20 28       	jnc	$+66     	;abs 0x1536
    14f6:	30 78       	subc	@r8+,	r0	
    14f8:	30 30       	jn	$+98     	;abs 0x155a
    14fa:	32 30       	jn	$+102    	;abs 0x1560
    14fc:	29 00       	.word	0x0029;	????	
    14fe:	01 5c       	add	r12,	r1	
    1500:	53 43       	.word	0x4353;	????	Illegal as 2-op instr
    1502:	47 30       	jn	$+144    	;abs 0x1592
    1504:	20 28       	jnc	$+66     	;abs 0x1546
    1506:	30 78       	subc	@r8+,	r0	
    1508:	30 30       	jn	$+98     	;abs 0x156a
    150a:	34 30       	jn	$+106    	;abs 0x1574
    150c:	29 00       	.word	0x0029;	????	
    150e:	01 5d       	add	r13,	r1	
    1510:	53 43       	.word	0x4353;	????	Illegal as 2-op instr
    1512:	47 31       	jn	$+656    	;abs 0x17a2
    1514:	20 28       	jnc	$+66     	;abs 0x1556
    1516:	30 78       	subc	@r8+,	r0	
    1518:	30 30       	jn	$+98     	;abs 0x157a
    151a:	38 30       	jn	$+114    	;abs 0x158c
    151c:	29 00       	.word	0x0029;	????	
    151e:	01 6a       	addc	r10,	r1	
    1520:	4c 50       	add.b	r0,	r12	
    1522:	4d 30       	jn	$+156    	;abs 0x15be
    1524:	5f 62 69 74 	addc.b	&0x7469,r15	
    1528:	73 20       	jnz	$+232    	;abs 0x1610
    152a:	28 43       	mov	#2,	r8	;r3 As==10
    152c:	50 55 4f 46 	add.b	17999(r5),r0	;0x464f(r5)
    1530:	46 29       	jnc	$+654    	;abs 0x17be
    1532:	00 01       	.word	0x0100;	????	
    1534:	6b 4c       	mov.b	@r12,	r11	
    1536:	50 4d 31 5f 	br	24369(r13)	;0x5f31(r13)
    153a:	62 69       	addc.b	@r9,	r2	
    153c:	74 73       	subc.b	#-1,	r4	;r3 As==11
    153e:	20 28       	jnc	$+66     	;abs 0x1580
    1540:	53 43       	.word	0x4353;	????	Illegal as 2-op instr
    1542:	47 30       	jn	$+144    	;abs 0x15d2
    1544:	2b 43       	mov	#2,	r11	;r3 As==10
    1546:	50 55 4f 46 	add.b	17999(r5),r0	;0x464f(r5)
    154a:	46 29       	jnc	$+654    	;abs 0x17d8
    154c:	00 01       	.word	0x0100;	????	
    154e:	6c 4c       	mov.b	@r12,	r12	
    1550:	50 4d 32 5f 	br	24370(r13)	;0x5f32(r13)
    1554:	62 69       	addc.b	@r9,	r2	
    1556:	74 73       	subc.b	#-1,	r4	;r3 As==11
    1558:	20 28       	jnc	$+66     	;abs 0x159a
    155a:	53 43       	.word	0x4353;	????	Illegal as 2-op instr
    155c:	47 31       	jn	$+656    	;abs 0x17ec
    155e:	2b 43       	mov	#2,	r11	;r3 As==10
    1560:	50 55 4f 46 	add.b	17999(r5),r0	;0x464f(r5)
    1564:	46 29       	jnc	$+654    	;abs 0x17f2
    1566:	00 01       	.word	0x0100;	????	
    1568:	6d 4c       	mov.b	@r12,	r13	
    156a:	50 4d 33 5f 	br	24371(r13)	;0x5f33(r13)
    156e:	62 69       	addc.b	@r9,	r2	
    1570:	74 73       	subc.b	#-1,	r4	;r3 As==11
    1572:	20 28       	jnc	$+66     	;abs 0x15b4
    1574:	53 43       	.word	0x4353;	????	Illegal as 2-op instr
    1576:	47 31       	jn	$+656    	;abs 0x1806
    1578:	2b 53       	incd	r11		
    157a:	43 47       	.word	0x4743;	????	Illegal as 2-op instr
    157c:	30 2b       	jnc	$-414    	;abs 0x13de
    157e:	43 50       	.word	0x5043;	????	Illegal as 2-op instr
    1580:	55 4f 46 46 	mov.b	17990(r15),r5	;0x4646(r15)
    1584:	29 00       	.word	0x0029;	????	
    1586:	01 6e       	addc	r14,	r1	
    1588:	4c 50       	add.b	r0,	r12	
    158a:	4d 34       	jge	$+156    	;abs 0x1626
    158c:	5f 62 69 74 	addc.b	&0x7469,r15	
    1590:	73 20       	jnz	$+232    	;abs 0x1678
    1592:	28 53       	incd	r8		
    1594:	43 47       	.word	0x4743;	????	Illegal as 2-op instr
    1596:	31 2b       	jnc	$-412    	;abs 0x13fa
    1598:	53 43       	.word	0x4353;	????	Illegal as 2-op instr
    159a:	47 30       	jn	$+144    	;abs 0x162a
    159c:	2b 4f       	mov	@r15,	r11	
    159e:	53 43       	.word	0x4353;	????	Illegal as 2-op instr
    15a0:	4f 46       	mov.b	r6,	r15	
    15a2:	46 2b       	jnc	$-370    	;abs 0x1430
    15a4:	43 50       	.word	0x5043;	????	Illegal as 2-op instr
    15a6:	55 4f 46 46 	mov.b	17990(r15),r5	;0x4646(r15)
    15aa:	29 00       	.word	0x0029;	????	
    15ac:	03 70       	.word	0x7003;	????	Illegal as 2-op instr
    15ae:	06 01       	.word	0x0106;	????	
    15b0:	03 5f       	.word	0x5f03;	????	Illegal as 2-op instr
    15b2:	5f 4d 53 50 	mov.b	20563(r13),r15	;0x5053(r13)
    15b6:	34 33       	jn	$-406    	;abs 0x1420
    15b8:	30 5f       	add	@r15+,	r0	
    15ba:	49 4e       	mov.b	r14,	r9	
    15bc:	34 33       	jn	$-406    	;abs 0x1426
    15be:	30 5f       	add	@r15+,	r0	
    15c0:	48 5f       	add.b	r15,	r8	
    15c2:	20 00       	.word	0x0020;	????	
    15c4:	03 04       	.word	0x0403;	????	
    15c6:	07 01       	.word	0x0107;	????	
    15c8:	26 5f       	add	@r15,	r6	
    15ca:	5f 4d 53 50 	mov.b	20563(r13),r15	;0x5053(r13)
    15ce:	34 33       	jn	$-406    	;abs 0x1438
    15d0:	30 5f       	add	@r15+,	r0	
    15d2:	49 4e       	mov.b	r14,	r9	
    15d4:	54 52 49 4e 	add.b	&0x4e49,r4	
    15d8:	53 49       	.word	0x4953;	????	Illegal as 2-op instr
    15da:	43 53       	.word	0x5343;	????	Illegal as emulation instr
    15dc:	5f 48 5f 20 	mov.b	8287(r8),r15	;0x205f(r8)
    15e0:	00 01       	.word	0x0100;	????	
    15e2:	85 01       	.word	0x0185;	????	
    15e4:	6e 6f       	addc.b	@r15,	r14	
    15e6:	70 28       	jnc	$+226    	;abs 0x16c8
    15e8:	29 20       	jnz	$+84     	;abs 0x163c
    15ea:	5f 5f 6e 6f 	add.b	28526(r15),r15	;0x6f6e(r15)
    15ee:	70 28       	jnc	$+226    	;abs 0x16d0
    15f0:	29 00       	.word	0x0029;	????	
    15f2:	01 86       	sub	r6,	r1	
    15f4:	01 5f       	add	r15,	r1	
    15f6:	4e 4f       	mov.b	r15,	r14	
    15f8:	50 28       	jnc	$+162    	;abs 0x169a
    15fa:	29 20       	jnz	$+84     	;abs 0x164e
    15fc:	5f 5f 6e 6f 	add.b	28526(r15),r15	;0x6f6e(r15)
    1600:	70 28       	jnc	$+226    	;abs 0x16e2
    1602:	29 00       	.word	0x0029;	????	
    1604:	01 87       	sub	r7,	r1	
    1606:	01 52       	add	r2,	r1	
    1608:	45 41       	mov.b	r1,	r5	
    160a:	44 5f       	add.b	r15,	r4	
    160c:	53 50       	.word	0x5053;	????	Illegal as 2-op instr
    160e:	20 5f       	add	@r15,	r0	
    1610:	5f 72 65 61 	subc.b	&0x6165,r15	
    1614:	64 5f       	add.b	@r15,	r4	
    1616:	73 74       	.word	0x7473;	????	Illegal as 2-op instr
    1618:	61 63       	addc.b	#2,	r1	;r3 As==10
    161a:	6b 5f       	add.b	@r15,	r11	
    161c:	70 6f       	addc.b	@r15+,	r0	
    161e:	69 6e       	addc.b	@r14,	r9	
    1620:	74 65       	addc.b	@r5+,	r4	
    1622:	72 28       	jnc	$+230    	;abs 0x1708
    1624:	29 3b       	jl	$-428    	;abs 0x1478
    1626:	00 01       	.word	0x0100;	????	
    1628:	88 01       	.word	0x0188;	????	
    162a:	57 52 49 54 	add.b	&0x5449,r7	
    162e:	45 5f       	add.b	r15,	r5	
    1630:	53 50       	.word	0x5053;	????	Illegal as 2-op instr
    1632:	28 5f       	add	@r15,	r8	
    1634:	78 29       	jnc	$+754    	;abs 0x1926
    1636:	20 5f       	add	@r15,	r0	
    1638:	5f 77 72 69 	subc.b	26994(r7),r15	;0x6972(r7)
    163c:	74 65       	addc.b	@r5+,	r4	
    163e:	5f 73       	subc.b	#1,	r15	;r3 As==01
    1640:	74 61       	addc.b	@r1+,	r4	
    1642:	63 6b       	.word	0x6b63;	????	Illegal as 2-op instr
    1644:	5f 70 6f 69 	subc.b	26991(r0),r15	;PC rel. 0x7fb5
    1648:	6e 74       	subc.b	@r4,	r14	
    164a:	65 72       	subc.b	#4,	r5	;r2 As==10
    164c:	28 5f       	add	@r15,	r8	
    164e:	78 29       	jnc	$+754    	;abs 0x1940
    1650:	00 01       	.word	0x0100;	????	
    1652:	89 01       	.word	0x0189;	????	
    1654:	52 45 41 44 	mov.b	17473(r5),r2	;0x4441(r5)
    1658:	5f 53       	inc.b	r15		
    165a:	52 20       	jnz	$+166    	;abs 0x1700
    165c:	5f 5f 72 65 	add.b	25970(r15),r15	;0x6572(r15)
    1660:	61 64       	addc.b	@r4,	r1	
    1662:	5f 73       	subc.b	#1,	r15	;r3 As==01
    1664:	74 61       	addc.b	@r1+,	r4	
    1666:	74 75       	subc.b	@r5+,	r4	
    1668:	73 5f       	.word	0x5f73;	????	Illegal as 2-op instr
    166a:	72 65       	addc.b	@r5+,	r2	
    166c:	67 69       	addc.b	@r9,	r7	
    166e:	73 74       	.word	0x7473;	????	Illegal as 2-op instr
    1670:	65 72       	subc.b	#4,	r5	;r2 As==10
    1672:	28 29       	jnc	$+594    	;abs 0x18c4
    1674:	00 01       	.word	0x0100;	????	
    1676:	8a 01       	.word	0x018a;	????	
    1678:	57 52 49 54 	add.b	&0x5449,r7	
    167c:	45 5f       	add.b	r15,	r5	
    167e:	53 52       	.word	0x5253;	????	Illegal as 2-op instr
    1680:	28 5f       	add	@r15,	r8	
    1682:	78 29       	jnc	$+754    	;abs 0x1974
    1684:	20 5f       	add	@r15,	r0	
    1686:	5f 77 72 69 	subc.b	26994(r7),r15	;0x6972(r7)
    168a:	74 65       	addc.b	@r5+,	r4	
    168c:	5f 73       	subc.b	#1,	r15	;r3 As==01
    168e:	74 61       	addc.b	@r1+,	r4	
    1690:	74 75       	subc.b	@r5+,	r4	
    1692:	73 5f       	.word	0x5f73;	????	Illegal as 2-op instr
    1694:	72 65       	addc.b	@r5+,	r2	
    1696:	67 69       	addc.b	@r9,	r7	
    1698:	73 74       	.word	0x7473;	????	Illegal as 2-op instr
    169a:	65 72       	subc.b	#4,	r5	;r2 As==10
    169c:	28 5f       	add	@r15,	r8	
    169e:	78 29       	jnc	$+754    	;abs 0x1990
    16a0:	00 01       	.word	0x0100;	????	
    16a2:	8b 01       	.word	0x018b;	????	
    16a4:	5f 42 49 53 	mov.b	&0x5349,r15	
    16a8:	5f 53       	inc.b	r15		
    16aa:	52 28       	jnc	$+166    	;abs 0x1750
    16ac:	5f 62 29 20 	addc.b	&0x2029,r15	
    16b0:	5f 5f 62 69 	add.b	26978(r15),r15	;0x6962(r15)
    16b4:	73 5f       	.word	0x5f73;	????	Illegal as 2-op instr
    16b6:	73 74       	.word	0x7473;	????	Illegal as 2-op instr
    16b8:	61 74       	subc.b	@r4,	r1	
    16ba:	75 73       	subc.b	#-1,	r5	;r3 As==11
    16bc:	5f 72 65 67 	subc.b	&0x6765,r15	
    16c0:	69 73       	subc.b	#2,	r9	;r3 As==10
    16c2:	74 65       	addc.b	@r5+,	r4	
    16c4:	72 28       	jnc	$+230    	;abs 0x17aa
    16c6:	5f 62 29 00 	addc.b	&0x0029,r15	
    16ca:	01 8c       	sub	r12,	r1	
    16cc:	01 5f       	add	r15,	r1	
    16ce:	42 49       	mov.b	r9,	r2	
    16d0:	43 5f       	.word	0x5f43;	????	Illegal as 2-op instr
    16d2:	53 52       	.word	0x5253;	????	Illegal as 2-op instr
    16d4:	28 5f       	add	@r15,	r8	
    16d6:	62 29       	jnc	$+710    	;abs 0x199c
    16d8:	20 5f       	add	@r15,	r0	
    16da:	5f 62 69 63 	addc.b	&0x6369,r15	
    16de:	5f 73       	subc.b	#1,	r15	;r3 As==01
    16e0:	74 61       	addc.b	@r1+,	r4	
    16e2:	74 75       	subc.b	@r5+,	r4	
    16e4:	73 5f       	.word	0x5f73;	????	Illegal as 2-op instr
    16e6:	72 65       	addc.b	@r5+,	r2	
    16e8:	67 69       	addc.b	@r9,	r7	
    16ea:	73 74       	.word	0x7473;	????	Illegal as 2-op instr
    16ec:	65 72       	subc.b	#4,	r5	;r2 As==10
    16ee:	28 5f       	add	@r15,	r8	
    16f0:	62 29       	jnc	$+710    	;abs 0x19b6
    16f2:	00 01       	.word	0x0100;	????	
    16f4:	8d 01       	.word	0x018d;	????	
    16f6:	5f 42 49 53 	mov.b	&0x5349,r15	
    16fa:	5f 53       	inc.b	r15		
    16fc:	52 5f 49 52 	add.b	21065(r15),r2	;0x5249(r15)
    1700:	51 28       	jnc	$+164    	;abs 0x17a4
    1702:	5f 62 29 20 	addc.b	&0x2029,r15	
    1706:	5f 5f 62 69 	add.b	26978(r15),r15	;0x6962(r15)
    170a:	73 5f       	.word	0x5f73;	????	Illegal as 2-op instr
    170c:	73 74       	.word	0x7473;	????	Illegal as 2-op instr
    170e:	61 74       	subc.b	@r4,	r1	
    1710:	75 73       	subc.b	#-1,	r5	;r3 As==11
    1712:	5f 72 65 67 	subc.b	&0x6765,r15	
    1716:	69 73       	subc.b	#2,	r9	;r3 As==10
    1718:	74 65       	addc.b	@r5+,	r4	
    171a:	72 5f       	add.b	@r15+,	r2	
    171c:	6f 6e       	addc.b	@r14,	r15	
    171e:	5f 65 78 69 	addc.b	27000(r5),r15	;0x6978(r5)
    1722:	74 28       	jnc	$+234    	;abs 0x180c
    1724:	5f 62 29 00 	addc.b	&0x0029,r15	
    1728:	01 8e       	sub	r14,	r1	
    172a:	01 5f       	add	r15,	r1	
    172c:	42 49       	mov.b	r9,	r2	
    172e:	43 5f       	.word	0x5f43;	????	Illegal as 2-op instr
    1730:	53 52       	.word	0x5253;	????	Illegal as 2-op instr
    1732:	5f 49 52 51 	mov.b	20818(r9),r15	;0x5152(r9)
    1736:	28 5f       	add	@r15,	r8	
    1738:	62 29       	jnc	$+710    	;abs 0x19fe
    173a:	20 5f       	add	@r15,	r0	
    173c:	5f 62 69 63 	addc.b	&0x6369,r15	
    1740:	5f 73       	subc.b	#1,	r15	;r3 As==01
    1742:	74 61       	addc.b	@r1+,	r4	
    1744:	74 75       	subc.b	@r5+,	r4	
    1746:	73 5f       	.word	0x5f73;	????	Illegal as 2-op instr
    1748:	72 65       	addc.b	@r5+,	r2	
    174a:	67 69       	addc.b	@r9,	r7	
    174c:	73 74       	.word	0x7473;	????	Illegal as 2-op instr
    174e:	65 72       	subc.b	#4,	r5	;r2 As==10
    1750:	5f 6f 6e 5f 	addc.b	24430(r15),r15	;0x5f6e(r15)
    1754:	65 78       	subc.b	@r8,	r5	
    1756:	69 74       	subc.b	@r4,	r9	
    1758:	28 5f       	add	@r15,	r8	
    175a:	62 29       	jnc	$+710    	;abs 0x1a20
    175c:	00 01       	.word	0x0100;	????	
    175e:	91 01       	.word	0x0191;	????	
    1760:	5f 5f 6e 6f 	add.b	28526(r15),r15	;0x6f6e(r15)
    1764:	5f 6f 70 65 	addc.b	25968(r15),r15	;0x6570(r15)
    1768:	72 61       	addc.b	@r1+,	r2	
    176a:	74 69       	addc.b	@r9+,	r4	
    176c:	6f 6e       	addc.b	@r14,	r15	
    176e:	28 29       	jnc	$+594    	;abs 0x19c0
    1770:	20 5f       	add	@r15,	r0	
    1772:	5f 6e 6f 70 	addc.b	28783(r14),r15	;0x706f(r14)
    1776:	28 29       	jnc	$+594    	;abs 0x19c8
    1778:	00 01       	.word	0x0100;	????	
    177a:	92 01       	.word	0x0192;	????	
    177c:	5f 5f 62 69 	add.b	26978(r15),r15	;0x6962(r15)
    1780:	63 5f       	.word	0x5f63;	????	Illegal as 2-op instr
    1782:	53 52       	.word	0x5253;	????	Illegal as 2-op instr
    1784:	5f 72 65 67 	subc.b	&0x6765,r15	
    1788:	69 73       	subc.b	#2,	r9	;r3 As==10
    178a:	74 65       	addc.b	@r5+,	r4	
    178c:	72 28       	jnc	$+230    	;abs 0x1872
    178e:	5f 62 29 20 	addc.b	&0x2029,r15	
    1792:	5f 5f 62 69 	add.b	26978(r15),r15	;0x6962(r15)
    1796:	63 5f       	.word	0x5f63;	????	Illegal as 2-op instr
    1798:	73 74       	.word	0x7473;	????	Illegal as 2-op instr
    179a:	61 74       	subc.b	@r4,	r1	
    179c:	75 73       	subc.b	#-1,	r5	;r3 As==11
    179e:	5f 72 65 67 	subc.b	&0x6765,r15	
    17a2:	69 73       	subc.b	#2,	r9	;r3 As==10
    17a4:	74 65       	addc.b	@r5+,	r4	
    17a6:	72 28       	jnc	$+230    	;abs 0x188c
    17a8:	5f 62 29 00 	addc.b	&0x0029,r15	
    17ac:	01 93       	tst	r1		
    17ae:	01 5f       	add	r15,	r1	
    17b0:	5f 62 69 63 	addc.b	&0x6369,r15	
    17b4:	5f 53       	inc.b	r15		
    17b6:	52 5f 72 65 	add.b	25970(r15),r2	;0x6572(r15)
    17ba:	67 69       	addc.b	@r9,	r7	
    17bc:	73 74       	.word	0x7473;	????	Illegal as 2-op instr
    17be:	65 72       	subc.b	#4,	r5	;r2 As==10
    17c0:	5f 6f 6e 5f 	addc.b	24430(r15),r15	;0x5f6e(r15)
    17c4:	65 78       	subc.b	@r8,	r5	
    17c6:	69 74       	subc.b	@r4,	r9	
    17c8:	28 5f       	add	@r15,	r8	
    17ca:	62 29       	jnc	$+710    	;abs 0x1a90
    17cc:	20 5f       	add	@r15,	r0	
    17ce:	5f 62 69 63 	addc.b	&0x6369,r15	
    17d2:	5f 73       	subc.b	#1,	r15	;r3 As==01
    17d4:	74 61       	addc.b	@r1+,	r4	
    17d6:	74 75       	subc.b	@r5+,	r4	
    17d8:	73 5f       	.word	0x5f73;	????	Illegal as 2-op instr
    17da:	72 65       	addc.b	@r5+,	r2	
    17dc:	67 69       	addc.b	@r9,	r7	
    17de:	73 74       	.word	0x7473;	????	Illegal as 2-op instr
    17e0:	65 72       	subc.b	#4,	r5	;r2 As==10
    17e2:	5f 6f 6e 5f 	addc.b	24430(r15),r15	;0x5f6e(r15)
    17e6:	65 78       	subc.b	@r8,	r5	
    17e8:	69 74       	subc.b	@r4,	r9	
    17ea:	28 5f       	add	@r15,	r8	
    17ec:	62 29       	jnc	$+710    	;abs 0x1ab2
    17ee:	00 01       	.word	0x0100;	????	
    17f0:	94 01       	.word	0x0194;	????	
    17f2:	5f 5f 62 69 	add.b	26978(r15),r15	;0x6962(r15)
    17f6:	73 5f       	.word	0x5f73;	????	Illegal as 2-op instr
    17f8:	53 52       	.word	0x5253;	????	Illegal as 2-op instr
    17fa:	5f 72 65 67 	subc.b	&0x6765,r15	
    17fe:	69 73       	subc.b	#2,	r9	;r3 As==10
    1800:	74 65       	addc.b	@r5+,	r4	
    1802:	72 28       	jnc	$+230    	;abs 0x18e8
    1804:	5f 62 29 20 	addc.b	&0x2029,r15	
    1808:	5f 5f 62 69 	add.b	26978(r15),r15	;0x6962(r15)
    180c:	73 5f       	.word	0x5f73;	????	Illegal as 2-op instr
    180e:	73 74       	.word	0x7473;	????	Illegal as 2-op instr
    1810:	61 74       	subc.b	@r4,	r1	
    1812:	75 73       	subc.b	#-1,	r5	;r3 As==11
    1814:	5f 72 65 67 	subc.b	&0x6765,r15	
    1818:	69 73       	subc.b	#2,	r9	;r3 As==10
    181a:	74 65       	addc.b	@r5+,	r4	
    181c:	72 28       	jnc	$+230    	;abs 0x1902
    181e:	5f 62 29 00 	addc.b	&0x0029,r15	
    1822:	01 95       	cmp	r5,	r1	
    1824:	01 5f       	add	r15,	r1	
    1826:	5f 62 69 73 	addc.b	&0x7369,r15	
    182a:	5f 53       	inc.b	r15		
    182c:	52 5f 72 65 	add.b	25970(r15),r2	;0x6572(r15)
    1830:	67 69       	addc.b	@r9,	r7	
    1832:	73 74       	.word	0x7473;	????	Illegal as 2-op instr
    1834:	65 72       	subc.b	#4,	r5	;r2 As==10
    1836:	5f 6f 6e 5f 	addc.b	24430(r15),r15	;0x5f6e(r15)
    183a:	65 78       	subc.b	@r8,	r5	
    183c:	69 74       	subc.b	@r4,	r9	
    183e:	28 5f       	add	@r15,	r8	
    1840:	62 29       	jnc	$+710    	;abs 0x1b06
    1842:	20 5f       	add	@r15,	r0	
    1844:	5f 62 69 73 	addc.b	&0x7369,r15	
    1848:	5f 73       	subc.b	#1,	r15	;r3 As==01
    184a:	74 61       	addc.b	@r1+,	r4	
    184c:	74 75       	subc.b	@r5+,	r4	
    184e:	73 5f       	.word	0x5f73;	????	Illegal as 2-op instr
    1850:	72 65       	addc.b	@r5+,	r2	
    1852:	67 69       	addc.b	@r9,	r7	
    1854:	73 74       	.word	0x7473;	????	Illegal as 2-op instr
    1856:	65 72       	subc.b	#4,	r5	;r2 As==10
    1858:	5f 6f 6e 5f 	addc.b	24430(r15),r15	;0x5f6e(r15)
    185c:	65 78       	subc.b	@r8,	r5	
    185e:	69 74       	subc.b	@r4,	r9	
    1860:	28 5f       	add	@r15,	r8	
    1862:	62 29       	jnc	$+710    	;abs 0x1b28
    1864:	00 01       	.word	0x0100;	????	
    1866:	96 01       	.word	0x0196;	????	
    1868:	5f 5f 65 6e 	add.b	28261(r15),r15	;0x6e65(r15)
    186c:	61 62       	addc.b	#4,	r1	;r2 As==10
    186e:	6c 65       	addc.b	@r5,	r12	
    1870:	5f 69 6e 74 	addc.b	29806(r9),r15	;0x746e(r9)
    1874:	65 72       	subc.b	#4,	r5	;r2 As==10
    1876:	72 75       	subc.b	@r5+,	r2	
    1878:	70 74       	subc.b	@r4+,	r0	
    187a:	28 29       	jnc	$+594    	;abs 0x1acc
    187c:	20 5f       	add	@r15,	r0	
    187e:	5f 65 69 6e 	addc.b	28265(r5),r15	;0x6e69(r5)
    1882:	74 28       	jnc	$+234    	;abs 0x196c
    1884:	29 00       	.word	0x0029;	????	
    1886:	01 97       	cmp	r7,	r1	
    1888:	01 5f       	add	r15,	r1	
    188a:	5f 64 69 73 	addc.b	29545(r4),r15	;0x7369(r4)
    188e:	61 62       	addc.b	#4,	r1	;r2 As==10
    1890:	6c 65       	addc.b	@r5,	r12	
    1892:	5f 69 6e 74 	addc.b	29806(r9),r15	;0x746e(r9)
    1896:	65 72       	subc.b	#4,	r5	;r2 As==10
    1898:	72 75       	subc.b	@r5+,	r2	
    189a:	70 74       	subc.b	@r4+,	r0	
    189c:	28 29       	jnc	$+594    	;abs 0x1aee
    189e:	20 5f       	add	@r15,	r0	
    18a0:	5f 64 69 6e 	addc.b	28265(r4),r15	;0x6e69(r4)
    18a4:	74 28       	jnc	$+234    	;abs 0x198e
    18a6:	29 00       	.word	0x0029;	????	
    18a8:	01 9a       	cmp	r10,	r1	
    18aa:	01 5f       	add	r15,	r1	
    18ac:	45 49       	mov.b	r9,	r5	
    18ae:	4e 54       	add.b	r4,	r14	
    18b0:	28 29       	jnc	$+594    	;abs 0x1b02
    18b2:	20 5f       	add	@r15,	r0	
    18b4:	5f 65 69 6e 	addc.b	28265(r5),r15	;0x6e69(r5)
    18b8:	74 28       	jnc	$+234    	;abs 0x19a2
    18ba:	29 00       	.word	0x0029;	????	
    18bc:	01 9b       	cmp	r11,	r1	
    18be:	01 5f       	add	r15,	r1	
    18c0:	44 49       	mov.b	r9,	r4	
    18c2:	4e 54       	add.b	r4,	r14	
    18c4:	28 29       	jnc	$+594    	;abs 0x1b16
    18c6:	20 5f       	add	@r15,	r0	
    18c8:	5f 64 69 6e 	addc.b	28265(r4),r15	;0x6e69(r4)
    18cc:	74 28       	jnc	$+234    	;abs 0x19b6
    18ce:	29 00       	.word	0x0029;	????	
    18d0:	04 04       	.word	0x0404;	????	
    18d2:	01 72       	subc	r2,	r1	
    18d4:	4c 50       	add.b	r0,	r12	
    18d6:	4d 30       	jn	$+156    	;abs 0x1972
    18d8:	20 5f       	add	@r15,	r0	
    18da:	42 49       	mov.b	r9,	r2	
    18dc:	53 5f       	.word	0x5f53;	????	Illegal as 2-op instr
    18de:	53 52       	.word	0x5253;	????	Illegal as 2-op instr
    18e0:	28 4c       	mov	@r12,	r8	
    18e2:	50 4d 30 5f 	br	24368(r13)	;0x5f30(r13)
    18e6:	62 69       	addc.b	@r9,	r2	
    18e8:	74 73       	subc.b	#-1,	r4	;r3 As==11
    18ea:	29 00       	.word	0x0029;	????	
    18ec:	01 73       	sbc	r1		
    18ee:	4c 50       	add.b	r0,	r12	
    18f0:	4d 30       	jn	$+156    	;abs 0x198c
    18f2:	5f 45 58 49 	mov.b	18776(r5),r15	;0x4958(r5)
    18f6:	54 20       	jnz	$+170    	;abs 0x19a0
    18f8:	5f 42 49 43 	mov.b	&0x4349,r15	
    18fc:	5f 53       	inc.b	r15		
    18fe:	52 5f 49 52 	add.b	21065(r15),r2	;0x5249(r15)
    1902:	51 28       	jnc	$+164    	;abs 0x19a6
    1904:	4c 50       	add.b	r0,	r12	
    1906:	4d 30       	jn	$+156    	;abs 0x19a2
    1908:	5f 62 69 74 	addc.b	&0x7469,r15	
    190c:	73 29       	jnc	$+744    	;abs 0x1bf4
    190e:	00 01       	.word	0x0100;	????	
    1910:	74 4c       	mov.b	@r12+,	r4	
    1912:	50 4d 31 20 	br	8241(r13)	;0x2031(r13)
    1916:	5f 42 49 53 	mov.b	&0x5349,r15	
    191a:	5f 53       	inc.b	r15		
    191c:	52 28       	jnc	$+166    	;abs 0x19c2
    191e:	4c 50       	add.b	r0,	r12	
    1920:	4d 31       	jn	$+668    	;abs 0x1bbc
    1922:	5f 62 69 74 	addc.b	&0x7469,r15	
    1926:	73 29       	jnc	$+744    	;abs 0x1c0e
    1928:	00 01       	.word	0x0100;	????	
    192a:	75 4c       	mov.b	@r12+,	r5	
    192c:	50 4d 31 5f 	br	24369(r13)	;0x5f31(r13)
    1930:	45 58       	add.b	r8,	r5	
    1932:	49 54       	add.b	r4,	r9	
    1934:	20 5f       	add	@r15,	r0	
    1936:	42 49       	mov.b	r9,	r2	
    1938:	43 5f       	.word	0x5f43;	????	Illegal as 2-op instr
    193a:	53 52       	.word	0x5253;	????	Illegal as 2-op instr
    193c:	5f 49 52 51 	mov.b	20818(r9),r15	;0x5152(r9)
    1940:	28 4c       	mov	@r12,	r8	
    1942:	50 4d 31 5f 	br	24369(r13)	;0x5f31(r13)
    1946:	62 69       	addc.b	@r9,	r2	
    1948:	74 73       	subc.b	#-1,	r4	;r3 As==11
    194a:	29 00       	.word	0x0029;	????	
    194c:	01 76       	subc	r6,	r1	
    194e:	4c 50       	add.b	r0,	r12	
    1950:	4d 32       	jn	$-868    	;abs 0x15ec
    1952:	20 5f       	add	@r15,	r0	
    1954:	42 49       	mov.b	r9,	r2	
    1956:	53 5f       	.word	0x5f53;	????	Illegal as 2-op instr
    1958:	53 52       	.word	0x5253;	????	Illegal as 2-op instr
    195a:	28 4c       	mov	@r12,	r8	
    195c:	50 4d 32 5f 	br	24370(r13)	;0x5f32(r13)
    1960:	62 69       	addc.b	@r9,	r2	
    1962:	74 73       	subc.b	#-1,	r4	;r3 As==11
    1964:	29 00       	.word	0x0029;	????	
    1966:	01 77       	subc	r7,	r1	
    1968:	4c 50       	add.b	r0,	r12	
    196a:	4d 32       	jn	$-868    	;abs 0x1606
    196c:	5f 45 58 49 	mov.b	18776(r5),r15	;0x4958(r5)
    1970:	54 20       	jnz	$+170    	;abs 0x1a1a
    1972:	5f 42 49 43 	mov.b	&0x4349,r15	
    1976:	5f 53       	inc.b	r15		
    1978:	52 5f 49 52 	add.b	21065(r15),r2	;0x5249(r15)
    197c:	51 28       	jnc	$+164    	;abs 0x1a20
    197e:	4c 50       	add.b	r0,	r12	
    1980:	4d 32       	jn	$-868    	;abs 0x161c
    1982:	5f 62 69 74 	addc.b	&0x7469,r15	
    1986:	73 29       	jnc	$+744    	;abs 0x1c6e
    1988:	00 01       	.word	0x0100;	????	
    198a:	78 4c       	mov.b	@r12+,	r8	
    198c:	50 4d 33 20 	br	8243(r13)	;0x2033(r13)
    1990:	5f 42 49 53 	mov.b	&0x5349,r15	
    1994:	5f 53       	inc.b	r15		
    1996:	52 28       	jnc	$+166    	;abs 0x1a3c
    1998:	4c 50       	add.b	r0,	r12	
    199a:	4d 33       	jn	$-356    	;abs 0x1836
    199c:	5f 62 69 74 	addc.b	&0x7469,r15	
    19a0:	73 29       	jnc	$+744    	;abs 0x1c88
    19a2:	00 01       	.word	0x0100;	????	
    19a4:	79 4c       	mov.b	@r12+,	r9	
    19a6:	50 4d 33 5f 	br	24371(r13)	;0x5f33(r13)
    19aa:	45 58       	add.b	r8,	r5	
    19ac:	49 54       	add.b	r4,	r9	
    19ae:	20 5f       	add	@r15,	r0	
    19b0:	42 49       	mov.b	r9,	r2	
    19b2:	43 5f       	.word	0x5f43;	????	Illegal as 2-op instr
    19b4:	53 52       	.word	0x5253;	????	Illegal as 2-op instr
    19b6:	5f 49 52 51 	mov.b	20818(r9),r15	;0x5152(r9)
    19ba:	28 4c       	mov	@r12,	r8	
    19bc:	50 4d 33 5f 	br	24371(r13)	;0x5f33(r13)
    19c0:	62 69       	addc.b	@r9,	r2	
    19c2:	74 73       	subc.b	#-1,	r4	;r3 As==11
    19c4:	29 00       	.word	0x0029;	????	
    19c6:	01 7a       	subc	r10,	r1	
    19c8:	4c 50       	add.b	r0,	r12	
    19ca:	4d 34       	jge	$+156    	;abs 0x1a66
    19cc:	20 5f       	add	@r15,	r0	
    19ce:	42 49       	mov.b	r9,	r2	
    19d0:	53 5f       	.word	0x5f53;	????	Illegal as 2-op instr
    19d2:	53 52       	.word	0x5253;	????	Illegal as 2-op instr
    19d4:	28 4c       	mov	@r12,	r8	
    19d6:	50 4d 34 5f 	br	24372(r13)	;0x5f34(r13)
    19da:	62 69       	addc.b	@r9,	r2	
    19dc:	74 73       	subc.b	#-1,	r4	;r3 As==11
    19de:	29 00       	.word	0x0029;	????	
    19e0:	01 7b       	subc	r11,	r1	
    19e2:	4c 50       	add.b	r0,	r12	
    19e4:	4d 34       	jge	$+156    	;abs 0x1a80
    19e6:	5f 45 58 49 	mov.b	18776(r5),r15	;0x4958(r5)
    19ea:	54 20       	jnz	$+170    	;abs 0x1a94
    19ec:	5f 42 49 43 	mov.b	&0x4349,r15	
    19f0:	5f 53       	inc.b	r15		
    19f2:	52 5f 49 52 	add.b	21065(r15),r2	;0x5249(r15)
    19f6:	51 28       	jnc	$+164    	;abs 0x1a9a
    19f8:	4c 50       	add.b	r0,	r12	
    19fa:	4d 34       	jge	$+156    	;abs 0x1a96
    19fc:	5f 62 69 74 	addc.b	&0x7469,r15	
    1a00:	73 29       	jnc	$+744    	;abs 0x1ce8
    1a02:	00 01       	.word	0x0100;	????	
    1a04:	86 01       	.word	0x0186;	????	
    1a06:	49 45       	mov.b	r5,	r9	
    1a08:	31 5f       	add	@r15+,	r1	
    1a0a:	20 30       	jn	$+66     	;abs 0x1a4c
    1a0c:	78 30       	jn	$+242    	;abs 0x1afe
    1a0e:	30 30       	jn	$+98     	;abs 0x1a70
    1a10:	30 00       	.word	0x0030;	????	
    1a12:	01 88       	sub	r8,	r1	
    1a14:	01 57       	add	r7,	r1	
    1a16:	44 54       	rla.b	r4		
    1a18:	49 45       	mov.b	r5,	r9	
    1a1a:	20 28       	jnc	$+66     	;abs 0x1a5c
    1a1c:	30 78       	subc	@r8+,	r0	
    1a1e:	30 31       	jn	$+610    	;abs 0x1c80
    1a20:	29 00       	.word	0x0029;	????	
    1a22:	01 89       	sub	r9,	r1	
    1a24:	01 4f       	mov	r15,	r1	
    1a26:	46 49       	mov.b	r9,	r6	
    1a28:	45 20       	jnz	$+140    	;abs 0x1ab4
    1a2a:	28 30       	jn	$+82     	;abs 0x1a7c
    1a2c:	78 30       	jn	$+242    	;abs 0x1b1e
    1a2e:	32 29       	jnc	$+614    	;abs 0x1c94
    1a30:	00 01       	.word	0x0100;	????	
    1a32:	8a 01       	.word	0x018a;	????	
    1a34:	4e 4d       	mov.b	r13,	r14	
    1a36:	49 49       	mov.b	r9,	r9	
    1a38:	45 20       	jnz	$+140    	;abs 0x1ac4
    1a3a:	28 30       	jn	$+82     	;abs 0x1a8c
    1a3c:	78 31       	jn	$+754    	;abs 0x1d2e
    1a3e:	30 29       	jnc	$+610    	;abs 0x1ca0
    1a40:	00 01       	.word	0x0100;	????	
    1a42:	8b 01       	.word	0x018b;	????	
    1a44:	41 43       	clr.b	r1		
    1a46:	43 56       	.word	0x5643;	????	Illegal as 2-op instr
    1a48:	49 45       	mov.b	r5,	r9	
    1a4a:	20 28       	jnc	$+66     	;abs 0x1a8c
    1a4c:	30 78       	subc	@r8+,	r0	
    1a4e:	32 30       	jn	$+102    	;abs 0x1ab4
    1a50:	29 00       	.word	0x0029;	????	
    1a52:	01 8d       	sub	r13,	r1	
    1a54:	01 49       	mov	r9,	r1	
    1a56:	46 47       	mov.b	r7,	r6	
    1a58:	31 5f       	add	@r15+,	r1	
    1a5a:	20 30       	jn	$+66     	;abs 0x1a9c
    1a5c:	78 30       	jn	$+242    	;abs 0x1b4e
    1a5e:	30 30       	jn	$+98     	;abs 0x1ac0
    1a60:	32 00       	.word	0x0032;	????	
    1a62:	01 8f       	sub	r15,	r1	
    1a64:	01 57       	add	r7,	r1	
    1a66:	44 54       	rla.b	r4		
    1a68:	49 46       	mov.b	r6,	r9	
    1a6a:	47 20       	jnz	$+144    	;abs 0x1afa
    1a6c:	28 30       	jn	$+82     	;abs 0x1abe
    1a6e:	78 30       	jn	$+242    	;abs 0x1b60
    1a70:	31 29       	jnc	$+612    	;abs 0x1cd4
    1a72:	00 01       	.word	0x0100;	????	
    1a74:	90 01       	.word	0x0190;	????	
    1a76:	4f 46       	mov.b	r6,	r15	
    1a78:	49 46       	mov.b	r6,	r9	
    1a7a:	47 20       	jnz	$+144    	;abs 0x1b0a
    1a7c:	28 30       	jn	$+82     	;abs 0x1ace
    1a7e:	78 30       	jn	$+242    	;abs 0x1b70
    1a80:	32 29       	jnc	$+614    	;abs 0x1ce6
    1a82:	00 01       	.word	0x0100;	????	
    1a84:	91 01       	.word	0x0191;	????	
    1a86:	50 4f 52 49 	br	18770(r15)	;0x4952(r15)
    1a8a:	46 47       	mov.b	r7,	r6	
    1a8c:	20 28       	jnc	$+66     	;abs 0x1ace
    1a8e:	30 78       	subc	@r8+,	r0	
    1a90:	30 34       	jge	$+98     	;abs 0x1af2
    1a92:	29 00       	.word	0x0029;	????	
    1a94:	01 92       	cmp	r2,	r1	
    1a96:	01 52       	add	r2,	r1	
    1a98:	53 54       	.word	0x5453;	????	Illegal as 2-op instr
    1a9a:	49 46       	mov.b	r6,	r9	
    1a9c:	47 20       	jnz	$+144    	;abs 0x1b2c
    1a9e:	28 30       	jn	$+82     	;abs 0x1af0
    1aa0:	78 30       	jn	$+242    	;abs 0x1b92
    1aa2:	38 29       	jnc	$+626    	;abs 0x1d14
    1aa4:	00 01       	.word	0x0100;	????	
    1aa6:	93 01       	.word	0x0193;	????	
    1aa8:	4e 4d       	mov.b	r13,	r14	
    1aaa:	49 49       	mov.b	r9,	r9	
    1aac:	46 47       	mov.b	r7,	r6	
    1aae:	20 28       	jnc	$+66     	;abs 0x1af0
    1ab0:	30 78       	subc	@r8+,	r0	
    1ab2:	31 30       	jn	$+100    	;abs 0x1b16
    1ab4:	29 00       	.word	0x0029;	????	
    1ab6:	01 95       	cmp	r5,	r1	
    1ab8:	01 49       	mov	r9,	r1	
    1aba:	45 32       	jn	$-884    	;abs 0x1746
    1abc:	5f 20       	jnz	$+192    	;abs 0x1b7c
    1abe:	30 78       	subc	@r8+,	r0	
    1ac0:	30 30       	jn	$+98     	;abs 0x1b22
    1ac2:	30 31       	jn	$+610    	;abs 0x1d24
    1ac4:	00 01       	.word	0x0100;	????	
    1ac6:	97 01       	.word	0x0197;	????	
    1ac8:	55 43       	mov.b	#1,	r5	;r3 As==01
    1aca:	30 49       	br	@r9+		
    1acc:	45 20       	jnz	$+140    	;abs 0x1b58
    1ace:	49 45       	mov.b	r5,	r9	
    1ad0:	32 00       	.word	0x0032;	????	
    1ad2:	01 98       	cmp	r8,	r1	
    1ad4:	01 55       	add	r5,	r1	
    1ad6:	43 41       	.word	0x4143;	????	Illegal as 2-op instr
    1ad8:	30 52       	add	#8,	r0	;r2 As==11
    1ada:	58 49 45 20 	mov.b	8261(r9),r8	;0x2045(r9)
    1ade:	28 30       	jn	$+82     	;abs 0x1b30
    1ae0:	78 30       	jn	$+242    	;abs 0x1bd2
    1ae2:	31 29       	jnc	$+612    	;abs 0x1d46
    1ae4:	00 01       	.word	0x0100;	????	
    1ae6:	99 01       	.word	0x0199;	????	
    1ae8:	55 43       	mov.b	#1,	r5	;r3 As==01
    1aea:	41 30       	jn	$+132    	;abs 0x1b6e
    1aec:	54 58 49 45 	add.b	17737(r8),r4	;0x4549(r8)
    1af0:	20 28       	jnc	$+66     	;abs 0x1b32
    1af2:	30 78       	subc	@r8+,	r0	
    1af4:	30 32       	jn	$-926    	;abs 0x1756
    1af6:	29 00       	.word	0x0029;	????	
    1af8:	01 9a       	cmp	r10,	r1	
    1afa:	01 55       	add	r5,	r1	
    1afc:	43 42       	.word	0x4243;	????	Illegal as 2-op instr
    1afe:	30 52       	add	#8,	r0	;r2 As==11
    1b00:	58 49 45 20 	mov.b	8261(r9),r8	;0x2045(r9)
    1b04:	28 30       	jn	$+82     	;abs 0x1b56
    1b06:	78 30       	jn	$+242    	;abs 0x1bf8
    1b08:	34 29       	jnc	$+618    	;abs 0x1d72
    1b0a:	00 01       	.word	0x0100;	????	
    1b0c:	9b 01       	.word	0x019b;	????	
    1b0e:	55 43       	mov.b	#1,	r5	;r3 As==01
    1b10:	42 30       	jn	$+134    	;abs 0x1b96
    1b12:	54 58 49 45 	add.b	17737(r8),r4	;0x4549(r8)
    1b16:	20 28       	jnc	$+66     	;abs 0x1b58
    1b18:	30 78       	subc	@r8+,	r0	
    1b1a:	30 38       	jl	$+98     	;abs 0x1b7c
    1b1c:	29 00       	.word	0x0029;	????	
    1b1e:	01 9d       	cmp	r13,	r1	
    1b20:	01 49       	mov	r9,	r1	
    1b22:	46 47       	mov.b	r7,	r6	
    1b24:	32 5f       	add	@r15+,	r2	
    1b26:	20 30       	jn	$+66     	;abs 0x1b68
    1b28:	78 30       	jn	$+242    	;abs 0x1c1a
    1b2a:	30 30       	jn	$+98     	;abs 0x1b8c
    1b2c:	33 00       	.word	0x0033;	????	
    1b2e:	01 9f       	cmp	r15,	r1	
    1b30:	01 55       	add	r5,	r1	
    1b32:	43 30       	jn	$+136    	;abs 0x1bba
    1b34:	49 46       	mov.b	r6,	r9	
    1b36:	47 20       	jnz	$+144    	;abs 0x1bc6
    1b38:	49 46       	mov.b	r6,	r9	
    1b3a:	47 32       	jn	$-880    	;abs 0x17ca
    1b3c:	00 01       	.word	0x0100;	????	
    1b3e:	a0 01       	.word	0x01a0;	????	
    1b40:	55 43       	mov.b	#1,	r5	;r3 As==01
    1b42:	41 30       	jn	$+132    	;abs 0x1bc6
    1b44:	52 58 49 46 	add.b	17993(r8),r2	;0x4649(r8)
    1b48:	47 20       	jnz	$+144    	;abs 0x1bd8
    1b4a:	28 30       	jn	$+82     	;abs 0x1b9c
    1b4c:	78 30       	jn	$+242    	;abs 0x1c3e
    1b4e:	31 29       	jnc	$+612    	;abs 0x1db2
    1b50:	00 01       	.word	0x0100;	????	
    1b52:	a1 01       	.word	0x01a1;	????	
    1b54:	55 43       	mov.b	#1,	r5	;r3 As==01
    1b56:	41 30       	jn	$+132    	;abs 0x1bda
    1b58:	54 58 49 46 	add.b	17993(r8),r4	;0x4649(r8)
    1b5c:	47 20       	jnz	$+144    	;abs 0x1bec
    1b5e:	28 30       	jn	$+82     	;abs 0x1bb0
    1b60:	78 30       	jn	$+242    	;abs 0x1c52
    1b62:	32 29       	jnc	$+614    	;abs 0x1dc8
    1b64:	00 01       	.word	0x0100;	????	
    1b66:	a2 01       	.word	0x01a2;	????	
    1b68:	55 43       	mov.b	#1,	r5	;r3 As==01
    1b6a:	42 30       	jn	$+134    	;abs 0x1bf0
    1b6c:	52 58 49 46 	add.b	17993(r8),r2	;0x4649(r8)
    1b70:	47 20       	jnz	$+144    	;abs 0x1c00
    1b72:	28 30       	jn	$+82     	;abs 0x1bc4
    1b74:	78 30       	jn	$+242    	;abs 0x1c66
    1b76:	34 29       	jnc	$+618    	;abs 0x1de0
    1b78:	00 01       	.word	0x0100;	????	
    1b7a:	a3 01       	.word	0x01a3;	????	
    1b7c:	55 43       	mov.b	#1,	r5	;r3 As==01
    1b7e:	42 30       	jn	$+134    	;abs 0x1c04
    1b80:	54 58 49 46 	add.b	17993(r8),r4	;0x4649(r8)
    1b84:	47 20       	jnz	$+144    	;abs 0x1c14
    1b86:	28 30       	jn	$+82     	;abs 0x1bd8
    1b88:	78 30       	jn	$+242    	;abs 0x1c7a
    1b8a:	38 29       	jnc	$+626    	;abs 0x1dfc
    1b8c:	00 01       	.word	0x0100;	????	
    1b8e:	a9 01       	.word	0x01a9;	????	
    1b90:	5f 5f 4d 53 	add.b	21325(r15),r15	;0x534d(r15)
    1b94:	50 34       	jge	$+162    	;abs 0x1c36
    1b96:	33 30       	jn	$+104    	;abs 0x1bfe
    1b98:	5f 48 41 53 	mov.b	21313(r8),r15	;0x5341(r8)
    1b9c:	5f 41 44 43 	mov.b	17220(r1),r15	;0x4344(r1)
    1ba0:	31 30       	jn	$+100    	;abs 0x1c04
    1ba2:	5f 5f 20 00 	add.b	32(r15),r15	;0x0020(r15)
    1ba6:	01 ab       	dadd	r11,	r1	
    1ba8:	01 41       	mov	r1,	r1	
    1baa:	44 43       	clr.b	r4		
    1bac:	31 30       	jn	$+100    	;abs 0x1c10
    1bae:	44 54       	rla.b	r4		
    1bb0:	43 30       	jn	$+136    	;abs 0x1c38
    1bb2:	5f 20       	jnz	$+192    	;abs 0x1c72
    1bb4:	30 78       	subc	@r8+,	r0	
    1bb6:	30 30       	jn	$+98     	;abs 0x1c18
    1bb8:	34 38       	jl	$+106    	;abs 0x1c22
    1bba:	00 01       	.word	0x0100;	????	
    1bbc:	ad 01       	.word	0x01ad;	????	
    1bbe:	41 44       	mov.b	r4,	r1	
    1bc0:	43 31       	jn	$+648    	;abs 0x1e48
    1bc2:	30 44       	br	@r4+		
    1bc4:	54 43       	mov.b	#1,	r4	;r3 As==01
    1bc6:	31 5f       	add	@r15+,	r1	
    1bc8:	20 30       	jn	$+66     	;abs 0x1c0a
    1bca:	78 30       	jn	$+242    	;abs 0x1cbc
    1bcc:	30 34       	jge	$+98     	;abs 0x1c2e
    1bce:	39 00       	.word	0x0039;	????	
    1bd0:	01 af       	dadd	r15,	r1	
    1bd2:	01 41       	mov	r1,	r1	
    1bd4:	44 43       	clr.b	r4		
    1bd6:	31 30       	jn	$+100    	;abs 0x1c3a
    1bd8:	41 45       	mov.b	r5,	r1	
    1bda:	30 5f       	add	@r15+,	r0	
    1bdc:	20 30       	jn	$+66     	;abs 0x1c1e
    1bde:	78 30       	jn	$+242    	;abs 0x1cd0
    1be0:	30 34       	jge	$+98     	;abs 0x1c42
    1be2:	41 00       	.word	0x0041;	????	
    1be4:	01 b2       	bit	r2,	r1	
    1be6:	01 41       	mov	r1,	r1	
    1be8:	44 43       	clr.b	r4		
    1bea:	31 30       	jn	$+100    	;abs 0x1c4e
    1bec:	43 54       	.word	0x5443;	????	Illegal as 2-op instr
    1bee:	4c 30       	jn	$+154    	;abs 0x1c88
    1bf0:	5f 20       	jnz	$+192    	;abs 0x1cb0
    1bf2:	30 78       	subc	@r8+,	r0	
    1bf4:	30 31       	jn	$+610    	;abs 0x1e56
    1bf6:	42 30       	jn	$+134    	;abs 0x1c7c
    1bf8:	00 01       	.word	0x0100;	????	
    1bfa:	b4 01       	.word	0x01b4;	????	
    1bfc:	41 44       	mov.b	r4,	r1	
    1bfe:	43 31       	jn	$+648    	;abs 0x1e86
    1c00:	30 43       	br	#-1		;r3 As==11
    1c02:	54 4c 31 5f 	mov.b	24369(r12),r4	;0x5f31(r12)
    1c06:	20 30       	jn	$+66     	;abs 0x1c48
    1c08:	78 30       	jn	$+242    	;abs 0x1cfa
    1c0a:	31 42       	mov	#8,	r1	;r2 As==11
    1c0c:	32 00       	.word	0x0032;	????	
    1c0e:	01 b6       	bit	r6,	r1	
    1c10:	01 41       	mov	r1,	r1	
    1c12:	44 43       	clr.b	r4		
    1c14:	31 30       	jn	$+100    	;abs 0x1c78
    1c16:	4d 45       	mov.b	r5,	r13	
    1c18:	4d 5f       	add.b	r15,	r13	
    1c1a:	20 30       	jn	$+66     	;abs 0x1c5c
    1c1c:	78 30       	jn	$+242    	;abs 0x1d0e
    1c1e:	31 42       	mov	#8,	r1	;r2 As==11
    1c20:	34 00       	.word	0x0034;	????	
    1c22:	01 b8       	bit	r8,	r1	
    1c24:	01 41       	mov	r1,	r1	
    1c26:	44 43       	clr.b	r4		
    1c28:	31 30       	jn	$+100    	;abs 0x1c8c
    1c2a:	53 41       	.word	0x4153;	????	Illegal as 2-op instr
    1c2c:	5f 20       	jnz	$+192    	;abs 0x1cec
    1c2e:	30 78       	subc	@r8+,	r0	
    1c30:	30 31       	jn	$+610    	;abs 0x1e92
    1c32:	42 43       	clr.b	r2		
    1c34:	00 01       	.word	0x0100;	????	
    1c36:	bc 01       	.word	0x01bc;	????	
    1c38:	41 44       	mov.b	r4,	r1	
    1c3a:	43 31       	jn	$+648    	;abs 0x1ec2
    1c3c:	30 53       	add	#-1,	r0	;r3 As==11
    1c3e:	43 20       	jnz	$+136    	;abs 0x1cc6
    1c40:	28 30       	jn	$+82     	;abs 0x1c92
    1c42:	78 30       	jn	$+242    	;abs 0x1d34
    1c44:	30 31       	jn	$+610    	;abs 0x1ea6
    1c46:	29 00       	.word	0x0029;	????	
    1c48:	01 bd       	bit	r13,	r1	
    1c4a:	01 45       	mov	r5,	r1	
    1c4c:	4e 43       	clr.b	r14		
    1c4e:	20 28       	jnc	$+66     	;abs 0x1c90
    1c50:	30 78       	subc	@r8+,	r0	
    1c52:	30 30       	jn	$+98     	;abs 0x1cb4
    1c54:	32 29       	jnc	$+614    	;abs 0x1eba
    1c56:	00 01       	.word	0x0100;	????	
    1c58:	be 01       	.word	0x01be;	????	
    1c5a:	41 44       	mov.b	r4,	r1	
    1c5c:	43 31       	jn	$+648    	;abs 0x1ee4
    1c5e:	30 49       	br	@r9+		
    1c60:	46 47       	mov.b	r7,	r6	
    1c62:	20 28       	jnc	$+66     	;abs 0x1ca4
    1c64:	30 78       	subc	@r8+,	r0	
    1c66:	30 30       	jn	$+98     	;abs 0x1cc8
    1c68:	34 29       	jnc	$+618    	;abs 0x1ed2
    1c6a:	00 01       	.word	0x0100;	????	
    1c6c:	bf 01       	.word	0x01bf;	????	
    1c6e:	41 44       	mov.b	r4,	r1	
    1c70:	43 31       	jn	$+648    	;abs 0x1ef8
    1c72:	30 49       	br	@r9+		
    1c74:	45 20       	jnz	$+140    	;abs 0x1d00
    1c76:	28 30       	jn	$+82     	;abs 0x1cc8
    1c78:	78 30       	jn	$+242    	;abs 0x1d6a
    1c7a:	30 38       	jl	$+98     	;abs 0x1cdc
    1c7c:	29 00       	.word	0x0029;	????	
    1c7e:	01 c0       	bic	r0,	r1	
    1c80:	01 41       	mov	r1,	r1	
    1c82:	44 43       	clr.b	r4		
    1c84:	31 30       	jn	$+100    	;abs 0x1ce8
    1c86:	4f 4e       	mov.b	r14,	r15	
    1c88:	20 28       	jnc	$+66     	;abs 0x1cca
    1c8a:	30 78       	subc	@r8+,	r0	
    1c8c:	30 31       	jn	$+610    	;abs 0x1eee
    1c8e:	30 29       	jnc	$+610    	;abs 0x1ef0
    1c90:	00 01       	.word	0x0100;	????	
    1c92:	c1 01       	.word	0x01c1;	????	
    1c94:	52 45 46 4f 	mov.b	20294(r5),r2	;0x4f46(r5)
    1c98:	4e 20       	jnz	$+158    	;abs 0x1d36
    1c9a:	28 30       	jn	$+82     	;abs 0x1cec
    1c9c:	78 30       	jn	$+242    	;abs 0x1d8e
    1c9e:	32 30       	jn	$+102    	;abs 0x1d04
    1ca0:	29 00       	.word	0x0029;	????	
    1ca2:	01 c2       	bic	r2,	r1	
    1ca4:	01 52       	add	r2,	r1	
    1ca6:	45 46       	mov.b	r6,	r5	
    1ca8:	32 5f       	add	@r15+,	r2	
    1caa:	35 56       	add	@r6+,	r5	
    1cac:	20 28       	jnc	$+66     	;abs 0x1cee
    1cae:	30 78       	subc	@r8+,	r0	
    1cb0:	30 34       	jge	$+98     	;abs 0x1d12
    1cb2:	30 29       	jnc	$+610    	;abs 0x1f14
    1cb4:	00 01       	.word	0x0100;	????	
    1cb6:	c3 01       	.word	0x01c3;	????	
    1cb8:	4d 53       	add.b	#0,	r13	;r3 As==00
    1cba:	43 20       	jnz	$+136    	;abs 0x1d42
    1cbc:	28 30       	jn	$+82     	;abs 0x1d0e
    1cbe:	78 30       	jn	$+242    	;abs 0x1db0
    1cc0:	38 30       	jn	$+114    	;abs 0x1d32
    1cc2:	29 00       	.word	0x0029;	????	
    1cc4:	01 c4       	bic	r4,	r1	
    1cc6:	01 52       	add	r2,	r1	
    1cc8:	45 46       	mov.b	r6,	r5	
    1cca:	42 55       	add.b	r5,	r2	
    1ccc:	52 53       	inc.b	r2		
    1cce:	54 20       	jnz	$+170    	;abs 0x1d78
    1cd0:	28 30       	jn	$+82     	;abs 0x1d22
    1cd2:	78 31       	jn	$+754    	;abs 0x1fc4
    1cd4:	30 30       	jn	$+98     	;abs 0x1d36
    1cd6:	29 00       	.word	0x0029;	????	
    1cd8:	01 c5       	bic	r5,	r1	
    1cda:	01 52       	add	r2,	r1	
    1cdc:	45 46       	mov.b	r6,	r5	
    1cde:	4f 55       	add.b	r5,	r15	
    1ce0:	54 20       	jnz	$+170    	;abs 0x1d8a
    1ce2:	28 30       	jn	$+82     	;abs 0x1d34
    1ce4:	78 32       	jn	$-782    	;abs 0x19d6
    1ce6:	30 30       	jn	$+98     	;abs 0x1d48
    1ce8:	29 00       	.word	0x0029;	????	
    1cea:	01 c6       	bic	r6,	r1	
    1cec:	01 41       	mov	r1,	r1	
    1cee:	44 43       	clr.b	r4		
    1cf0:	31 30       	jn	$+100    	;abs 0x1d54
    1cf2:	53 52       	.word	0x5253;	????	Illegal as 2-op instr
    1cf4:	20 28       	jnc	$+66     	;abs 0x1d36
    1cf6:	30 78       	subc	@r8+,	r0	
    1cf8:	34 30       	jn	$+106    	;abs 0x1d62
    1cfa:	30 29       	jnc	$+610    	;abs 0x1f5c
    1cfc:	00 01       	.word	0x0100;	????	
    1cfe:	c7 01       	.word	0x01c7;	????	
    1d00:	41 44       	mov.b	r4,	r1	
    1d02:	43 31       	jn	$+648    	;abs 0x1f8a
    1d04:	30 53       	add	#-1,	r0	;r3 As==11
    1d06:	48 54       	add.b	r4,	r8	
    1d08:	30 20       	jnz	$+98     	;abs 0x1d6a
    1d0a:	28 30       	jn	$+82     	;abs 0x1d5c
    1d0c:	78 38       	jl	$+242    	;abs 0x1dfe
    1d0e:	30 30       	jn	$+98     	;abs 0x1d70
    1d10:	29 00       	.word	0x0029;	????	
    1d12:	01 c8       	bic	r8,	r1	
    1d14:	01 41       	mov	r1,	r1	
    1d16:	44 43       	clr.b	r4		
    1d18:	31 30       	jn	$+100    	;abs 0x1d7c
    1d1a:	53 48       	.word	0x4853;	????	Illegal as 2-op instr
    1d1c:	54 31       	jn	$+682    	;abs 0x1fc6
    1d1e:	20 28       	jnc	$+66     	;abs 0x1d60
    1d20:	30 78       	subc	@r8+,	r0	
    1d22:	31 30       	jn	$+100    	;abs 0x1d86
    1d24:	30 30       	jn	$+98     	;abs 0x1d86
    1d26:	29 00       	.word	0x0029;	????	
    1d28:	01 c9       	bic	r9,	r1	
    1d2a:	01 53       	add	#0,	r1	;r3 As==00
    1d2c:	52 45 46 30 	mov.b	12358(r5),r2	;0x3046(r5)
    1d30:	20 28       	jnc	$+66     	;abs 0x1d72
    1d32:	30 78       	subc	@r8+,	r0	
    1d34:	32 30       	jn	$+102    	;abs 0x1d9a
    1d36:	30 30       	jn	$+98     	;abs 0x1d98
    1d38:	29 00       	.word	0x0029;	????	
    1d3a:	01 ca       	bic	r10,	r1	
    1d3c:	01 53       	add	#0,	r1	;r3 As==00
    1d3e:	52 45 46 31 	mov.b	12614(r5),r2	;0x3146(r5)
    1d42:	20 28       	jnc	$+66     	;abs 0x1d84
    1d44:	30 78       	subc	@r8+,	r0	
    1d46:	34 30       	jn	$+106    	;abs 0x1db0
    1d48:	30 30       	jn	$+98     	;abs 0x1daa
    1d4a:	29 00       	.word	0x0029;	????	
    1d4c:	01 cb       	bic	r11,	r1	
    1d4e:	01 53       	add	#0,	r1	;r3 As==00
    1d50:	52 45 46 32 	mov.b	12870(r5),r2	;0x3246(r5)
    1d54:	20 28       	jnc	$+66     	;abs 0x1d96
    1d56:	30 78       	subc	@r8+,	r0	
    1d58:	38 30       	jn	$+114    	;abs 0x1dca
    1d5a:	30 30       	jn	$+98     	;abs 0x1dbc
    1d5c:	29 00       	.word	0x0029;	????	
    1d5e:	01 cc       	bic	r12,	r1	
    1d60:	01 41       	mov	r1,	r1	
    1d62:	44 43       	clr.b	r4		
    1d64:	31 30       	jn	$+100    	;abs 0x1dc8
    1d66:	53 48       	.word	0x4853;	????	Illegal as 2-op instr
    1d68:	54 5f 30 20 	add.b	8240(r15),r4	;0x2030(r15)
    1d6c:	28 30       	jn	$+82     	;abs 0x1dbe
    1d6e:	78 30       	jn	$+242    	;abs 0x1e60
    1d70:	30 30       	jn	$+98     	;abs 0x1dd2
    1d72:	30 29       	jnc	$+610    	;abs 0x1fd4
    1d74:	00 01       	.word	0x0100;	????	
    1d76:	cd 01       	.word	0x01cd;	????	
    1d78:	41 44       	mov.b	r4,	r1	
    1d7a:	43 31       	jn	$+648    	;abs 0x2002
    1d7c:	30 53       	add	#-1,	r0	;r3 As==11
    1d7e:	48 54       	add.b	r4,	r8	
    1d80:	5f 31       	jn	$+704    	;abs 0x2040
    1d82:	20 28       	jnc	$+66     	;abs 0x1dc4
    1d84:	30 78       	subc	@r8+,	r0	
    1d86:	30 38       	jl	$+98     	;abs 0x1de8
    1d88:	30 30       	jn	$+98     	;abs 0x1dea
    1d8a:	29 00       	.word	0x0029;	????	
    1d8c:	01 ce       	bic	r14,	r1	
    1d8e:	01 41       	mov	r1,	r1	
    1d90:	44 43       	clr.b	r4		
    1d92:	31 30       	jn	$+100    	;abs 0x1df6
    1d94:	53 48       	.word	0x4853;	????	Illegal as 2-op instr
    1d96:	54 5f 32 20 	add.b	8242(r15),r4	;0x2032(r15)
    1d9a:	28 30       	jn	$+82     	;abs 0x1dec
    1d9c:	78 31       	jn	$+754    	;abs 0x208e
    1d9e:	30 30       	jn	$+98     	;abs 0x1e00
    1da0:	30 29       	jnc	$+610    	;abs 0x2002
    1da2:	00 01       	.word	0x0100;	????	
    1da4:	cf 01       	.word	0x01cf;	????	
    1da6:	41 44       	mov.b	r4,	r1	
    1da8:	43 31       	jn	$+648    	;abs 0x2030
    1daa:	30 53       	add	#-1,	r0	;r3 As==11
    1dac:	48 54       	add.b	r4,	r8	
    1dae:	5f 33       	jn	$-320    	;abs 0x1c6e
    1db0:	20 28       	jnc	$+66     	;abs 0x1df2
    1db2:	30 78       	subc	@r8+,	r0	
    1db4:	31 38       	jl	$+100    	;abs 0x1e18
    1db6:	30 30       	jn	$+98     	;abs 0x1e18
    1db8:	29 00       	.word	0x0029;	????	
    1dba:	01 d1       	bis	r1,	r1	
    1dbc:	01 53       	add	#0,	r1	;r3 As==00
    1dbe:	52 45 46 5f 	mov.b	24390(r5),r2	;0x5f46(r5)
    1dc2:	30 20       	jnz	$+98     	;abs 0x1e24
    1dc4:	28 30       	jn	$+82     	;abs 0x1e16
    1dc6:	78 30       	jn	$+242    	;abs 0x1eb8
    1dc8:	30 30       	jn	$+98     	;abs 0x1e2a
    1dca:	30 29       	jnc	$+610    	;abs 0x202c
    1dcc:	00 01       	.word	0x0100;	????	
    1dce:	d2 01       	.word	0x01d2;	????	
    1dd0:	53 52       	.word	0x5253;	????	Illegal as 2-op instr
    1dd2:	45 46       	mov.b	r6,	r5	
    1dd4:	5f 31       	jn	$+704    	;abs 0x2094
    1dd6:	20 28       	jnc	$+66     	;abs 0x1e18
    1dd8:	30 78       	subc	@r8+,	r0	
    1dda:	32 30       	jn	$+102    	;abs 0x1e40
    1ddc:	30 30       	jn	$+98     	;abs 0x1e3e
    1dde:	29 00       	.word	0x0029;	????	
    1de0:	01 d3       	bis	#0,	r1	;r3 As==00
    1de2:	01 53       	add	#0,	r1	;r3 As==00
    1de4:	52 45 46 5f 	mov.b	24390(r5),r2	;0x5f46(r5)
    1de8:	32 20       	jnz	$+102    	;abs 0x1e4e
    1dea:	28 30       	jn	$+82     	;abs 0x1e3c
    1dec:	78 34       	jge	$+242    	;abs 0x1ede
    1dee:	30 30       	jn	$+98     	;abs 0x1e50
    1df0:	30 29       	jnc	$+610    	;abs 0x2052
    1df2:	00 01       	.word	0x0100;	????	
    1df4:	d4 01       	.word	0x01d4;	????	
    1df6:	53 52       	.word	0x5253;	????	Illegal as 2-op instr
    1df8:	45 46       	mov.b	r6,	r5	
    1dfa:	5f 33       	jn	$-320    	;abs 0x1cba
    1dfc:	20 28       	jnc	$+66     	;abs 0x1e3e
    1dfe:	30 78       	subc	@r8+,	r0	
    1e00:	36 30       	jn	$+110    	;abs 0x1e6e
    1e02:	30 30       	jn	$+98     	;abs 0x1e64
    1e04:	29 00       	.word	0x0029;	????	
    1e06:	01 d5       	bis	r5,	r1	
    1e08:	01 53       	add	#0,	r1	;r3 As==00
    1e0a:	52 45 46 5f 	mov.b	24390(r5),r2	;0x5f46(r5)
    1e0e:	34 20       	jnz	$+106    	;abs 0x1e78
    1e10:	28 30       	jn	$+82     	;abs 0x1e62
    1e12:	78 38       	jl	$+242    	;abs 0x1f04
    1e14:	30 30       	jn	$+98     	;abs 0x1e76
    1e16:	30 29       	jnc	$+610    	;abs 0x2078
    1e18:	00 01       	.word	0x0100;	????	
    1e1a:	d6 01       	.word	0x01d6;	????	
    1e1c:	53 52       	.word	0x5253;	????	Illegal as 2-op instr
    1e1e:	45 46       	mov.b	r6,	r5	
    1e20:	5f 35       	jge	$+704    	;abs 0x20e0
    1e22:	20 28       	jnc	$+66     	;abs 0x1e64
    1e24:	30 78       	subc	@r8+,	r0	
    1e26:	41 30       	jn	$+132    	;abs 0x1eaa
    1e28:	30 30       	jn	$+98     	;abs 0x1e8a
    1e2a:	29 00       	.word	0x0029;	????	
    1e2c:	01 d7       	bis	r7,	r1	
    1e2e:	01 53       	add	#0,	r1	;r3 As==00
    1e30:	52 45 46 5f 	mov.b	24390(r5),r2	;0x5f46(r5)
    1e34:	36 20       	jnz	$+110    	;abs 0x1ea2
    1e36:	28 30       	jn	$+82     	;abs 0x1e88
    1e38:	78 43       	mov.b	#-1,	r8	;r3 As==11
    1e3a:	30 30       	jn	$+98     	;abs 0x1e9c
    1e3c:	30 29       	jnc	$+610    	;abs 0x209e
    1e3e:	00 01       	.word	0x0100;	????	
    1e40:	d8 01       	.word	0x01d8;	????	
    1e42:	53 52       	.word	0x5253;	????	Illegal as 2-op instr
    1e44:	45 46       	mov.b	r6,	r5	
    1e46:	5f 37       	jge	$-320    	;abs 0x1d06
    1e48:	20 28       	jnc	$+66     	;abs 0x1e8a
    1e4a:	30 78       	subc	@r8+,	r0	
    1e4c:	45 30       	jn	$+140    	;abs 0x1ed8
    1e4e:	30 30       	jn	$+98     	;abs 0x1eb0
    1e50:	29 00       	.word	0x0029;	????	
    1e52:	01 db       	bis	r11,	r1	
    1e54:	01 41       	mov	r1,	r1	
    1e56:	44 43       	clr.b	r4		
    1e58:	31 30       	jn	$+100    	;abs 0x1ebc
    1e5a:	42 55       	add.b	r5,	r2	
    1e5c:	53 59       	.word	0x5953;	????	Illegal as 2-op instr
    1e5e:	20 28       	jnc	$+66     	;abs 0x1ea0
    1e60:	30 78       	subc	@r8+,	r0	
    1e62:	30 30       	jn	$+98     	;abs 0x1ec4
    1e64:	30 31       	jn	$+610    	;abs 0x20c6
    1e66:	29 00       	.word	0x0029;	????	
    1e68:	01 dc       	bis	r12,	r1	
    1e6a:	01 43       	clr	r1		
    1e6c:	4f 4e       	mov.b	r14,	r15	
    1e6e:	53 45       	.word	0x4553;	????	Illegal as 2-op instr
    1e70:	51 30       	jn	$+164    	;abs 0x1f14
    1e72:	20 28       	jnc	$+66     	;abs 0x1eb4
    1e74:	30 78       	subc	@r8+,	r0	
    1e76:	30 30       	jn	$+98     	;abs 0x1ed8
    1e78:	30 32       	jn	$-926    	;abs 0x1ada
    1e7a:	29 00       	.word	0x0029;	????	
    1e7c:	01 dd       	bis	r13,	r1	
    1e7e:	01 43       	clr	r1		
    1e80:	4f 4e       	mov.b	r14,	r15	
    1e82:	53 45       	.word	0x4553;	????	Illegal as 2-op instr
    1e84:	51 31       	jn	$+676    	;abs 0x2128
    1e86:	20 28       	jnc	$+66     	;abs 0x1ec8
    1e88:	30 78       	subc	@r8+,	r0	
    1e8a:	30 30       	jn	$+98     	;abs 0x1eec
    1e8c:	30 34       	jge	$+98     	;abs 0x1eee
    1e8e:	29 00       	.word	0x0029;	????	
    1e90:	01 de       	bis	r14,	r1	
    1e92:	01 41       	mov	r1,	r1	
    1e94:	44 43       	clr.b	r4		
    1e96:	31 30       	jn	$+100    	;abs 0x1efa
    1e98:	53 53       	inc.b	#0		;r3 As==00
    1e9a:	45 4c       	mov.b	r12,	r5	
    1e9c:	30 20       	jnz	$+98     	;abs 0x1efe
    1e9e:	28 30       	jn	$+82     	;abs 0x1ef0
    1ea0:	78 30       	jn	$+242    	;abs 0x1f92
    1ea2:	30 30       	jn	$+98     	;abs 0x1f04
    1ea4:	38 29       	jnc	$+626    	;abs 0x2116
    1ea6:	00 01       	.word	0x0100;	????	
    1ea8:	df 01       	.word	0x01df;	????	
    1eaa:	41 44       	mov.b	r4,	r1	
    1eac:	43 31       	jn	$+648    	;abs 0x2134
    1eae:	30 53       	add	#-1,	r0	;r3 As==11
    1eb0:	53 45       	.word	0x4553;	????	Illegal as 2-op instr
    1eb2:	4c 31       	jn	$+666    	;abs 0x214c
    1eb4:	20 28       	jnc	$+66     	;abs 0x1ef6
    1eb6:	30 78       	subc	@r8+,	r0	
    1eb8:	30 30       	jn	$+98     	;abs 0x1f1a
    1eba:	31 30       	jn	$+100    	;abs 0x1f1e
    1ebc:	29 00       	.word	0x0029;	????	
    1ebe:	01 e0       	xor	r0,	r1	
    1ec0:	01 41       	mov	r1,	r1	
    1ec2:	44 43       	clr.b	r4		
    1ec4:	31 30       	jn	$+100    	;abs 0x1f28
    1ec6:	44 49       	mov.b	r9,	r4	
    1ec8:	56 30       	jn	$+174    	;abs 0x1f76
    1eca:	20 28       	jnc	$+66     	;abs 0x1f0c
    1ecc:	30 78       	subc	@r8+,	r0	
    1ece:	30 30       	jn	$+98     	;abs 0x1f30
    1ed0:	32 30       	jn	$+102    	;abs 0x1f36
    1ed2:	29 00       	.word	0x0029;	????	
    1ed4:	01 e1       	xor	r1,	r1	
    1ed6:	01 41       	mov	r1,	r1	
    1ed8:	44 43       	clr.b	r4		
    1eda:	31 30       	jn	$+100    	;abs 0x1f3e
    1edc:	44 49       	mov.b	r9,	r4	
    1ede:	56 31       	jn	$+686    	;abs 0x218c
    1ee0:	20 28       	jnc	$+66     	;abs 0x1f22
    1ee2:	30 78       	subc	@r8+,	r0	
    1ee4:	30 30       	jn	$+98     	;abs 0x1f46
    1ee6:	34 30       	jn	$+106    	;abs 0x1f50
    1ee8:	29 00       	.word	0x0029;	????	
    1eea:	01 e2       	xor	r2,	r1	
    1eec:	01 41       	mov	r1,	r1	
    1eee:	44 43       	clr.b	r4		
    1ef0:	31 30       	jn	$+100    	;abs 0x1f54
    1ef2:	44 49       	mov.b	r9,	r4	
    1ef4:	56 32       	jn	$-850    	;abs 0x1ba2
    1ef6:	20 28       	jnc	$+66     	;abs 0x1f38
    1ef8:	30 78       	subc	@r8+,	r0	
    1efa:	30 30       	jn	$+98     	;abs 0x1f5c
    1efc:	38 30       	jn	$+114    	;abs 0x1f6e
    1efe:	29 00       	.word	0x0029;	????	
    1f00:	01 e3       	xor	#0,	r1	;r3 As==00
    1f02:	01 49       	mov	r9,	r1	
    1f04:	53 53       	inc.b	#0		;r3 As==00
    1f06:	48 20       	jnz	$+146    	;abs 0x1f98
    1f08:	28 30       	jn	$+82     	;abs 0x1f5a
    1f0a:	78 30       	jn	$+242    	;abs 0x1ffc
    1f0c:	31 30       	jn	$+100    	;abs 0x1f70
    1f0e:	30 29       	jnc	$+610    	;abs 0x2170
    1f10:	00 01       	.word	0x0100;	????	
    1f12:	e4 01       	.word	0x01e4;	????	
    1f14:	41 44       	mov.b	r4,	r1	
    1f16:	43 31       	jn	$+648    	;abs 0x219e
    1f18:	30 44       	br	@r4+		
    1f1a:	46 20       	jnz	$+142    	;abs 0x1fa8
    1f1c:	28 30       	jn	$+82     	;abs 0x1f6e
    1f1e:	78 30       	jn	$+242    	;abs 0x2010
    1f20:	32 30       	jn	$+102    	;abs 0x1f86
    1f22:	30 29       	jnc	$+610    	;abs 0x2184
    1f24:	00 01       	.word	0x0100;	????	
    1f26:	e5 01       	.word	0x01e5;	????	
    1f28:	53 48       	.word	0x4853;	????	Illegal as 2-op instr
    1f2a:	53 30       	jn	$+168    	;abs 0x1fd2
    1f2c:	20 28       	jnc	$+66     	;abs 0x1f6e
    1f2e:	30 78       	subc	@r8+,	r0	
    1f30:	30 34       	jge	$+98     	;abs 0x1f92
    1f32:	30 30       	jn	$+98     	;abs 0x1f94
    1f34:	29 00       	.word	0x0029;	????	
    1f36:	01 e6       	xor	r6,	r1	
    1f38:	01 53       	add	#0,	r1	;r3 As==00
    1f3a:	48 53       	add.b	#0,	r8	;r3 As==00
    1f3c:	31 20       	jnz	$+100    	;abs 0x1fa0
    1f3e:	28 30       	jn	$+82     	;abs 0x1f90
    1f40:	78 30       	jn	$+242    	;abs 0x2032
    1f42:	38 30       	jn	$+114    	;abs 0x1fb4
    1f44:	30 29       	jnc	$+610    	;abs 0x21a6
    1f46:	00 01       	.word	0x0100;	????	
    1f48:	e7 01       	.word	0x01e7;	????	
    1f4a:	49 4e       	mov.b	r14,	r9	
    1f4c:	43 48       	.word	0x4843;	????	Illegal as 2-op instr
    1f4e:	30 20       	jnz	$+98     	;abs 0x1fb0
    1f50:	28 30       	jn	$+82     	;abs 0x1fa2
    1f52:	78 31       	jn	$+754    	;abs 0x2244
    1f54:	30 30       	jn	$+98     	;abs 0x1fb6
    1f56:	30 29       	jnc	$+610    	;abs 0x21b8
    1f58:	00 01       	.word	0x0100;	????	
    1f5a:	e8 01       	.word	0x01e8;	????	
    1f5c:	49 4e       	mov.b	r14,	r9	
    1f5e:	43 48       	.word	0x4843;	????	Illegal as 2-op instr
    1f60:	31 20       	jnz	$+100    	;abs 0x1fc4
    1f62:	28 30       	jn	$+82     	;abs 0x1fb4
    1f64:	78 32       	jn	$-782    	;abs 0x1c56
    1f66:	30 30       	jn	$+98     	;abs 0x1fc8
    1f68:	30 29       	jnc	$+610    	;abs 0x21ca
    1f6a:	00 01       	.word	0x0100;	????	
    1f6c:	e9 01       	.word	0x01e9;	????	
    1f6e:	49 4e       	mov.b	r14,	r9	
    1f70:	43 48       	.word	0x4843;	????	Illegal as 2-op instr
    1f72:	32 20       	jnz	$+102    	;abs 0x1fd8
    1f74:	28 30       	jn	$+82     	;abs 0x1fc6
    1f76:	78 34       	jge	$+242    	;abs 0x2068
    1f78:	30 30       	jn	$+98     	;abs 0x1fda
    1f7a:	30 29       	jnc	$+610    	;abs 0x21dc
    1f7c:	00 01       	.word	0x0100;	????	
    1f7e:	ea 01       	.word	0x01ea;	????	
    1f80:	49 4e       	mov.b	r14,	r9	
    1f82:	43 48       	.word	0x4843;	????	Illegal as 2-op instr
    1f84:	33 20       	jnz	$+104    	;abs 0x1fec
    1f86:	28 30       	jn	$+82     	;abs 0x1fd8
    1f88:	78 38       	jl	$+242    	;abs 0x207a
    1f8a:	30 30       	jn	$+98     	;abs 0x1fec
    1f8c:	30 29       	jnc	$+610    	;abs 0x21ee
    1f8e:	00 01       	.word	0x0100;	????	
    1f90:	ec 01       	.word	0x01ec;	????	
    1f92:	43 4f       	.word	0x4f43;	????	Illegal as 2-op instr
    1f94:	4e 53       	add.b	#0,	r14	;r3 As==00
    1f96:	45 51       	add.b	r1,	r5	
    1f98:	5f 30       	jn	$+192    	;abs 0x2058
    1f9a:	20 28       	jnc	$+66     	;abs 0x1fdc
    1f9c:	30 78       	subc	@r8+,	r0	
    1f9e:	30 30       	jn	$+98     	;abs 0x2000
    1fa0:	30 30       	jn	$+98     	;abs 0x2002
    1fa2:	29 00       	.word	0x0029;	????	
    1fa4:	01 ed       	xor	r13,	r1	
    1fa6:	01 43       	clr	r1		
    1fa8:	4f 4e       	mov.b	r14,	r15	
    1faa:	53 45       	.word	0x4553;	????	Illegal as 2-op instr
    1fac:	51 5f 31 20 	add.b	8241(r15),r1	;0x2031(r15)
    1fb0:	28 30       	jn	$+82     	;abs 0x2002
    1fb2:	78 30       	jn	$+242    	;abs 0x20a4
    1fb4:	30 30       	jn	$+98     	;abs 0x2016
    1fb6:	32 29       	jnc	$+614    	;abs 0x221c
    1fb8:	00 01       	.word	0x0100;	????	
    1fba:	ee 01       	.word	0x01ee;	????	
    1fbc:	43 4f       	.word	0x4f43;	????	Illegal as 2-op instr
    1fbe:	4e 53       	add.b	#0,	r14	;r3 As==00
    1fc0:	45 51       	add.b	r1,	r5	
    1fc2:	5f 32       	jn	$-832    	;abs 0x1c82
    1fc4:	20 28       	jnc	$+66     	;abs 0x2006
    1fc6:	30 78       	subc	@r8+,	r0	
    1fc8:	30 30       	jn	$+98     	;abs 0x202a
    1fca:	30 34       	jge	$+98     	;abs 0x202c
    1fcc:	29 00       	.word	0x0029;	????	
    1fce:	01 ef       	xor	r15,	r1	
    1fd0:	01 43       	clr	r1		
    1fd2:	4f 4e       	mov.b	r14,	r15	
    1fd4:	53 45       	.word	0x4553;	????	Illegal as 2-op instr
    1fd6:	51 5f 33 20 	add.b	8243(r15),r1	;0x2033(r15)
    1fda:	28 30       	jn	$+82     	;abs 0x202c
    1fdc:	78 30       	jn	$+242    	;abs 0x20ce
    1fde:	30 30       	jn	$+98     	;abs 0x2040
    1fe0:	36 29       	jnc	$+622    	;abs 0x224e
    1fe2:	00 01       	.word	0x0100;	????	
    1fe4:	f1 01       	.word	0x01f1;	????	
    1fe6:	41 44       	mov.b	r4,	r1	
    1fe8:	43 31       	jn	$+648    	;abs 0x2270
    1fea:	30 53       	add	#-1,	r0	;r3 As==11
    1fec:	53 45       	.word	0x4553;	????	Illegal as 2-op instr
    1fee:	4c 5f       	add.b	r15,	r12	
    1ff0:	30 20       	jnz	$+98     	;abs 0x2052
    1ff2:	28 30       	jn	$+82     	;abs 0x2044
    1ff4:	78 30       	jn	$+242    	;abs 0x20e6
    1ff6:	30 30       	jn	$+98     	;abs 0x2058
    1ff8:	30 29       	jnc	$+610    	;abs 0x225a
    1ffa:	00 01       	.word	0x0100;	????	
    1ffc:	f2 01       	.word	0x01f2;	????	
    1ffe:	41 44       	mov.b	r4,	r1	
    2000:	43 31       	jn	$+648    	;abs 0x2288
    2002:	30 53       	add	#-1,	r0	;r3 As==11
    2004:	53 45       	.word	0x4553;	????	Illegal as 2-op instr
    2006:	4c 5f       	add.b	r15,	r12	
    2008:	31 20       	jnz	$+100    	;abs 0x206c
    200a:	28 30       	jn	$+82     	;abs 0x205c
    200c:	78 30       	jn	$+242    	;abs 0x20fe
    200e:	30 30       	jn	$+98     	;abs 0x2070
    2010:	38 29       	jnc	$+626    	;abs 0x2282
    2012:	00 01       	.word	0x0100;	????	
    2014:	f3 01       	.word	0x01f3;	????	
    2016:	41 44       	mov.b	r4,	r1	
    2018:	43 31       	jn	$+648    	;abs 0x22a0
    201a:	30 53       	add	#-1,	r0	;r3 As==11
    201c:	53 45       	.word	0x4553;	????	Illegal as 2-op instr
    201e:	4c 5f       	add.b	r15,	r12	
    2020:	32 20       	jnz	$+102    	;abs 0x2086
    2022:	28 30       	jn	$+82     	;abs 0x2074
    2024:	78 30       	jn	$+242    	;abs 0x2116
    2026:	30 31       	jn	$+610    	;abs 0x2288
    2028:	30 29       	jnc	$+610    	;abs 0x228a
    202a:	00 01       	.word	0x0100;	????	
    202c:	f4 01       	.word	0x01f4;	????	
    202e:	41 44       	mov.b	r4,	r1	
    2030:	43 31       	jn	$+648    	;abs 0x22b8
    2032:	30 53       	add	#-1,	r0	;r3 As==11
    2034:	53 45       	.word	0x4553;	????	Illegal as 2-op instr
    2036:	4c 5f       	add.b	r15,	r12	
    2038:	33 20       	jnz	$+104    	;abs 0x20a0
    203a:	28 30       	jn	$+82     	;abs 0x208c
    203c:	78 30       	jn	$+242    	;abs 0x212e
    203e:	30 31       	jn	$+610    	;abs 0x22a0
    2040:	38 29       	jnc	$+626    	;abs 0x22b2
    2042:	00 01       	.word	0x0100;	????	
    2044:	f6 01       	.word	0x01f6;	????	
    2046:	41 44       	mov.b	r4,	r1	
    2048:	43 31       	jn	$+648    	;abs 0x22d0
    204a:	30 44       	br	@r4+		
    204c:	49 56       	add.b	r6,	r9	
    204e:	5f 30       	jn	$+192    	;abs 0x210e
    2050:	20 28       	jnc	$+66     	;abs 0x2092
    2052:	30 78       	subc	@r8+,	r0	
    2054:	30 30       	jn	$+98     	;abs 0x20b6
    2056:	30 30       	jn	$+98     	;abs 0x20b8
    2058:	29 00       	.word	0x0029;	????	
    205a:	01 f7       	and	r7,	r1	
    205c:	01 41       	mov	r1,	r1	
    205e:	44 43       	clr.b	r4		
    2060:	31 30       	jn	$+100    	;abs 0x20c4
    2062:	44 49       	mov.b	r9,	r4	
    2064:	56 5f 31 20 	add.b	8241(r15),r6	;0x2031(r15)
    2068:	28 30       	jn	$+82     	;abs 0x20ba
    206a:	78 30       	jn	$+242    	;abs 0x215c
    206c:	30 32       	jn	$-926    	;abs 0x1cce
    206e:	30 29       	jnc	$+610    	;abs 0x22d0
    2070:	00 01       	.word	0x0100;	????	
    2072:	f8 01       	.word	0x01f8;	????	
    2074:	41 44       	mov.b	r4,	r1	
    2076:	43 31       	jn	$+648    	;abs 0x22fe
    2078:	30 44       	br	@r4+		
    207a:	49 56       	add.b	r6,	r9	
    207c:	5f 32       	jn	$-832    	;abs 0x1d3c
    207e:	20 28       	jnc	$+66     	;abs 0x20c0
    2080:	30 78       	subc	@r8+,	r0	
    2082:	30 30       	jn	$+98     	;abs 0x20e4
    2084:	34 30       	jn	$+106    	;abs 0x20ee
    2086:	29 00       	.word	0x0029;	????	
    2088:	01 f9       	and	r9,	r1	
    208a:	01 41       	mov	r1,	r1	
    208c:	44 43       	clr.b	r4		
    208e:	31 30       	jn	$+100    	;abs 0x20f2
    2090:	44 49       	mov.b	r9,	r4	
    2092:	56 5f 33 20 	add.b	8243(r15),r6	;0x2033(r15)
    2096:	28 30       	jn	$+82     	;abs 0x20e8
    2098:	78 30       	jn	$+242    	;abs 0x218a
    209a:	30 36       	jge	$-926    	;abs 0x1cfc
    209c:	30 29       	jnc	$+610    	;abs 0x22fe
    209e:	00 01       	.word	0x0100;	????	
    20a0:	fa 01       	.word	0x01fa;	????	
    20a2:	41 44       	mov.b	r4,	r1	
    20a4:	43 31       	jn	$+648    	;abs 0x232c
    20a6:	30 44       	br	@r4+		
    20a8:	49 56       	add.b	r6,	r9	
    20aa:	5f 34       	jge	$+192    	;abs 0x216a
    20ac:	20 28       	jnc	$+66     	;abs 0x20ee
    20ae:	30 78       	subc	@r8+,	r0	
    20b0:	30 30       	jn	$+98     	;abs 0x2112
    20b2:	38 30       	jn	$+114    	;abs 0x2124
    20b4:	29 00       	.word	0x0029;	????	
    20b6:	01 fb       	and	r11,	r1	
    20b8:	01 41       	mov	r1,	r1	
    20ba:	44 43       	clr.b	r4		
    20bc:	31 30       	jn	$+100    	;abs 0x2120
    20be:	44 49       	mov.b	r9,	r4	
    20c0:	56 5f 35 20 	add.b	8245(r15),r6	;0x2035(r15)
    20c4:	28 30       	jn	$+82     	;abs 0x2116
    20c6:	78 30       	jn	$+242    	;abs 0x21b8
    20c8:	30 41       	ret			
    20ca:	30 29       	jnc	$+610    	;abs 0x232c
    20cc:	00 01       	.word	0x0100;	????	
    20ce:	fc 01       	.word	0x01fc;	????	
    20d0:	41 44       	mov.b	r4,	r1	
    20d2:	43 31       	jn	$+648    	;abs 0x235a
    20d4:	30 44       	br	@r4+		
    20d6:	49 56       	add.b	r6,	r9	
    20d8:	5f 36       	jge	$-832    	;abs 0x1d98
    20da:	20 28       	jnc	$+66     	;abs 0x211c
    20dc:	30 78       	subc	@r8+,	r0	
    20de:	30 30       	jn	$+98     	;abs 0x2140
    20e0:	43 30       	jn	$+136    	;abs 0x2168
    20e2:	29 00       	.word	0x0029;	????	
    20e4:	01 fd       	and	r13,	r1	
    20e6:	01 41       	mov	r1,	r1	
    20e8:	44 43       	clr.b	r4		
    20ea:	31 30       	jn	$+100    	;abs 0x214e
    20ec:	44 49       	mov.b	r9,	r4	
    20ee:	56 5f 37 20 	add.b	8247(r15),r6	;0x2037(r15)
    20f2:	28 30       	jn	$+82     	;abs 0x2144
    20f4:	78 30       	jn	$+242    	;abs 0x21e6
    20f6:	30 45       	br	@r5+		
    20f8:	30 29       	jnc	$+610    	;abs 0x235a
    20fa:	00 01       	.word	0x0100;	????	
    20fc:	ff 01       	.word	0x01ff;	????	
    20fe:	53 48       	.word	0x4853;	????	Illegal as 2-op instr
    2100:	53 5f       	.word	0x5f53;	????	Illegal as 2-op instr
    2102:	30 20       	jnz	$+98     	;abs 0x2164
    2104:	28 30       	jn	$+82     	;abs 0x2156
    2106:	78 30       	jn	$+242    	;abs 0x21f8
    2108:	30 30       	jn	$+98     	;abs 0x216a
    210a:	30 29       	jnc	$+610    	;abs 0x236c
    210c:	00 01       	.word	0x0100;	????	
    210e:	80 02       	.word	0x0280;	????	
    2110:	53 48       	.word	0x4853;	????	Illegal as 2-op instr
    2112:	53 5f       	.word	0x5f53;	????	Illegal as 2-op instr
    2114:	31 20       	jnz	$+100    	;abs 0x2178
    2116:	28 30       	jn	$+82     	;abs 0x2168
    2118:	78 30       	jn	$+242    	;abs 0x220a
    211a:	34 30       	jn	$+106    	;abs 0x2184
    211c:	30 29       	jnc	$+610    	;abs 0x237e
    211e:	00 01       	.word	0x0100;	????	
    2120:	81 02       	.word	0x0281;	????	
    2122:	53 48       	.word	0x4853;	????	Illegal as 2-op instr
    2124:	53 5f       	.word	0x5f53;	????	Illegal as 2-op instr
    2126:	32 20       	jnz	$+102    	;abs 0x218c
    2128:	28 30       	jn	$+82     	;abs 0x217a
    212a:	78 30       	jn	$+242    	;abs 0x221c
    212c:	38 30       	jn	$+114    	;abs 0x219e
    212e:	30 29       	jnc	$+610    	;abs 0x2390
    2130:	00 01       	.word	0x0100;	????	
    2132:	82 02       	.word	0x0282;	????	
    2134:	53 48       	.word	0x4853;	????	Illegal as 2-op instr
    2136:	53 5f       	.word	0x5f53;	????	Illegal as 2-op instr
    2138:	33 20       	jnz	$+104    	;abs 0x21a0
    213a:	28 30       	jn	$+82     	;abs 0x218c
    213c:	78 30       	jn	$+242    	;abs 0x222e
    213e:	43 30       	jn	$+136    	;abs 0x21c6
    2140:	30 29       	jnc	$+610    	;abs 0x23a2
    2142:	00 01       	.word	0x0100;	????	
    2144:	84 02       	.word	0x0284;	????	
    2146:	49 4e       	mov.b	r14,	r9	
    2148:	43 48       	.word	0x4843;	????	Illegal as 2-op instr
    214a:	5f 30       	jn	$+192    	;abs 0x220a
    214c:	20 28       	jnc	$+66     	;abs 0x218e
    214e:	30 78       	subc	@r8+,	r0	
    2150:	30 30       	jn	$+98     	;abs 0x21b2
    2152:	30 30       	jn	$+98     	;abs 0x21b4
    2154:	29 00       	.word	0x0029;	????	
    2156:	01 85       	sub	r5,	r1	
    2158:	02 49       	mov	r9,	r2	
    215a:	4e 43       	clr.b	r14		
    215c:	48 5f       	add.b	r15,	r8	
    215e:	31 20       	jnz	$+100    	;abs 0x21c2
    2160:	28 30       	jn	$+82     	;abs 0x21b2
    2162:	78 31       	jn	$+754    	;abs 0x2454
    2164:	30 30       	jn	$+98     	;abs 0x21c6
    2166:	30 29       	jnc	$+610    	;abs 0x23c8
    2168:	00 01       	.word	0x0100;	????	
    216a:	86 02       	.word	0x0286;	????	
    216c:	49 4e       	mov.b	r14,	r9	
    216e:	43 48       	.word	0x4843;	????	Illegal as 2-op instr
    2170:	5f 32       	jn	$-832    	;abs 0x1e30
    2172:	20 28       	jnc	$+66     	;abs 0x21b4
    2174:	30 78       	subc	@r8+,	r0	
    2176:	32 30       	jn	$+102    	;abs 0x21dc
    2178:	30 30       	jn	$+98     	;abs 0x21da
    217a:	29 00       	.word	0x0029;	????	
    217c:	01 87       	sub	r7,	r1	
    217e:	02 49       	mov	r9,	r2	
    2180:	4e 43       	clr.b	r14		
    2182:	48 5f       	add.b	r15,	r8	
    2184:	33 20       	jnz	$+104    	;abs 0x21ec
    2186:	28 30       	jn	$+82     	;abs 0x21d8
    2188:	78 33       	jn	$-270    	;abs 0x207a
    218a:	30 30       	jn	$+98     	;abs 0x21ec
    218c:	30 29       	jnc	$+610    	;abs 0x23ee
    218e:	00 01       	.word	0x0100;	????	
    2190:	88 02       	.word	0x0288;	????	
    2192:	49 4e       	mov.b	r14,	r9	
    2194:	43 48       	.word	0x4843;	????	Illegal as 2-op instr
    2196:	5f 34       	jge	$+192    	;abs 0x2256
    2198:	20 28       	jnc	$+66     	;abs 0x21da
    219a:	30 78       	subc	@r8+,	r0	
    219c:	34 30       	jn	$+106    	;abs 0x2206
    219e:	30 30       	jn	$+98     	;abs 0x2200
    21a0:	29 00       	.word	0x0029;	????	
    21a2:	01 89       	sub	r9,	r1	
    21a4:	02 49       	mov	r9,	r2	
    21a6:	4e 43       	clr.b	r14		
    21a8:	48 5f       	add.b	r15,	r8	
    21aa:	35 20       	jnz	$+108    	;abs 0x2216
    21ac:	28 30       	jn	$+82     	;abs 0x21fe
    21ae:	78 35       	jge	$+754    	;abs 0x24a0
    21b0:	30 30       	jn	$+98     	;abs 0x2212
    21b2:	30 29       	jnc	$+610    	;abs 0x2414
    21b4:	00 01       	.word	0x0100;	????	
    21b6:	8a 02       	.word	0x028a;	????	
    21b8:	49 4e       	mov.b	r14,	r9	
    21ba:	43 48       	.word	0x4843;	????	Illegal as 2-op instr
    21bc:	5f 36       	jge	$-832    	;abs 0x1e7c
    21be:	20 28       	jnc	$+66     	;abs 0x2200
    21c0:	30 78       	subc	@r8+,	r0	
    21c2:	36 30       	jn	$+110    	;abs 0x2230
    21c4:	30 30       	jn	$+98     	;abs 0x2226
    21c6:	29 00       	.word	0x0029;	????	
    21c8:	01 8b       	sub	r11,	r1	
    21ca:	02 49       	mov	r9,	r2	
    21cc:	4e 43       	clr.b	r14		
    21ce:	48 5f       	add.b	r15,	r8	
    21d0:	37 20       	jnz	$+112    	;abs 0x2240
    21d2:	28 30       	jn	$+82     	;abs 0x2224
    21d4:	78 37       	jge	$-270    	;abs 0x20c6
    21d6:	30 30       	jn	$+98     	;abs 0x2238
    21d8:	30 29       	jnc	$+610    	;abs 0x243a
    21da:	00 01       	.word	0x0100;	????	
    21dc:	8c 02       	.word	0x028c;	????	
    21de:	49 4e       	mov.b	r14,	r9	
    21e0:	43 48       	.word	0x4843;	????	Illegal as 2-op instr
    21e2:	5f 38       	jl	$+192    	;abs 0x22a2
    21e4:	20 28       	jnc	$+66     	;abs 0x2226
    21e6:	30 78       	subc	@r8+,	r0	
    21e8:	38 30       	jn	$+114    	;abs 0x225a
    21ea:	30 30       	jn	$+98     	;abs 0x224c
    21ec:	29 00       	.word	0x0029;	????	
    21ee:	01 8d       	sub	r13,	r1	
    21f0:	02 49       	mov	r9,	r2	
    21f2:	4e 43       	clr.b	r14		
    21f4:	48 5f       	add.b	r15,	r8	
    21f6:	39 20       	jnz	$+116    	;abs 0x226a
    21f8:	28 30       	jn	$+82     	;abs 0x224a
    21fa:	78 39       	jl	$+754    	;abs 0x24ec
    21fc:	30 30       	jn	$+98     	;abs 0x225e
    21fe:	30 29       	jnc	$+610    	;abs 0x2460
    2200:	00 01       	.word	0x0100;	????	
    2202:	8e 02       	.word	0x028e;	????	
    2204:	49 4e       	mov.b	r14,	r9	
    2206:	43 48       	.word	0x4843;	????	Illegal as 2-op instr
    2208:	5f 31       	jn	$+704    	;abs 0x24c8
    220a:	30 20       	jnz	$+98     	;abs 0x226c
    220c:	28 30       	jn	$+82     	;abs 0x225e
    220e:	78 41       	pop.b	r8		
    2210:	30 30       	jn	$+98     	;abs 0x2272
    2212:	30 29       	jnc	$+610    	;abs 0x2474
    2214:	00 01       	.word	0x0100;	????	
    2216:	8f 02       	.word	0x028f;	????	
    2218:	49 4e       	mov.b	r14,	r9	
    221a:	43 48       	.word	0x4843;	????	Illegal as 2-op instr
    221c:	5f 31       	jn	$+704    	;abs 0x24dc
    221e:	31 20       	jnz	$+100    	;abs 0x2282
    2220:	28 30       	jn	$+82     	;abs 0x2272
    2222:	78 42       	mov.b	#8,	r8	;r2 As==11
    2224:	30 30       	jn	$+98     	;abs 0x2286
    2226:	30 29       	jnc	$+610    	;abs 0x2488
    2228:	00 01       	.word	0x0100;	????	
    222a:	90 02       	.word	0x0290;	????	
    222c:	49 4e       	mov.b	r14,	r9	
    222e:	43 48       	.word	0x4843;	????	Illegal as 2-op instr
    2230:	5f 31       	jn	$+704    	;abs 0x24f0
    2232:	32 20       	jnz	$+102    	;abs 0x2298
    2234:	28 30       	jn	$+82     	;abs 0x2286
    2236:	78 43       	mov.b	#-1,	r8	;r3 As==11
    2238:	30 30       	jn	$+98     	;abs 0x229a
    223a:	30 29       	jnc	$+610    	;abs 0x249c
    223c:	00 01       	.word	0x0100;	????	
    223e:	91 02       	.word	0x0291;	????	
    2240:	49 4e       	mov.b	r14,	r9	
    2242:	43 48       	.word	0x4843;	????	Illegal as 2-op instr
    2244:	5f 31       	jn	$+704    	;abs 0x2504
    2246:	33 20       	jnz	$+104    	;abs 0x22ae
    2248:	28 30       	jn	$+82     	;abs 0x229a
    224a:	78 44       	mov.b	@r4+,	r8	
    224c:	30 30       	jn	$+98     	;abs 0x22ae
    224e:	30 29       	jnc	$+610    	;abs 0x24b0
    2250:	00 01       	.word	0x0100;	????	
    2252:	92 02       	.word	0x0292;	????	
    2254:	49 4e       	mov.b	r14,	r9	
    2256:	43 48       	.word	0x4843;	????	Illegal as 2-op instr
    2258:	5f 31       	jn	$+704    	;abs 0x2518
    225a:	34 20       	jnz	$+106    	;abs 0x22c4
    225c:	28 30       	jn	$+82     	;abs 0x22ae
    225e:	78 45       	mov.b	@r5+,	r8	
    2260:	30 30       	jn	$+98     	;abs 0x22c2
    2262:	30 29       	jnc	$+610    	;abs 0x24c4
    2264:	00 01       	.word	0x0100;	????	
    2266:	93 02       	.word	0x0293;	????	
    2268:	49 4e       	mov.b	r14,	r9	
    226a:	43 48       	.word	0x4843;	????	Illegal as 2-op instr
    226c:	5f 31       	jn	$+704    	;abs 0x252c
    226e:	35 20       	jnz	$+108    	;abs 0x22da
    2270:	28 30       	jn	$+82     	;abs 0x22c2
    2272:	78 46       	mov.b	@r6+,	r8	
    2274:	30 30       	jn	$+98     	;abs 0x22d6
    2276:	30 29       	jnc	$+610    	;abs 0x24d8
    2278:	00 01       	.word	0x0100;	????	
    227a:	96 02       	.word	0x0296;	????	
    227c:	41 44       	mov.b	r4,	r1	
    227e:	43 31       	jn	$+648    	;abs 0x2506
    2280:	30 46       	br	@r6+		
    2282:	45 54       	add.b	r4,	r5	
    2284:	43 48       	.word	0x4843;	????	Illegal as 2-op instr
    2286:	20 28       	jnc	$+66     	;abs 0x22c8
    2288:	30 78       	subc	@r8+,	r0	
    228a:	30 30       	jn	$+98     	;abs 0x22ec
    228c:	31 29       	jnc	$+612    	;abs 0x24f0
    228e:	00 01       	.word	0x0100;	????	
    2290:	97 02       	.word	0x0297;	????	
    2292:	41 44       	mov.b	r4,	r1	
    2294:	43 31       	jn	$+648    	;abs 0x251c
    2296:	30 42       	br	#8		;r2 As==11
    2298:	31 20       	jnz	$+100    	;abs 0x22fc
    229a:	28 30       	jn	$+82     	;abs 0x22ec
    229c:	78 30       	jn	$+242    	;abs 0x238e
    229e:	30 32       	jn	$-926    	;abs 0x1f00
    22a0:	29 00       	.word	0x0029;	????	
    22a2:	01 98       	cmp	r8,	r1	
    22a4:	02 41       	mov	r1,	r2	
    22a6:	44 43       	clr.b	r4		
    22a8:	31 30       	jn	$+100    	;abs 0x230c
    22aa:	43 54       	.word	0x5443;	????	Illegal as 2-op instr
    22ac:	20 28       	jnc	$+66     	;abs 0x22ee
    22ae:	30 78       	subc	@r8+,	r0	
    22b0:	30 30       	jn	$+98     	;abs 0x2312
    22b2:	34 29       	jnc	$+618    	;abs 0x251c
    22b4:	00 01       	.word	0x0100;	????	
    22b6:	99 02       	.word	0x0299;	????	
    22b8:	41 44       	mov.b	r4,	r1	
    22ba:	43 31       	jn	$+648    	;abs 0x2542
    22bc:	30 54       	add	@r4+,	r0	
    22be:	42 20       	jnz	$+134    	;abs 0x2344
    22c0:	28 30       	jn	$+82     	;abs 0x2312
    22c2:	78 30       	jn	$+242    	;abs 0x23b4
    22c4:	30 38       	jl	$+98     	;abs 0x2326
    22c6:	29 00       	.word	0x0029;	????	
    22c8:	01 9a       	cmp	r10,	r1	
    22ca:	02 41       	mov	r1,	r2	
    22cc:	44 43       	clr.b	r4		
    22ce:	31 30       	jn	$+100    	;abs 0x2332
    22d0:	44 49       	mov.b	r9,	r4	
    22d2:	53 41       	.word	0x4153;	????	Illegal as 2-op instr
    22d4:	42 4c       	mov.b	r12,	r2	
    22d6:	45 20       	jnz	$+140    	;abs 0x2362
    22d8:	28 30       	jn	$+82     	;abs 0x232a
    22da:	78 30       	jn	$+242    	;abs 0x23cc
    22dc:	30 30       	jn	$+98     	;abs 0x233e
    22de:	29 00       	.word	0x0029;	????	
    22e0:	01 9f       	cmp	r15,	r1	
    22e2:	02 5f       	add	r15,	r2	
    22e4:	5f 4d 53 50 	mov.b	20563(r13),r15	;0x5053(r13)
    22e8:	34 33       	jn	$-406    	;abs 0x2152
    22ea:	30 5f       	add	@r15+,	r0	
    22ec:	48 41       	mov.b	r1,	r8	
    22ee:	53 5f       	.word	0x5f53;	????	Illegal as 2-op instr
    22f0:	42 43       	clr.b	r2		
    22f2:	32 5f       	add	@r15+,	r2	
    22f4:	5f 20       	jnz	$+192    	;abs 0x23b4
    22f6:	00 01       	.word	0x0100;	????	
    22f8:	a1 02       	.word	0x02a1;	????	
    22fa:	44 43       	clr.b	r4		
    22fc:	4f 43       	clr.b	r15		
    22fe:	54 4c 5f 20 	mov.b	8287(r12),r4	;0x205f(r12)
    2302:	30 78       	subc	@r8+,	r0	
    2304:	30 30       	jn	$+98     	;abs 0x2366
    2306:	35 36       	jge	$-916    	;abs 0x1f72
    2308:	00 01       	.word	0x0100;	????	
    230a:	a3 02       	.word	0x02a3;	????	
    230c:	42 43       	clr.b	r2		
    230e:	53 43       	.word	0x4353;	????	Illegal as 2-op instr
    2310:	54 4c 31 5f 	mov.b	24369(r12),r4	;0x5f31(r12)
    2314:	20 30       	jn	$+66     	;abs 0x2356
    2316:	78 30       	jn	$+242    	;abs 0x2408
    2318:	30 35       	jge	$+610    	;abs 0x257a
    231a:	37 00       	.word	0x0037;	????	
    231c:	01 a5       	dadd	r5,	r1	
    231e:	02 42       	mov	r2,	r2	
    2320:	43 53       	.word	0x5343;	????	Illegal as emulation instr
    2322:	43 54       	.word	0x5443;	????	Illegal as 2-op instr
    2324:	4c 32       	jn	$-870    	;abs 0x1fbe
    2326:	5f 20       	jnz	$+192    	;abs 0x23e6
    2328:	30 78       	subc	@r8+,	r0	
    232a:	30 30       	jn	$+98     	;abs 0x238c
    232c:	35 38       	jl	$+108    	;abs 0x2398
    232e:	00 01       	.word	0x0100;	????	
    2330:	a7 02       	.word	0x02a7;	????	
    2332:	42 43       	clr.b	r2		
    2334:	53 43       	.word	0x4353;	????	Illegal as 2-op instr
    2336:	54 4c 33 5f 	mov.b	24371(r12),r4	;0x5f33(r12)
    233a:	20 30       	jn	$+66     	;abs 0x237c
    233c:	78 30       	jn	$+242    	;abs 0x242e
    233e:	30 35       	jge	$+610    	;abs 0x25a0
    2340:	33 00       	.word	0x0033;	????	
    2342:	01 aa       	dadd	r10,	r1	
    2344:	02 4d       	mov	r13,	r2	
    2346:	4f 44       	mov.b	r4,	r15	
    2348:	30 20       	jnz	$+98     	;abs 0x23aa
    234a:	28 30       	jn	$+82     	;abs 0x239c
    234c:	78 30       	jn	$+242    	;abs 0x243e
    234e:	31 29       	jnc	$+612    	;abs 0x25b2
    2350:	00 01       	.word	0x0100;	????	
    2352:	ab 02       	.word	0x02ab;	????	
    2354:	4d 4f       	mov.b	r15,	r13	
    2356:	44 31       	jn	$+650    	;abs 0x25e0
    2358:	20 28       	jnc	$+66     	;abs 0x239a
    235a:	30 78       	subc	@r8+,	r0	
    235c:	30 32       	jn	$-926    	;abs 0x1fbe
    235e:	29 00       	.word	0x0029;	????	
    2360:	01 ac       	dadd	r12,	r1	
    2362:	02 4d       	mov	r13,	r2	
    2364:	4f 44       	mov.b	r4,	r15	
    2366:	32 20       	jnz	$+102    	;abs 0x23cc
    2368:	28 30       	jn	$+82     	;abs 0x23ba
    236a:	78 30       	jn	$+242    	;abs 0x245c
    236c:	34 29       	jnc	$+618    	;abs 0x25d6
    236e:	00 01       	.word	0x0100;	????	
    2370:	ad 02       	.word	0x02ad;	????	
    2372:	4d 4f       	mov.b	r15,	r13	
    2374:	44 33       	jn	$-374    	;abs 0x21fe
    2376:	20 28       	jnc	$+66     	;abs 0x23b8
    2378:	30 78       	subc	@r8+,	r0	
    237a:	30 38       	jl	$+98     	;abs 0x23dc
    237c:	29 00       	.word	0x0029;	????	
    237e:	01 ae       	dadd	r14,	r1	
    2380:	02 4d       	mov	r13,	r2	
    2382:	4f 44       	mov.b	r4,	r15	
    2384:	34 20       	jnz	$+106    	;abs 0x23ee
    2386:	28 30       	jn	$+82     	;abs 0x23d8
    2388:	78 31       	jn	$+754    	;abs 0x267a
    238a:	30 29       	jnc	$+610    	;abs 0x25ec
    238c:	00 01       	.word	0x0100;	????	
    238e:	af 02       	.word	0x02af;	????	
    2390:	44 43       	clr.b	r4		
    2392:	4f 30       	jn	$+160    	;abs 0x2432
    2394:	20 28       	jnc	$+66     	;abs 0x23d6
    2396:	30 78       	subc	@r8+,	r0	
    2398:	32 30       	jn	$+102    	;abs 0x23fe
    239a:	29 00       	.word	0x0029;	????	
    239c:	01 b0       	bit	r0,	r1	
    239e:	02 44       	mov	r4,	r2	
    23a0:	43 4f       	.word	0x4f43;	????	Illegal as 2-op instr
    23a2:	31 20       	jnz	$+100    	;abs 0x2406
    23a4:	28 30       	jn	$+82     	;abs 0x23f6
    23a6:	78 34       	jge	$+242    	;abs 0x2498
    23a8:	30 29       	jnc	$+610    	;abs 0x260a
    23aa:	00 01       	.word	0x0100;	????	
    23ac:	b1 02       	.word	0x02b1;	????	
    23ae:	44 43       	clr.b	r4		
    23b0:	4f 32       	jn	$-864    	;abs 0x2050
    23b2:	20 28       	jnc	$+66     	;abs 0x23f4
    23b4:	30 78       	subc	@r8+,	r0	
    23b6:	38 30       	jn	$+114    	;abs 0x2428
    23b8:	29 00       	.word	0x0029;	????	
    23ba:	01 b3       	bit	#0,	r1	;r3 As==00
    23bc:	02 52       	rla	r2		
    23be:	53 45       	.word	0x4553;	????	Illegal as 2-op instr
    23c0:	4c 30       	jn	$+154    	;abs 0x245a
    23c2:	20 28       	jnc	$+66     	;abs 0x2404
    23c4:	30 78       	subc	@r8+,	r0	
    23c6:	30 31       	jn	$+610    	;abs 0x2628
    23c8:	29 00       	.word	0x0029;	????	
    23ca:	01 b4       	bit	r4,	r1	
    23cc:	02 52       	rla	r2		
    23ce:	53 45       	.word	0x4553;	????	Illegal as 2-op instr
    23d0:	4c 31       	jn	$+666    	;abs 0x266a
    23d2:	20 28       	jnc	$+66     	;abs 0x2414
    23d4:	30 78       	subc	@r8+,	r0	
    23d6:	30 32       	jn	$-926    	;abs 0x2038
    23d8:	29 00       	.word	0x0029;	????	
    23da:	01 b5       	bit	r5,	r1	
    23dc:	02 52       	rla	r2		
    23de:	53 45       	.word	0x4553;	????	Illegal as 2-op instr
    23e0:	4c 32       	jn	$-870    	;abs 0x207a
    23e2:	20 28       	jnc	$+66     	;abs 0x2424
    23e4:	30 78       	subc	@r8+,	r0	
    23e6:	30 34       	jge	$+98     	;abs 0x2448
    23e8:	29 00       	.word	0x0029;	????	
    23ea:	01 b6       	bit	r6,	r1	
    23ec:	02 52       	rla	r2		
    23ee:	53 45       	.word	0x4553;	????	Illegal as 2-op instr
    23f0:	4c 33       	jn	$-358    	;abs 0x228a
    23f2:	20 28       	jnc	$+66     	;abs 0x2434
    23f4:	30 78       	subc	@r8+,	r0	
    23f6:	30 38       	jl	$+98     	;abs 0x2458
    23f8:	29 00       	.word	0x0029;	????	
    23fa:	01 b7       	bit	r7,	r1	
    23fc:	02 44       	mov	r4,	r2	
    23fe:	49 56       	add.b	r6,	r9	
    2400:	41 30       	jn	$+132    	;abs 0x2484
    2402:	20 28       	jnc	$+66     	;abs 0x2444
    2404:	30 78       	subc	@r8+,	r0	
    2406:	31 30       	jn	$+100    	;abs 0x246a
    2408:	29 00       	.word	0x0029;	????	
    240a:	01 b8       	bit	r8,	r1	
    240c:	02 44       	mov	r4,	r2	
    240e:	49 56       	add.b	r6,	r9	
    2410:	41 31       	jn	$+644    	;abs 0x2694
    2412:	20 28       	jnc	$+66     	;abs 0x2454
    2414:	30 78       	subc	@r8+,	r0	
    2416:	32 30       	jn	$+102    	;abs 0x247c
    2418:	29 00       	.word	0x0029;	????	
    241a:	01 b9       	bit	r9,	r1	
    241c:	02 58       	add	r8,	r2	
    241e:	54 53       	inc.b	r4		
    2420:	20 28       	jnc	$+66     	;abs 0x2462
    2422:	30 78       	subc	@r8+,	r0	
    2424:	34 30       	jn	$+106    	;abs 0x248e
    2426:	29 00       	.word	0x0029;	????	
    2428:	01 ba       	bit	r10,	r1	
    242a:	02 58       	add	r8,	r2	
    242c:	54 32       	jn	$-854    	;abs 0x20d6
    242e:	4f 46       	mov.b	r6,	r15	
    2430:	46 20       	jnz	$+142    	;abs 0x24be
    2432:	28 30       	jn	$+82     	;abs 0x2484
    2434:	78 38       	jl	$+242    	;abs 0x2526
    2436:	30 29       	jnc	$+610    	;abs 0x2698
    2438:	00 01       	.word	0x0100;	????	
    243a:	bc 02       	.word	0x02bc;	????	
    243c:	44 49       	mov.b	r9,	r4	
    243e:	56 41 5f 30 	mov.b	12383(r1),r6	;0x305f(r1)
    2442:	20 28       	jnc	$+66     	;abs 0x2484
    2444:	30 78       	subc	@r8+,	r0	
    2446:	30 30       	jn	$+98     	;abs 0x24a8
    2448:	29 00       	.word	0x0029;	????	
    244a:	01 bd       	bit	r13,	r1	
    244c:	02 44       	mov	r4,	r2	
    244e:	49 56       	add.b	r6,	r9	
    2450:	41 5f       	add.b	r15,	r1	
    2452:	31 20       	jnz	$+100    	;abs 0x24b6
    2454:	28 30       	jn	$+82     	;abs 0x24a6
    2456:	78 31       	jn	$+754    	;abs 0x2748
    2458:	30 29       	jnc	$+610    	;abs 0x26ba
    245a:	00 01       	.word	0x0100;	????	
    245c:	be 02       	.word	0x02be;	????	
    245e:	44 49       	mov.b	r9,	r4	
    2460:	56 41 5f 32 	mov.b	12895(r1),r6	;0x325f(r1)
    2464:	20 28       	jnc	$+66     	;abs 0x24a6
    2466:	30 78       	subc	@r8+,	r0	
    2468:	32 30       	jn	$+102    	;abs 0x24ce
    246a:	29 00       	.word	0x0029;	????	
    246c:	01 bf       	bit	r15,	r1	
    246e:	02 44       	mov	r4,	r2	
    2470:	49 56       	add.b	r6,	r9	
    2472:	41 5f       	add.b	r15,	r1	
    2474:	33 20       	jnz	$+104    	;abs 0x24dc
    2476:	28 30       	jn	$+82     	;abs 0x24c8
    2478:	78 33       	jn	$-270    	;abs 0x236a
    247a:	30 29       	jnc	$+610    	;abs 0x26dc
    247c:	00 01       	.word	0x0100;	????	
    247e:	c1 02       	.word	0x02c1;	????	
    2480:	44 49       	mov.b	r9,	r4	
    2482:	56 53       	inc.b	r6		
    2484:	30 20       	jnz	$+98     	;abs 0x24e6
    2486:	28 30       	jn	$+82     	;abs 0x24d8
    2488:	78 30       	jn	$+242    	;abs 0x257a
    248a:	32 29       	jnc	$+614    	;abs 0x26f0
    248c:	00 01       	.word	0x0100;	????	
    248e:	c2 02       	.word	0x02c2;	????	
    2490:	44 49       	mov.b	r9,	r4	
    2492:	56 53       	inc.b	r6		
    2494:	31 20       	jnz	$+100    	;abs 0x24f8
    2496:	28 30       	jn	$+82     	;abs 0x24e8
    2498:	78 30       	jn	$+242    	;abs 0x258a
    249a:	34 29       	jnc	$+618    	;abs 0x2704
    249c:	00 01       	.word	0x0100;	????	
    249e:	c3 02       	.word	0x02c3;	????	
    24a0:	53 45       	.word	0x4553;	????	Illegal as 2-op instr
    24a2:	4c 53       	add.b	#0,	r12	;r3 As==00
    24a4:	20 28       	jnc	$+66     	;abs 0x24e6
    24a6:	30 78       	subc	@r8+,	r0	
    24a8:	30 38       	jl	$+98     	;abs 0x250a
    24aa:	29 00       	.word	0x0029;	????	
    24ac:	01 c4       	bic	r4,	r1	
    24ae:	02 44       	mov	r4,	r2	
    24b0:	49 56       	add.b	r6,	r9	
    24b2:	4d 30       	jn	$+156    	;abs 0x254e
    24b4:	20 28       	jnc	$+66     	;abs 0x24f6
    24b6:	30 78       	subc	@r8+,	r0	
    24b8:	31 30       	jn	$+100    	;abs 0x251c
    24ba:	29 00       	.word	0x0029;	????	
    24bc:	01 c5       	bic	r5,	r1	
    24be:	02 44       	mov	r4,	r2	
    24c0:	49 56       	add.b	r6,	r9	
    24c2:	4d 31       	jn	$+668    	;abs 0x275e
    24c4:	20 28       	jnc	$+66     	;abs 0x2506
    24c6:	30 78       	subc	@r8+,	r0	
    24c8:	32 30       	jn	$+102    	;abs 0x252e
    24ca:	29 00       	.word	0x0029;	????	
    24cc:	01 c6       	bic	r6,	r1	
    24ce:	02 53       	add	#0,	r2	;r3 As==00
    24d0:	45 4c       	mov.b	r12,	r5	
    24d2:	4d 30       	jn	$+156    	;abs 0x256e
    24d4:	20 28       	jnc	$+66     	;abs 0x2516
    24d6:	30 78       	subc	@r8+,	r0	
    24d8:	34 30       	jn	$+106    	;abs 0x2542
    24da:	29 00       	.word	0x0029;	????	
    24dc:	01 c7       	bic	r7,	r1	
    24de:	02 53       	add	#0,	r2	;r3 As==00
    24e0:	45 4c       	mov.b	r12,	r5	
    24e2:	4d 31       	jn	$+668    	;abs 0x277e
    24e4:	20 28       	jnc	$+66     	;abs 0x2526
    24e6:	30 78       	subc	@r8+,	r0	
    24e8:	38 30       	jn	$+114    	;abs 0x255a
    24ea:	29 00       	.word	0x0029;	????	
    24ec:	01 c9       	bic	r9,	r1	
    24ee:	02 44       	mov	r4,	r2	
    24f0:	49 56       	add.b	r6,	r9	
    24f2:	53 5f       	.word	0x5f53;	????	Illegal as 2-op instr
    24f4:	30 20       	jnz	$+98     	;abs 0x2556
    24f6:	28 30       	jn	$+82     	;abs 0x2548
    24f8:	78 30       	jn	$+242    	;abs 0x25ea
    24fa:	30 29       	jnc	$+610    	;abs 0x275c
    24fc:	00 01       	.word	0x0100;	????	
    24fe:	ca 02       	.word	0x02ca;	????	
    2500:	44 49       	mov.b	r9,	r4	
    2502:	56 53       	inc.b	r6		
    2504:	5f 31       	jn	$+704    	;abs 0x27c4
    2506:	20 28       	jnc	$+66     	;abs 0x2548
    2508:	30 78       	subc	@r8+,	r0	
    250a:	30 32       	jn	$-926    	;abs 0x216c
    250c:	29 00       	.word	0x0029;	????	
    250e:	01 cb       	bic	r11,	r1	
    2510:	02 44       	mov	r4,	r2	
    2512:	49 56       	add.b	r6,	r9	
    2514:	53 5f       	.word	0x5f53;	????	Illegal as 2-op instr
    2516:	32 20       	jnz	$+102    	;abs 0x257c
    2518:	28 30       	jn	$+82     	;abs 0x256a
    251a:	78 30       	jn	$+242    	;abs 0x260c
    251c:	34 29       	jnc	$+618    	;abs 0x2786
    251e:	00 01       	.word	0x0100;	????	
    2520:	cc 02       	.word	0x02cc;	????	
    2522:	44 49       	mov.b	r9,	r4	
    2524:	56 53       	inc.b	r6		
    2526:	5f 33       	jn	$-320    	;abs 0x23e6
    2528:	20 28       	jnc	$+66     	;abs 0x256a
    252a:	30 78       	subc	@r8+,	r0	
    252c:	30 36       	jge	$-926    	;abs 0x218e
    252e:	29 00       	.word	0x0029;	????	
    2530:	01 ce       	bic	r14,	r1	
    2532:	02 44       	mov	r4,	r2	
    2534:	49 56       	add.b	r6,	r9	
    2536:	4d 5f       	add.b	r15,	r13	
    2538:	30 20       	jnz	$+98     	;abs 0x259a
    253a:	28 30       	jn	$+82     	;abs 0x258c
    253c:	78 30       	jn	$+242    	;abs 0x262e
    253e:	30 29       	jnc	$+610    	;abs 0x27a0
    2540:	00 01       	.word	0x0100;	????	
    2542:	cf 02       	.word	0x02cf;	????	
    2544:	44 49       	mov.b	r9,	r4	
    2546:	56 4d 5f 31 	mov.b	12639(r13),r6	;0x315f(r13)
    254a:	20 28       	jnc	$+66     	;abs 0x258c
    254c:	30 78       	subc	@r8+,	r0	
    254e:	31 30       	jn	$+100    	;abs 0x25b2
    2550:	29 00       	.word	0x0029;	????	
    2552:	01 d0       	bis	r0,	r1	
    2554:	02 44       	mov	r4,	r2	
    2556:	49 56       	add.b	r6,	r9	
    2558:	4d 5f       	add.b	r15,	r13	
    255a:	32 20       	jnz	$+102    	;abs 0x25c0
    255c:	28 30       	jn	$+82     	;abs 0x25ae
    255e:	78 32       	jn	$-782    	;abs 0x2250
    2560:	30 29       	jnc	$+610    	;abs 0x27c2
    2562:	00 01       	.word	0x0100;	????	
    2564:	d1 02       	.word	0x02d1;	????	
    2566:	44 49       	mov.b	r9,	r4	
    2568:	56 4d 5f 33 	mov.b	13151(r13),r6	;0x335f(r13)
    256c:	20 28       	jnc	$+66     	;abs 0x25ae
    256e:	30 78       	subc	@r8+,	r0	
    2570:	33 30       	jn	$+104    	;abs 0x25d8
    2572:	29 00       	.word	0x0029;	????	
    2574:	01 d3       	bis	#0,	r1	;r3 As==00
    2576:	02 53       	add	#0,	r2	;r3 As==00
    2578:	45 4c       	mov.b	r12,	r5	
    257a:	4d 5f       	add.b	r15,	r13	
    257c:	30 20       	jnz	$+98     	;abs 0x25de
    257e:	28 30       	jn	$+82     	;abs 0x25d0
    2580:	78 30       	jn	$+242    	;abs 0x2672
    2582:	30 29       	jnc	$+610    	;abs 0x27e4
    2584:	00 01       	.word	0x0100;	????	
    2586:	d4 02       	.word	0x02d4;	????	
    2588:	53 45       	.word	0x4553;	????	Illegal as 2-op instr
    258a:	4c 4d       	mov.b	r13,	r12	
    258c:	5f 31       	jn	$+704    	;abs 0x284c
    258e:	20 28       	jnc	$+66     	;abs 0x25d0
    2590:	30 78       	subc	@r8+,	r0	
    2592:	34 30       	jn	$+106    	;abs 0x25fc
    2594:	29 00       	.word	0x0029;	????	
    2596:	01 d5       	bis	r5,	r1	
    2598:	02 53       	add	#0,	r2	;r3 As==00
    259a:	45 4c       	mov.b	r12,	r5	
    259c:	4d 5f       	add.b	r15,	r13	
    259e:	32 20       	jnz	$+102    	;abs 0x2604
    25a0:	28 30       	jn	$+82     	;abs 0x25f2
    25a2:	78 38       	jl	$+242    	;abs 0x2694
    25a4:	30 29       	jnc	$+610    	;abs 0x2806
    25a6:	00 01       	.word	0x0100;	????	
    25a8:	d6 02       	.word	0x02d6;	????	
    25aa:	53 45       	.word	0x4553;	????	Illegal as 2-op instr
    25ac:	4c 4d       	mov.b	r13,	r12	
    25ae:	5f 33       	jn	$-320    	;abs 0x246e
    25b0:	20 28       	jnc	$+66     	;abs 0x25f2
    25b2:	30 78       	subc	@r8+,	r0	
    25b4:	43 30       	jn	$+136    	;abs 0x263c
    25b6:	29 00       	.word	0x0029;	????	
    25b8:	01 d8       	bis	r8,	r1	
    25ba:	02 4c       	mov	r12,	r2	
    25bc:	46 58       	add.b	r8,	r6	
    25be:	54 31       	jn	$+682    	;abs 0x2868
    25c0:	4f 46       	mov.b	r6,	r15	
    25c2:	20 28       	jnc	$+66     	;abs 0x2604
    25c4:	30 78       	subc	@r8+,	r0	
    25c6:	30 31       	jn	$+610    	;abs 0x2828
    25c8:	29 00       	.word	0x0029;	????	
    25ca:	01 d9       	bis	r9,	r1	
    25cc:	02 58       	add	r8,	r2	
    25ce:	54 32       	jn	$-854    	;abs 0x2278
    25d0:	4f 46       	mov.b	r6,	r15	
    25d2:	20 28       	jnc	$+66     	;abs 0x2614
    25d4:	30 78       	subc	@r8+,	r0	
    25d6:	30 32       	jn	$-926    	;abs 0x2238
    25d8:	29 00       	.word	0x0029;	????	
    25da:	01 da       	bis	r10,	r1	
    25dc:	02 58       	add	r8,	r2	
    25de:	43 41       	.word	0x4143;	????	Illegal as 2-op instr
    25e0:	50 30       	jn	$+162    	;abs 0x2682
    25e2:	20 28       	jnc	$+66     	;abs 0x2624
    25e4:	30 78       	subc	@r8+,	r0	
    25e6:	30 34       	jge	$+98     	;abs 0x2648
    25e8:	29 00       	.word	0x0029;	????	
    25ea:	01 db       	bis	r11,	r1	
    25ec:	02 58       	add	r8,	r2	
    25ee:	43 41       	.word	0x4143;	????	Illegal as 2-op instr
    25f0:	50 31       	jn	$+674    	;abs 0x2892
    25f2:	20 28       	jnc	$+66     	;abs 0x2634
    25f4:	30 78       	subc	@r8+,	r0	
    25f6:	30 38       	jl	$+98     	;abs 0x2658
    25f8:	29 00       	.word	0x0029;	????	
    25fa:	01 dc       	bis	r12,	r1	
    25fc:	02 4c       	mov	r12,	r2	
    25fe:	46 58       	add.b	r8,	r6	
    2600:	54 31       	jn	$+682    	;abs 0x28aa
    2602:	53 30       	jn	$+168    	;abs 0x26aa
    2604:	20 28       	jnc	$+66     	;abs 0x2646
    2606:	30 78       	subc	@r8+,	r0	
    2608:	31 30       	jn	$+100    	;abs 0x266c
    260a:	29 00       	.word	0x0029;	????	
    260c:	01 dd       	bis	r13,	r1	
    260e:	02 4c       	mov	r12,	r2	
    2610:	46 58       	add.b	r8,	r6	
    2612:	54 31       	jn	$+682    	;abs 0x28bc
    2614:	53 31       	jn	$+680    	;abs 0x28bc
    2616:	20 28       	jnc	$+66     	;abs 0x2658
    2618:	30 78       	subc	@r8+,	r0	
    261a:	32 30       	jn	$+102    	;abs 0x2680
    261c:	29 00       	.word	0x0029;	????	
    261e:	01 de       	bis	r14,	r1	
    2620:	02 58       	add	r8,	r2	
    2622:	54 32       	jn	$-854    	;abs 0x22cc
    2624:	53 30       	jn	$+168    	;abs 0x26cc
    2626:	20 28       	jnc	$+66     	;abs 0x2668
    2628:	30 78       	subc	@r8+,	r0	
    262a:	34 30       	jn	$+106    	;abs 0x2694
    262c:	29 00       	.word	0x0029;	????	
    262e:	01 df       	bis	r15,	r1	
    2630:	02 58       	add	r8,	r2	
    2632:	54 32       	jn	$-854    	;abs 0x22dc
    2634:	53 31       	jn	$+680    	;abs 0x28dc
    2636:	20 28       	jnc	$+66     	;abs 0x2678
    2638:	30 78       	subc	@r8+,	r0	
    263a:	38 30       	jn	$+114    	;abs 0x26ac
    263c:	29 00       	.word	0x0029;	????	
    263e:	01 e1       	xor	r1,	r1	
    2640:	02 58       	add	r8,	r2	
    2642:	43 41       	.word	0x4143;	????	Illegal as 2-op instr
    2644:	50 5f 30 20 	add.b	8240(r15),r0	;0x2030(r15)
    2648:	28 30       	jn	$+82     	;abs 0x269a
    264a:	78 30       	jn	$+242    	;abs 0x273c
    264c:	30 29       	jnc	$+610    	;abs 0x28ae
    264e:	00 01       	.word	0x0100;	????	
    2650:	e2 02       	.word	0x02e2;	????	
    2652:	58 43       	mov.b	#1,	r8	;r3 As==01
    2654:	41 50       	add.b	r0,	r1	
    2656:	5f 31       	jn	$+704    	;abs 0x2916
    2658:	20 28       	jnc	$+66     	;abs 0x269a
    265a:	30 78       	subc	@r8+,	r0	
    265c:	30 34       	jge	$+98     	;abs 0x26be
    265e:	29 00       	.word	0x0029;	????	
    2660:	01 e3       	xor	#0,	r1	;r3 As==00
    2662:	02 58       	add	r8,	r2	
    2664:	43 41       	.word	0x4143;	????	Illegal as 2-op instr
    2666:	50 5f 32 20 	add.b	8242(r15),r0	;0x2032(r15)
    266a:	28 30       	jn	$+82     	;abs 0x26bc
    266c:	78 30       	jn	$+242    	;abs 0x275e
    266e:	38 29       	jnc	$+626    	;abs 0x28e0
    2670:	00 01       	.word	0x0100;	????	
    2672:	e4 02       	.word	0x02e4;	????	
    2674:	58 43       	mov.b	#1,	r8	;r3 As==01
    2676:	41 50       	add.b	r0,	r1	
    2678:	5f 33       	jn	$-320    	;abs 0x2538
    267a:	20 28       	jnc	$+66     	;abs 0x26bc
    267c:	30 78       	subc	@r8+,	r0	
    267e:	30 43       	br	#-1		;r3 As==11
    2680:	29 00       	.word	0x0029;	????	
    2682:	01 e6       	xor	r6,	r1	
    2684:	02 4c       	mov	r12,	r2	
    2686:	46 58       	add.b	r8,	r6	
    2688:	54 31       	jn	$+682    	;abs 0x2932
    268a:	53 5f       	.word	0x5f53;	????	Illegal as 2-op instr
    268c:	30 20       	jnz	$+98     	;abs 0x26ee
    268e:	28 30       	jn	$+82     	;abs 0x26e0
    2690:	78 30       	jn	$+242    	;abs 0x2782
    2692:	30 29       	jnc	$+610    	;abs 0x28f4
    2694:	00 01       	.word	0x0100;	????	
    2696:	e7 02       	.word	0x02e7;	????	
    2698:	4c 46       	mov.b	r6,	r12	
    269a:	58 54 31 53 	add.b	21297(r4),r8	;0x5331(r4)
    269e:	5f 31       	jn	$+704    	;abs 0x295e
    26a0:	20 28       	jnc	$+66     	;abs 0x26e2
    26a2:	30 78       	subc	@r8+,	r0	
    26a4:	31 30       	jn	$+100    	;abs 0x2708
    26a6:	29 00       	.word	0x0029;	????	
    26a8:	01 e8       	xor	r8,	r1	
    26aa:	02 4c       	mov	r12,	r2	
    26ac:	46 58       	add.b	r8,	r6	
    26ae:	54 31       	jn	$+682    	;abs 0x2958
    26b0:	53 5f       	.word	0x5f53;	????	Illegal as 2-op instr
    26b2:	32 20       	jnz	$+102    	;abs 0x2718
    26b4:	28 30       	jn	$+82     	;abs 0x2706
    26b6:	78 32       	jn	$-782    	;abs 0x23a8
    26b8:	30 29       	jnc	$+610    	;abs 0x291a
    26ba:	00 01       	.word	0x0100;	????	
    26bc:	e9 02       	.word	0x02e9;	????	
    26be:	4c 46       	mov.b	r6,	r12	
    26c0:	58 54 31 53 	add.b	21297(r4),r8	;0x5331(r4)
    26c4:	5f 33       	jn	$-320    	;abs 0x2584
    26c6:	20 28       	jnc	$+66     	;abs 0x2708
    26c8:	30 78       	subc	@r8+,	r0	
    26ca:	33 30       	jn	$+104    	;abs 0x2732
    26cc:	29 00       	.word	0x0029;	????	
    26ce:	01 eb       	xor	r11,	r1	
    26d0:	02 58       	add	r8,	r2	
    26d2:	54 32       	jn	$-854    	;abs 0x237c
    26d4:	53 5f       	.word	0x5f53;	????	Illegal as 2-op instr
    26d6:	30 20       	jnz	$+98     	;abs 0x2738
    26d8:	28 30       	jn	$+82     	;abs 0x272a
    26da:	78 30       	jn	$+242    	;abs 0x27cc
    26dc:	30 29       	jnc	$+610    	;abs 0x293e
    26de:	00 01       	.word	0x0100;	????	
    26e0:	ec 02       	.word	0x02ec;	????	
    26e2:	58 54 32 53 	add.b	21298(r4),r8	;0x5332(r4)
    26e6:	5f 31       	jn	$+704    	;abs 0x29a6
    26e8:	20 28       	jnc	$+66     	;abs 0x272a
    26ea:	30 78       	subc	@r8+,	r0	
    26ec:	34 30       	jn	$+106    	;abs 0x2756
    26ee:	29 00       	.word	0x0029;	????	
    26f0:	01 ed       	xor	r13,	r1	
    26f2:	02 58       	add	r8,	r2	
    26f4:	54 32       	jn	$-854    	;abs 0x239e
    26f6:	53 5f       	.word	0x5f53;	????	Illegal as 2-op instr
    26f8:	32 20       	jnz	$+102    	;abs 0x275e
    26fa:	28 30       	jn	$+82     	;abs 0x274c
    26fc:	78 38       	jl	$+242    	;abs 0x27ee
    26fe:	30 29       	jnc	$+610    	;abs 0x2960
    2700:	00 01       	.word	0x0100;	????	
    2702:	ee 02       	.word	0x02ee;	????	
    2704:	58 54 32 53 	add.b	21298(r4),r8	;0x5332(r4)
    2708:	5f 33       	jn	$-320    	;abs 0x25c8
    270a:	20 28       	jnc	$+66     	;abs 0x274c
    270c:	30 78       	subc	@r8+,	r0	
    270e:	43 30       	jn	$+136    	;abs 0x2796
    2710:	29 00       	.word	0x0029;	????	
    2712:	01 f3       	and	#0,	r1	;r3 As==00
    2714:	02 5f       	add	r15,	r2	
    2716:	5f 4d 53 50 	mov.b	20563(r13),r15	;0x5053(r13)
    271a:	34 33       	jn	$-406    	;abs 0x2584
    271c:	30 5f       	add	@r15+,	r0	
    271e:	48 41       	mov.b	r1,	r8	
    2720:	53 5f       	.word	0x5f53;	????	Illegal as 2-op instr
    2722:	43 41       	.word	0x4143;	????	Illegal as 2-op instr
    2724:	50 4c 55 53 	br	21333(r12)	;0x5355(r12)
    2728:	5f 5f 20 00 	add.b	32(r15),r15	;0x0020(r15)
    272c:	01 f5       	and	r5,	r1	
    272e:	02 43       	clr	r2		
    2730:	41 43       	clr.b	r1		
    2732:	54 4c 31 5f 	mov.b	24369(r12),r4	;0x5f31(r12)
    2736:	20 30       	jn	$+66     	;abs 0x2778
    2738:	78 30       	jn	$+242    	;abs 0x282a
    273a:	30 35       	jge	$+610    	;abs 0x299c
    273c:	39 00       	.word	0x0039;	????	
    273e:	01 f7       	and	r7,	r1	
    2740:	02 43       	clr	r2		
    2742:	41 43       	clr.b	r1		
    2744:	54 4c 32 5f 	mov.b	24370(r12),r4	;0x5f32(r12)
    2748:	20 30       	jn	$+66     	;abs 0x278a
    274a:	78 30       	jn	$+242    	;abs 0x283c
    274c:	30 35       	jge	$+610    	;abs 0x29ae
    274e:	41 00       	.word	0x0041;	????	
    2750:	01 f9       	and	r9,	r1	
    2752:	02 43       	clr	r2		
    2754:	41 50       	add.b	r0,	r1	
    2756:	44 5f       	add.b	r15,	r4	
    2758:	20 30       	jn	$+66     	;abs 0x279a
    275a:	78 30       	jn	$+242    	;abs 0x284c
    275c:	30 35       	jge	$+610    	;abs 0x29be
    275e:	42 00       	.word	0x0042;	????	
    2760:	01 fc       	and	r12,	r1	
    2762:	02 43       	clr	r2		
    2764:	41 49       	mov.b	r9,	r1	
    2766:	46 47       	mov.b	r7,	r6	
    2768:	20 28       	jnc	$+66     	;abs 0x27aa
    276a:	30 78       	subc	@r8+,	r0	
    276c:	30 31       	jn	$+610    	;abs 0x29ce
    276e:	29 00       	.word	0x0029;	????	
    2770:	01 fd       	and	r13,	r1	
    2772:	02 43       	clr	r2		
    2774:	41 49       	mov.b	r9,	r1	
    2776:	45 20       	jnz	$+140    	;abs 0x2802
    2778:	28 30       	jn	$+82     	;abs 0x27ca
    277a:	78 30       	jn	$+242    	;abs 0x286c
    277c:	32 29       	jnc	$+614    	;abs 0x29e2
    277e:	00 01       	.word	0x0100;	????	
    2780:	fe 02       	.word	0x02fe;	????	
    2782:	43 41       	.word	0x4143;	????	Illegal as 2-op instr
    2784:	49 45       	mov.b	r5,	r9	
    2786:	53 20       	jnz	$+168    	;abs 0x282e
    2788:	28 30       	jn	$+82     	;abs 0x27da
    278a:	78 30       	jn	$+242    	;abs 0x287c
    278c:	34 29       	jnc	$+618    	;abs 0x29f6
    278e:	00 01       	.word	0x0100;	????	
    2790:	ff 02       	.word	0x02ff;	????	
    2792:	43 41       	.word	0x4143;	????	Illegal as 2-op instr
    2794:	4f 4e       	mov.b	r14,	r15	
    2796:	20 28       	jnc	$+66     	;abs 0x27d8
    2798:	30 78       	subc	@r8+,	r0	
    279a:	30 38       	jl	$+98     	;abs 0x27fc
    279c:	29 00       	.word	0x0029;	????	
    279e:	01 80       	sub	r0,	r1	
    27a0:	03 43       	nop			
    27a2:	41 52       	add.b	r2,	r1	
    27a4:	45 46       	mov.b	r6,	r5	
    27a6:	30 20       	jnz	$+98     	;abs 0x2808
    27a8:	28 30       	jn	$+82     	;abs 0x27fa
    27aa:	78 31       	jn	$+754    	;abs 0x2a9c
    27ac:	30 29       	jnc	$+610    	;abs 0x2a0e
    27ae:	00 01       	.word	0x0100;	????	
    27b0:	81 03       	.word	0x0381;	????	
    27b2:	43 41       	.word	0x4143;	????	Illegal as 2-op instr
    27b4:	52 45 46 31 	mov.b	12614(r5),r2	;0x3146(r5)
    27b8:	20 28       	jnc	$+66     	;abs 0x27fa
    27ba:	30 78       	subc	@r8+,	r0	
    27bc:	32 30       	jn	$+102    	;abs 0x2822
    27be:	29 00       	.word	0x0029;	????	
    27c0:	01 82       	sub	r2,	r1	
    27c2:	03 43       	nop			
    27c4:	41 52       	add.b	r2,	r1	
    27c6:	53 45       	.word	0x4553;	????	Illegal as 2-op instr
    27c8:	4c 20       	jnz	$+154    	;abs 0x2862
    27ca:	28 30       	jn	$+82     	;abs 0x281c
    27cc:	78 34       	jge	$+242    	;abs 0x28be
    27ce:	30 29       	jnc	$+610    	;abs 0x2a30
    27d0:	00 01       	.word	0x0100;	????	
    27d2:	83 03       	.word	0x0383;	????	
    27d4:	43 41       	.word	0x4143;	????	Illegal as 2-op instr
    27d6:	45 58       	add.b	r8,	r5	
    27d8:	20 28       	jnc	$+66     	;abs 0x281a
    27da:	30 78       	subc	@r8+,	r0	
    27dc:	38 30       	jn	$+114    	;abs 0x284e
    27de:	29 00       	.word	0x0029;	????	
    27e0:	01 85       	sub	r5,	r1	
    27e2:	03 43       	nop			
    27e4:	41 52       	add.b	r2,	r1	
    27e6:	45 46       	mov.b	r6,	r5	
    27e8:	5f 30       	jn	$+192    	;abs 0x28a8
    27ea:	20 28       	jnc	$+66     	;abs 0x282c
    27ec:	30 78       	subc	@r8+,	r0	
    27ee:	30 30       	jn	$+98     	;abs 0x2850
    27f0:	29 00       	.word	0x0029;	????	
    27f2:	01 86       	sub	r6,	r1	
    27f4:	03 43       	nop			
    27f6:	41 52       	add.b	r2,	r1	
    27f8:	45 46       	mov.b	r6,	r5	
    27fa:	5f 31       	jn	$+704    	;abs 0x2aba
    27fc:	20 28       	jnc	$+66     	;abs 0x283e
    27fe:	30 78       	subc	@r8+,	r0	
    2800:	31 30       	jn	$+100    	;abs 0x2864
    2802:	29 00       	.word	0x0029;	????	
    2804:	01 87       	sub	r7,	r1	
    2806:	03 43       	nop			
    2808:	41 52       	add.b	r2,	r1	
    280a:	45 46       	mov.b	r6,	r5	
    280c:	5f 32       	jn	$-832    	;abs 0x24cc
    280e:	20 28       	jnc	$+66     	;abs 0x2850
    2810:	30 78       	subc	@r8+,	r0	
    2812:	32 30       	jn	$+102    	;abs 0x2878
    2814:	29 00       	.word	0x0029;	????	
    2816:	01 88       	sub	r8,	r1	
    2818:	03 43       	nop			
    281a:	41 52       	add.b	r2,	r1	
    281c:	45 46       	mov.b	r6,	r5	
    281e:	5f 33       	jn	$-320    	;abs 0x26de
    2820:	20 28       	jnc	$+66     	;abs 0x2862
    2822:	30 78       	subc	@r8+,	r0	
    2824:	33 30       	jn	$+104    	;abs 0x288c
    2826:	29 00       	.word	0x0029;	????	
    2828:	01 8a       	sub	r10,	r1	
    282a:	03 43       	nop			
    282c:	41 4f       	mov.b	r15,	r1	
    282e:	55 54 20 28 	add.b	10272(r4),r5	;0x2820(r4)
    2832:	30 78       	subc	@r8+,	r0	
    2834:	30 31       	jn	$+610    	;abs 0x2a96
    2836:	29 00       	.word	0x0029;	????	
    2838:	01 8b       	sub	r11,	r1	
    283a:	03 43       	nop			
    283c:	41 46       	mov.b	r6,	r1	
    283e:	20 28       	jnc	$+66     	;abs 0x2880
    2840:	30 78       	subc	@r8+,	r0	
    2842:	30 32       	jn	$-926    	;abs 0x24a4
    2844:	29 00       	.word	0x0029;	????	
    2846:	01 8c       	sub	r12,	r1	
    2848:	03 50       	.word	0x5003;	????	Illegal as 2-op instr
    284a:	32 43       	mov	#-1,	r2	;r3 As==11
    284c:	41 30       	jn	$+132    	;abs 0x28d0
    284e:	20 28       	jnc	$+66     	;abs 0x2890
    2850:	30 78       	subc	@r8+,	r0	
    2852:	30 34       	jge	$+98     	;abs 0x28b4
    2854:	29 00       	.word	0x0029;	????	
    2856:	01 8d       	sub	r13,	r1	
    2858:	03 50       	.word	0x5003;	????	Illegal as 2-op instr
    285a:	32 43       	mov	#-1,	r2	;r3 As==11
    285c:	41 31       	jn	$+644    	;abs 0x2ae0
    285e:	20 28       	jnc	$+66     	;abs 0x28a0
    2860:	30 78       	subc	@r8+,	r0	
    2862:	30 38       	jl	$+98     	;abs 0x28c4
    2864:	29 00       	.word	0x0029;	????	
    2866:	01 8e       	sub	r14,	r1	
    2868:	03 50       	.word	0x5003;	????	Illegal as 2-op instr
    286a:	32 43       	mov	#-1,	r2	;r3 As==11
    286c:	41 32       	jn	$-892    	;abs 0x24f0
    286e:	20 28       	jnc	$+66     	;abs 0x28b0
    2870:	30 78       	subc	@r8+,	r0	
    2872:	31 30       	jn	$+100    	;abs 0x28d6
    2874:	29 00       	.word	0x0029;	????	
    2876:	01 8f       	sub	r15,	r1	
    2878:	03 50       	.word	0x5003;	????	Illegal as 2-op instr
    287a:	32 43       	mov	#-1,	r2	;r3 As==11
    287c:	41 33       	jn	$-380    	;abs 0x2700
    287e:	20 28       	jnc	$+66     	;abs 0x28c0
    2880:	30 78       	subc	@r8+,	r0	
    2882:	32 30       	jn	$+102    	;abs 0x28e8
    2884:	29 00       	.word	0x0029;	????	
    2886:	01 90       	cmp	r0,	r1	
    2888:	03 50       	.word	0x5003;	????	Illegal as 2-op instr
    288a:	32 43       	mov	#-1,	r2	;r3 As==11
    288c:	41 34       	jge	$+132    	;abs 0x2910
    288e:	20 28       	jnc	$+66     	;abs 0x28d0
    2890:	30 78       	subc	@r8+,	r0	
    2892:	34 30       	jn	$+106    	;abs 0x28fc
    2894:	29 00       	.word	0x0029;	????	
    2896:	01 91       	cmp	r1,	r1	
    2898:	03 43       	nop			
    289a:	41 53       	add.b	#0,	r1	;r3 As==00
    289c:	48 4f       	mov.b	r15,	r8	
    289e:	52 54 20 28 	add.b	10272(r4),r2	;0x2820(r4)
    28a2:	30 78       	subc	@r8+,	r0	
    28a4:	38 30       	jn	$+114    	;abs 0x2916
    28a6:	29 00       	.word	0x0029;	????	
    28a8:	01 93       	tst	r1		
    28aa:	03 43       	nop			
    28ac:	41 50       	add.b	r0,	r1	
    28ae:	44 30       	jn	$+138    	;abs 0x2938
    28b0:	20 28       	jnc	$+66     	;abs 0x28f2
    28b2:	30 78       	subc	@r8+,	r0	
    28b4:	30 31       	jn	$+610    	;abs 0x2b16
    28b6:	29 00       	.word	0x0029;	????	
    28b8:	01 94       	cmp	r4,	r1	
    28ba:	03 43       	nop			
    28bc:	41 50       	add.b	r0,	r1	
    28be:	44 31       	jn	$+650    	;abs 0x2b48
    28c0:	20 28       	jnc	$+66     	;abs 0x2902
    28c2:	30 78       	subc	@r8+,	r0	
    28c4:	30 32       	jn	$-926    	;abs 0x2526
    28c6:	29 00       	.word	0x0029;	????	
    28c8:	01 95       	cmp	r5,	r1	
    28ca:	03 43       	nop			
    28cc:	41 50       	add.b	r0,	r1	
    28ce:	44 32       	jn	$-886    	;abs 0x2558
    28d0:	20 28       	jnc	$+66     	;abs 0x2912
    28d2:	30 78       	subc	@r8+,	r0	
    28d4:	30 34       	jge	$+98     	;abs 0x2936
    28d6:	29 00       	.word	0x0029;	????	
    28d8:	01 96       	cmp	r6,	r1	
    28da:	03 43       	nop			
    28dc:	41 50       	add.b	r0,	r1	
    28de:	44 33       	jn	$-374    	;abs 0x2768
    28e0:	20 28       	jnc	$+66     	;abs 0x2922
    28e2:	30 78       	subc	@r8+,	r0	
    28e4:	30 38       	jl	$+98     	;abs 0x2946
    28e6:	29 00       	.word	0x0029;	????	
    28e8:	01 97       	cmp	r7,	r1	
    28ea:	03 43       	nop			
    28ec:	41 50       	add.b	r0,	r1	
    28ee:	44 34       	jge	$+138    	;abs 0x2978
    28f0:	20 28       	jnc	$+66     	;abs 0x2932
    28f2:	30 78       	subc	@r8+,	r0	
    28f4:	31 30       	jn	$+100    	;abs 0x2958
    28f6:	29 00       	.word	0x0029;	????	
    28f8:	01 98       	cmp	r8,	r1	
    28fa:	03 43       	nop			
    28fc:	41 50       	add.b	r0,	r1	
    28fe:	44 35       	jge	$+650    	;abs 0x2b88
    2900:	20 28       	jnc	$+66     	;abs 0x2942
    2902:	30 78       	subc	@r8+,	r0	
    2904:	32 30       	jn	$+102    	;abs 0x296a
    2906:	29 00       	.word	0x0029;	????	
    2908:	01 99       	cmp	r9,	r1	
    290a:	03 43       	nop			
    290c:	41 50       	add.b	r0,	r1	
    290e:	44 36       	jge	$-886    	;abs 0x2598
    2910:	20 28       	jnc	$+66     	;abs 0x2952
    2912:	30 78       	subc	@r8+,	r0	
    2914:	34 30       	jn	$+106    	;abs 0x297e
    2916:	29 00       	.word	0x0029;	????	
    2918:	01 9a       	cmp	r10,	r1	
    291a:	03 43       	nop			
    291c:	41 50       	add.b	r0,	r1	
    291e:	44 37       	jge	$-374    	;abs 0x27a8
    2920:	20 28       	jnc	$+66     	;abs 0x2962
    2922:	30 78       	subc	@r8+,	r0	
    2924:	38 30       	jn	$+114    	;abs 0x2996
    2926:	29 00       	.word	0x0029;	????	
    2928:	01 9f       	cmp	r15,	r1	
    292a:	03 5f       	.word	0x5f03;	????	Illegal as 2-op instr
    292c:	5f 4d 53 50 	mov.b	20563(r13),r15	;0x5053(r13)
    2930:	34 33       	jn	$-406    	;abs 0x279a
    2932:	30 5f       	add	@r15+,	r0	
    2934:	48 41       	mov.b	r1,	r8	
    2936:	53 5f       	.word	0x5f53;	????	Illegal as 2-op instr
    2938:	46 4c       	mov.b	r12,	r6	
    293a:	41 53       	add.b	#0,	r1	;r3 As==00
    293c:	48 32       	jn	$-878    	;abs 0x25ce
    293e:	5f 5f 20 00 	add.b	32(r15),r15	;0x0020(r15)
    2942:	01 a1       	dadd	r1,	r1	
    2944:	03 46       	.word	0x4603;	????	Illegal as 2-op instr
    2946:	43 54       	.word	0x5443;	????	Illegal as 2-op instr
    2948:	4c 31       	jn	$+666    	;abs 0x2be2
    294a:	5f 20       	jnz	$+192    	;abs 0x2a0a
    294c:	30 78       	subc	@r8+,	r0	
    294e:	30 31       	jn	$+610    	;abs 0x2bb0
    2950:	32 38       	jl	$+102    	;abs 0x29b6
    2952:	00 01       	.word	0x0100;	????	
    2954:	a3 03       	.word	0x03a3;	????	
    2956:	46 43       	clr.b	r6		
    2958:	54 4c 32 5f 	mov.b	24370(r12),r4	;0x5f32(r12)
    295c:	20 30       	jn	$+66     	;abs 0x299e
    295e:	78 30       	jn	$+242    	;abs 0x2a50
    2960:	31 32       	jn	$-924    	;abs 0x25c4
    2962:	41 00       	.word	0x0041;	????	
    2964:	01 a5       	dadd	r5,	r1	
    2966:	03 46       	.word	0x4603;	????	Illegal as 2-op instr
    2968:	43 54       	.word	0x5443;	????	Illegal as 2-op instr
    296a:	4c 33       	jn	$-358    	;abs 0x2804
    296c:	5f 20       	jnz	$+192    	;abs 0x2a2c
    296e:	30 78       	subc	@r8+,	r0	
    2970:	30 31       	jn	$+610    	;abs 0x2bd2
    2972:	32 43       	mov	#-1,	r2	;r3 As==11
    2974:	00 01       	.word	0x0100;	????	
    2976:	a8 03       	.word	0x03a8;	????	
    2978:	46 52       	add.b	r2,	r6	
    297a:	4b 45       	mov.b	r5,	r11	
    297c:	59 20       	jnz	$+180    	;abs 0x2a30
    297e:	28 30       	jn	$+82     	;abs 0x29d0
    2980:	78 39       	jl	$+754    	;abs 0x2c72
    2982:	36 30       	jn	$+110    	;abs 0x29f0
    2984:	30 29       	jnc	$+610    	;abs 0x2be6
    2986:	00 01       	.word	0x0100;	????	
    2988:	a9 03       	.word	0x03a9;	????	
    298a:	46 57       	add.b	r7,	r6	
    298c:	4b 45       	mov.b	r5,	r11	
    298e:	59 20       	jnz	$+180    	;abs 0x2a42
    2990:	28 30       	jn	$+82     	;abs 0x29e2
    2992:	78 41       	pop.b	r8		
    2994:	35 30       	jn	$+108    	;abs 0x2a00
    2996:	30 29       	jnc	$+610    	;abs 0x2bf8
    2998:	00 01       	.word	0x0100;	????	
    299a:	aa 03       	.word	0x03aa;	????	
    299c:	46 58       	add.b	r8,	r6	
    299e:	4b 45       	mov.b	r5,	r11	
    29a0:	59 20       	jnz	$+180    	;abs 0x2a54
    29a2:	28 30       	jn	$+82     	;abs 0x29f4
    29a4:	78 33       	jn	$-270    	;abs 0x2896
    29a6:	33 30       	jn	$+104    	;abs 0x2a0e
    29a8:	30 29       	jnc	$+610    	;abs 0x2c0a
    29aa:	00 01       	.word	0x0100;	????	
    29ac:	ac 03       	.word	0x03ac;	????	
    29ae:	45 52       	add.b	r2,	r5	
    29b0:	41 53       	add.b	#0,	r1	;r3 As==00
    29b2:	45 20       	jnz	$+140    	;abs 0x2a3e
    29b4:	28 30       	jn	$+82     	;abs 0x2a06
    29b6:	78 30       	jn	$+242    	;abs 0x2aa8
    29b8:	30 30       	jn	$+98     	;abs 0x2a1a
    29ba:	32 29       	jnc	$+614    	;abs 0x2c20
    29bc:	00 01       	.word	0x0100;	????	
    29be:	ad 03       	.word	0x03ad;	????	
    29c0:	4d 45       	mov.b	r5,	r13	
    29c2:	52 41 53 20 	mov.b	8275(r1),r2	;0x2053(r1)
    29c6:	28 30       	jn	$+82     	;abs 0x2a18
    29c8:	78 30       	jn	$+242    	;abs 0x2aba
    29ca:	30 30       	jn	$+98     	;abs 0x2a2c
    29cc:	34 29       	jnc	$+618    	;abs 0x2c36
    29ce:	00 01       	.word	0x0100;	????	
    29d0:	ae 03       	.word	0x03ae;	????	
    29d2:	57 52 54 20 	add.b	&0x2054,r7	
    29d6:	28 30       	jn	$+82     	;abs 0x2a28
    29d8:	78 30       	jn	$+242    	;abs 0x2aca
    29da:	30 34       	jge	$+98     	;abs 0x2a3c
    29dc:	30 29       	jnc	$+610    	;abs 0x2c3e
    29de:	00 01       	.word	0x0100;	????	
    29e0:	af 03       	.word	0x03af;	????	
    29e2:	42 4c       	mov.b	r12,	r2	
    29e4:	4b 57       	add.b	r7,	r11	
    29e6:	52 54 20 28 	add.b	10272(r4),r2	;0x2820(r4)
    29ea:	30 78       	subc	@r8+,	r0	
    29ec:	30 30       	jn	$+98     	;abs 0x2a4e
    29ee:	38 30       	jn	$+114    	;abs 0x2a60
    29f0:	29 00       	.word	0x0029;	????	
    29f2:	01 b0       	bit	r0,	r1	
    29f4:	03 53       	.word	0x5303;	????	Illegal as emulation instr
    29f6:	45 47       	mov.b	r7,	r5	
    29f8:	57 52 54 20 	add.b	&0x2054,r7	
    29fc:	28 30       	jn	$+82     	;abs 0x2a4e
    29fe:	78 30       	jn	$+242    	;abs 0x2af0
    2a00:	30 38       	jl	$+98     	;abs 0x2a62
    2a02:	30 29       	jnc	$+610    	;abs 0x2c64
    2a04:	00 01       	.word	0x0100;	????	
    2a06:	b2 03       	.word	0x03b2;	????	
    2a08:	46 4e       	mov.b	r14,	r6	
    2a0a:	30 20       	jnz	$+98     	;abs 0x2a6c
    2a0c:	28 30       	jn	$+82     	;abs 0x2a5e
    2a0e:	78 30       	jn	$+242    	;abs 0x2b00
    2a10:	30 30       	jn	$+98     	;abs 0x2a72
    2a12:	31 29       	jnc	$+612    	;abs 0x2c76
    2a14:	00 01       	.word	0x0100;	????	
    2a16:	b3 03       	.word	0x03b3;	????	
    2a18:	46 4e       	mov.b	r14,	r6	
    2a1a:	31 20       	jnz	$+100    	;abs 0x2a7e
    2a1c:	28 30       	jn	$+82     	;abs 0x2a6e
    2a1e:	78 30       	jn	$+242    	;abs 0x2b10
    2a20:	30 30       	jn	$+98     	;abs 0x2a82
    2a22:	32 29       	jnc	$+614    	;abs 0x2c88
    2a24:	00 01       	.word	0x0100;	????	
    2a26:	b5 03       	.word	0x03b5;	????	
    2a28:	46 4e       	mov.b	r14,	r6	
    2a2a:	32 20       	jnz	$+102    	;abs 0x2a90
    2a2c:	28 30       	jn	$+82     	;abs 0x2a7e
    2a2e:	78 30       	jn	$+242    	;abs 0x2b20
    2a30:	30 30       	jn	$+98     	;abs 0x2a92
    2a32:	34 29       	jnc	$+618    	;abs 0x2c9c
    2a34:	00 01       	.word	0x0100;	????	
    2a36:	b8 03       	.word	0x03b8;	????	
    2a38:	46 4e       	mov.b	r14,	r6	
    2a3a:	33 20       	jnz	$+104    	;abs 0x2aa2
    2a3c:	28 30       	jn	$+82     	;abs 0x2a8e
    2a3e:	78 30       	jn	$+242    	;abs 0x2b30
    2a40:	30 30       	jn	$+98     	;abs 0x2aa2
    2a42:	38 29       	jnc	$+626    	;abs 0x2cb4
    2a44:	00 01       	.word	0x0100;	????	
    2a46:	bb 03       	.word	0x03bb;	????	
    2a48:	46 4e       	mov.b	r14,	r6	
    2a4a:	34 20       	jnz	$+106    	;abs 0x2ab4
    2a4c:	28 30       	jn	$+82     	;abs 0x2a9e
    2a4e:	78 30       	jn	$+242    	;abs 0x2b40
    2a50:	30 31       	jn	$+610    	;abs 0x2cb2
    2a52:	30 29       	jnc	$+610    	;abs 0x2cb4
    2a54:	00 01       	.word	0x0100;	????	
    2a56:	bd 03       	.word	0x03bd;	????	
    2a58:	46 4e       	mov.b	r14,	r6	
    2a5a:	35 20       	jnz	$+108    	;abs 0x2ac6
    2a5c:	28 30       	jn	$+82     	;abs 0x2aae
    2a5e:	78 30       	jn	$+242    	;abs 0x2b50
    2a60:	30 32       	jn	$-926    	;abs 0x26c2
    2a62:	30 29       	jnc	$+610    	;abs 0x2cc4
    2a64:	00 01       	.word	0x0100;	????	
    2a66:	be 03       	.word	0x03be;	????	
    2a68:	46 53       	add.b	#0,	r6	;r3 As==00
    2a6a:	53 45       	.word	0x4553;	????	Illegal as 2-op instr
    2a6c:	4c 30       	jn	$+154    	;abs 0x2b06
    2a6e:	20 28       	jnc	$+66     	;abs 0x2ab0
    2a70:	30 78       	subc	@r8+,	r0	
    2a72:	30 30       	jn	$+98     	;abs 0x2ad4
    2a74:	34 30       	jn	$+106    	;abs 0x2ade
    2a76:	29 00       	.word	0x0029;	????	
    2a78:	01 bf       	bit	r15,	r1	
    2a7a:	03 46       	.word	0x4603;	????	Illegal as 2-op instr
    2a7c:	53 53       	inc.b	#0		;r3 As==00
    2a7e:	45 4c       	mov.b	r12,	r5	
    2a80:	31 20       	jnz	$+100    	;abs 0x2ae4
    2a82:	28 30       	jn	$+82     	;abs 0x2ad4
    2a84:	78 30       	jn	$+242    	;abs 0x2b76
    2a86:	30 38       	jl	$+98     	;abs 0x2ae8
    2a88:	30 29       	jnc	$+610    	;abs 0x2cea
    2a8a:	00 01       	.word	0x0100;	????	
    2a8c:	c1 03       	.word	0x03c1;	????	
    2a8e:	46 53       	add.b	#0,	r6	;r3 As==00
    2a90:	53 45       	.word	0x4553;	????	Illegal as 2-op instr
    2a92:	4c 5f       	add.b	r15,	r12	
    2a94:	30 20       	jnz	$+98     	;abs 0x2af6
    2a96:	28 30       	jn	$+82     	;abs 0x2ae8
    2a98:	78 30       	jn	$+242    	;abs 0x2b8a
    2a9a:	30 30       	jn	$+98     	;abs 0x2afc
    2a9c:	30 29       	jnc	$+610    	;abs 0x2cfe
    2a9e:	00 01       	.word	0x0100;	????	
    2aa0:	c2 03       	.word	0x03c2;	????	
    2aa2:	46 53       	add.b	#0,	r6	;r3 As==00
    2aa4:	53 45       	.word	0x4553;	????	Illegal as 2-op instr
    2aa6:	4c 5f       	add.b	r15,	r12	
    2aa8:	31 20       	jnz	$+100    	;abs 0x2b0c
    2aaa:	28 30       	jn	$+82     	;abs 0x2afc
    2aac:	78 30       	jn	$+242    	;abs 0x2b9e
    2aae:	30 34       	jge	$+98     	;abs 0x2b10
    2ab0:	30 29       	jnc	$+610    	;abs 0x2d12
    2ab2:	00 01       	.word	0x0100;	????	
    2ab4:	c3 03       	.word	0x03c3;	????	
    2ab6:	46 53       	add.b	#0,	r6	;r3 As==00
    2ab8:	53 45       	.word	0x4553;	????	Illegal as 2-op instr
    2aba:	4c 5f       	add.b	r15,	r12	
    2abc:	32 20       	jnz	$+102    	;abs 0x2b22
    2abe:	28 30       	jn	$+82     	;abs 0x2b10
    2ac0:	78 30       	jn	$+242    	;abs 0x2bb2
    2ac2:	30 38       	jl	$+98     	;abs 0x2b24
    2ac4:	30 29       	jnc	$+610    	;abs 0x2d26
    2ac6:	00 01       	.word	0x0100;	????	
    2ac8:	c4 03       	.word	0x03c4;	????	
    2aca:	46 53       	add.b	#0,	r6	;r3 As==00
    2acc:	53 45       	.word	0x4553;	????	Illegal as 2-op instr
    2ace:	4c 5f       	add.b	r15,	r12	
    2ad0:	33 20       	jnz	$+104    	;abs 0x2b38
    2ad2:	28 30       	jn	$+82     	;abs 0x2b24
    2ad4:	78 30       	jn	$+242    	;abs 0x2bc6
    2ad6:	30 43       	br	#-1		;r3 As==11
    2ad8:	30 29       	jnc	$+610    	;abs 0x2d3a
    2ada:	00 01       	.word	0x0100;	????	
    2adc:	c6 03       	.word	0x03c6;	????	
    2ade:	42 55       	add.b	r5,	r2	
    2ae0:	53 59       	.word	0x5953;	????	Illegal as 2-op instr
    2ae2:	20 28       	jnc	$+66     	;abs 0x2b24
    2ae4:	30 78       	subc	@r8+,	r0	
    2ae6:	30 30       	jn	$+98     	;abs 0x2b48
    2ae8:	30 31       	jn	$+610    	;abs 0x2d4a
    2aea:	29 00       	.word	0x0029;	????	
    2aec:	01 c7       	bic	r7,	r1	
    2aee:	03 4b       	.word	0x4b03;	????	Illegal as 2-op instr
    2af0:	45 59       	add.b	r9,	r5	
    2af2:	56 20       	jnz	$+174    	;abs 0x2ba0
    2af4:	28 30       	jn	$+82     	;abs 0x2b46
    2af6:	78 30       	jn	$+242    	;abs 0x2be8
    2af8:	30 30       	jn	$+98     	;abs 0x2b5a
    2afa:	32 29       	jnc	$+614    	;abs 0x2d60
    2afc:	00 01       	.word	0x0100;	????	
    2afe:	c8 03       	.word	0x03c8;	????	
    2b00:	41 43       	clr.b	r1		
    2b02:	43 56       	.word	0x5643;	????	Illegal as 2-op instr
    2b04:	49 46       	mov.b	r6,	r9	
    2b06:	47 20       	jnz	$+144    	;abs 0x2b96
    2b08:	28 30       	jn	$+82     	;abs 0x2b5a
    2b0a:	78 30       	jn	$+242    	;abs 0x2bfc
    2b0c:	30 30       	jn	$+98     	;abs 0x2b6e
    2b0e:	34 29       	jnc	$+618    	;abs 0x2d78
    2b10:	00 01       	.word	0x0100;	????	
    2b12:	c9 03       	.word	0x03c9;	????	
    2b14:	57 41 49 54 	mov.b	21577(r1),r7	;0x5449(r1)
    2b18:	20 28       	jnc	$+66     	;abs 0x2b5a
    2b1a:	30 78       	subc	@r8+,	r0	
    2b1c:	30 30       	jn	$+98     	;abs 0x2b7e
    2b1e:	30 38       	jl	$+98     	;abs 0x2b80
    2b20:	29 00       	.word	0x0029;	????	
    2b22:	01 ca       	bic	r10,	r1	
    2b24:	03 4c       	.word	0x4c03;	????	Illegal as 2-op instr
    2b26:	4f 43       	clr.b	r15		
    2b28:	4b 20       	jnz	$+152    	;abs 0x2bc0
    2b2a:	28 30       	jn	$+82     	;abs 0x2b7c
    2b2c:	78 30       	jn	$+242    	;abs 0x2c1e
    2b2e:	30 31       	jn	$+610    	;abs 0x2d90
    2b30:	30 29       	jnc	$+610    	;abs 0x2d92
    2b32:	00 01       	.word	0x0100;	????	
    2b34:	cb 03       	.word	0x03cb;	????	
    2b36:	45 4d       	mov.b	r13,	r5	
    2b38:	45 58       	add.b	r8,	r5	
    2b3a:	20 28       	jnc	$+66     	;abs 0x2b7c
    2b3c:	30 78       	subc	@r8+,	r0	
    2b3e:	30 30       	jn	$+98     	;abs 0x2ba0
    2b40:	32 30       	jn	$+102    	;abs 0x2ba6
    2b42:	29 00       	.word	0x0029;	????	
    2b44:	01 cc       	bic	r12,	r1	
    2b46:	03 4c       	.word	0x4c03;	????	Illegal as 2-op instr
    2b48:	4f 43       	clr.b	r15		
    2b4a:	4b 41       	mov.b	r1,	r11	
    2b4c:	20 28       	jnc	$+66     	;abs 0x2b8e
    2b4e:	30 78       	subc	@r8+,	r0	
    2b50:	30 30       	jn	$+98     	;abs 0x2bb2
    2b52:	34 30       	jn	$+106    	;abs 0x2bbc
    2b54:	29 00       	.word	0x0029;	????	
    2b56:	01 cd       	bic	r13,	r1	
    2b58:	03 46       	.word	0x4603;	????	Illegal as 2-op instr
    2b5a:	41 49       	mov.b	r9,	r1	
    2b5c:	4c 20       	jnz	$+154    	;abs 0x2bf6
    2b5e:	28 30       	jn	$+82     	;abs 0x2bb0
    2b60:	78 30       	jn	$+242    	;abs 0x2c52
    2b62:	30 38       	jl	$+98     	;abs 0x2bc4
    2b64:	30 29       	jnc	$+610    	;abs 0x2dc6
    2b66:	00 01       	.word	0x0100;	????	
    2b68:	d2 03       	.word	0x03d2;	????	
    2b6a:	5f 5f 4d 53 	add.b	21325(r15),r15	;0x534d(r15)
    2b6e:	50 34       	jge	$+162    	;abs 0x2c10
    2b70:	33 30       	jn	$+104    	;abs 0x2bd8
    2b72:	5f 48 41 53 	mov.b	21313(r8),r15	;0x5341(r8)
    2b76:	5f 50 4f 52 	add.b	21071(r0),r15	;PC rel. 0x7dc7
    2b7a:	54 31       	jn	$+682    	;abs 0x2e24
    2b7c:	5f 52 5f 5f 	add.b	&0x5f5f,r15	
    2b80:	20 00       	.word	0x0020;	????	
    2b82:	01 d3       	bis	#0,	r1	;r3 As==00
    2b84:	03 5f       	.word	0x5f03;	????	Illegal as 2-op instr
    2b86:	5f 4d 53 50 	mov.b	20563(r13),r15	;0x5053(r13)
    2b8a:	34 33       	jn	$-406    	;abs 0x29f4
    2b8c:	30 5f       	add	@r15+,	r0	
    2b8e:	48 41       	mov.b	r1,	r8	
    2b90:	53 5f       	.word	0x5f53;	????	Illegal as 2-op instr
    2b92:	50 4f 52 54 	br	21586(r15)	;0x5452(r15)
    2b96:	32 5f       	add	@r15+,	r2	
    2b98:	52 5f 5f 20 	add.b	8287(r15),r2	;0x205f(r15)
    2b9c:	00 01       	.word	0x0100;	????	
    2b9e:	d5 03       	.word	0x03d5;	????	
    2ba0:	50 31       	jn	$+674    	;abs 0x2e42
    2ba2:	49 4e       	mov.b	r14,	r9	
    2ba4:	5f 20       	jnz	$+192    	;abs 0x2c64
    2ba6:	30 78       	subc	@r8+,	r0	
    2ba8:	30 30       	jn	$+98     	;abs 0x2c0a
    2baa:	32 30       	jn	$+102    	;abs 0x2c10
    2bac:	00 01       	.word	0x0100;	????	
    2bae:	d7 03       	.word	0x03d7;	????	
    2bb0:	50 31       	jn	$+674    	;abs 0x2e52
    2bb2:	4f 55       	add.b	r5,	r15	
    2bb4:	54 5f 20 30 	add.b	12320(r15),r4	;0x3020(r15)
    2bb8:	78 30       	jn	$+242    	;abs 0x2caa
    2bba:	30 32       	jn	$-926    	;abs 0x281c
    2bbc:	31 00       	.word	0x0031;	????	
    2bbe:	01 d9       	bis	r9,	r1	
    2bc0:	03 50       	.word	0x5003;	????	Illegal as 2-op instr
    2bc2:	31 44       	mov	@r4+,	r1	
    2bc4:	49 52       	add.b	r2,	r9	
    2bc6:	5f 20       	jnz	$+192    	;abs 0x2c86
    2bc8:	30 78       	subc	@r8+,	r0	
    2bca:	30 30       	jn	$+98     	;abs 0x2c2c
    2bcc:	32 32       	jn	$-922    	;abs 0x2832
    2bce:	00 01       	.word	0x0100;	????	
    2bd0:	db 03       	.word	0x03db;	????	
    2bd2:	50 31       	jn	$+674    	;abs 0x2e74
    2bd4:	49 46       	mov.b	r6,	r9	
    2bd6:	47 5f       	add.b	r15,	r7	
    2bd8:	20 30       	jn	$+66     	;abs 0x2c1a
    2bda:	78 30       	jn	$+242    	;abs 0x2ccc
    2bdc:	30 32       	jn	$-926    	;abs 0x283e
    2bde:	33 00       	.word	0x0033;	????	
    2be0:	01 dd       	bis	r13,	r1	
    2be2:	03 50       	.word	0x5003;	????	Illegal as 2-op instr
    2be4:	31 49       	mov	@r9+,	r1	
    2be6:	45 53       	add.b	#0,	r5	;r3 As==00
    2be8:	5f 20       	jnz	$+192    	;abs 0x2ca8
    2bea:	30 78       	subc	@r8+,	r0	
    2bec:	30 30       	jn	$+98     	;abs 0x2c4e
    2bee:	32 34       	jge	$+102    	;abs 0x2c54
    2bf0:	00 01       	.word	0x0100;	????	
    2bf2:	df 03       	.word	0x03df;	????	
    2bf4:	50 31       	jn	$+674    	;abs 0x2e96
    2bf6:	49 45       	mov.b	r5,	r9	
    2bf8:	5f 20       	jnz	$+192    	;abs 0x2cb8
    2bfa:	30 78       	subc	@r8+,	r0	
    2bfc:	30 30       	jn	$+98     	;abs 0x2c5e
    2bfe:	32 35       	jge	$+614    	;abs 0x2e64
    2c00:	00 01       	.word	0x0100;	????	
    2c02:	e1 03       	.word	0x03e1;	????	
    2c04:	50 31       	jn	$+674    	;abs 0x2ea6
    2c06:	53 45       	.word	0x4553;	????	Illegal as 2-op instr
    2c08:	4c 5f       	add.b	r15,	r12	
    2c0a:	20 30       	jn	$+66     	;abs 0x2c4c
    2c0c:	78 30       	jn	$+242    	;abs 0x2cfe
    2c0e:	30 32       	jn	$-926    	;abs 0x2870
    2c10:	36 00       	.word	0x0036;	????	
    2c12:	01 e3       	xor	#0,	r1	;r3 As==00
    2c14:	03 50       	.word	0x5003;	????	Illegal as 2-op instr
    2c16:	31 53       	add	#-1,	r1	;r3 As==11
    2c18:	45 4c       	mov.b	r12,	r5	
    2c1a:	32 5f       	add	@r15+,	r2	
    2c1c:	20 30       	jn	$+66     	;abs 0x2c5e
    2c1e:	78 30       	jn	$+242    	;abs 0x2d10
    2c20:	30 34       	jge	$+98     	;abs 0x2c82
    2c22:	31 00       	.word	0x0031;	????	
    2c24:	01 e5       	xor	r5,	r1	
    2c26:	03 50       	.word	0x5003;	????	Illegal as 2-op instr
    2c28:	31 52       	add	#8,	r1	;r2 As==11
    2c2a:	45 4e       	mov.b	r14,	r5	
    2c2c:	5f 20       	jnz	$+192    	;abs 0x2cec
    2c2e:	30 78       	subc	@r8+,	r0	
    2c30:	30 30       	jn	$+98     	;abs 0x2c92
    2c32:	32 37       	jge	$-410    	;abs 0x2a98
    2c34:	00 01       	.word	0x0100;	????	
    2c36:	e8 03       	.word	0x03e8;	????	
    2c38:	50 32       	jn	$-862    	;abs 0x28da
    2c3a:	49 4e       	mov.b	r14,	r9	
    2c3c:	5f 20       	jnz	$+192    	;abs 0x2cfc
    2c3e:	30 78       	subc	@r8+,	r0	
    2c40:	30 30       	jn	$+98     	;abs 0x2ca2
    2c42:	32 38       	jl	$+102    	;abs 0x2ca8
    2c44:	00 01       	.word	0x0100;	????	
    2c46:	ea 03       	.word	0x03ea;	????	
    2c48:	50 32       	jn	$-862    	;abs 0x28ea
    2c4a:	4f 55       	add.b	r5,	r15	
    2c4c:	54 5f 20 30 	add.b	12320(r15),r4	;0x3020(r15)
    2c50:	78 30       	jn	$+242    	;abs 0x2d42
    2c52:	30 32       	jn	$-926    	;abs 0x28b4
    2c54:	39 00       	.word	0x0039;	????	
    2c56:	01 ec       	xor	r12,	r1	
    2c58:	03 50       	.word	0x5003;	????	Illegal as 2-op instr
    2c5a:	32 44       	mov	@r4+,	r2	
    2c5c:	49 52       	add.b	r2,	r9	
    2c5e:	5f 20       	jnz	$+192    	;abs 0x2d1e
    2c60:	30 78       	subc	@r8+,	r0	
    2c62:	30 30       	jn	$+98     	;abs 0x2cc4
    2c64:	32 41       	pop	r2		
    2c66:	00 01       	.word	0x0100;	????	
    2c68:	ee 03       	.word	0x03ee;	????	
    2c6a:	50 32       	jn	$-862    	;abs 0x290c
    2c6c:	49 46       	mov.b	r6,	r9	
    2c6e:	47 5f       	add.b	r15,	r7	
    2c70:	20 30       	jn	$+66     	;abs 0x2cb2
    2c72:	78 30       	jn	$+242    	;abs 0x2d64
    2c74:	30 32       	jn	$-926    	;abs 0x28d6
    2c76:	42 00       	.word	0x0042;	????	
    2c78:	01 f0       	and	r0,	r1	
    2c7a:	03 50       	.word	0x5003;	????	Illegal as 2-op instr
    2c7c:	32 49       	mov	@r9+,	r2	
    2c7e:	45 53       	add.b	#0,	r5	;r3 As==00
    2c80:	5f 20       	jnz	$+192    	;abs 0x2d40
    2c82:	30 78       	subc	@r8+,	r0	
    2c84:	30 30       	jn	$+98     	;abs 0x2ce6
    2c86:	32 43       	mov	#-1,	r2	;r3 As==11
    2c88:	00 01       	.word	0x0100;	????	
    2c8a:	f2 03       	.word	0x03f2;	????	
    2c8c:	50 32       	jn	$-862    	;abs 0x292e
    2c8e:	49 45       	mov.b	r5,	r9	
    2c90:	5f 20       	jnz	$+192    	;abs 0x2d50
    2c92:	30 78       	subc	@r8+,	r0	
    2c94:	30 30       	jn	$+98     	;abs 0x2cf6
    2c96:	32 44       	mov	@r4+,	r2	
    2c98:	00 01       	.word	0x0100;	????	
    2c9a:	f4 03       	.word	0x03f4;	????	
    2c9c:	50 32       	jn	$-862    	;abs 0x293e
    2c9e:	53 45       	.word	0x4553;	????	Illegal as 2-op instr
    2ca0:	4c 5f       	add.b	r15,	r12	
    2ca2:	20 30       	jn	$+66     	;abs 0x2ce4
    2ca4:	78 30       	jn	$+242    	;abs 0x2d96
    2ca6:	30 32       	jn	$-926    	;abs 0x2908
    2ca8:	45 00       	.word	0x0045;	????	
    2caa:	01 f6       	and	r6,	r1	
    2cac:	03 50       	.word	0x5003;	????	Illegal as 2-op instr
    2cae:	32 53       	add	#-1,	r2	;r3 As==11
    2cb0:	45 4c       	mov.b	r12,	r5	
    2cb2:	32 5f       	add	@r15+,	r2	
    2cb4:	20 30       	jn	$+66     	;abs 0x2cf6
    2cb6:	78 30       	jn	$+242    	;abs 0x2da8
    2cb8:	30 34       	jge	$+98     	;abs 0x2d1a
    2cba:	32 00       	.word	0x0032;	????	
    2cbc:	01 f8       	and	r8,	r1	
    2cbe:	03 50       	.word	0x5003;	????	Illegal as 2-op instr
    2cc0:	32 52       	add	#8,	r2	;r2 As==11
    2cc2:	45 4e       	mov.b	r14,	r5	
    2cc4:	5f 20       	jnz	$+192    	;abs 0x2d84
    2cc6:	30 78       	subc	@r8+,	r0	
    2cc8:	30 30       	jn	$+98     	;abs 0x2d2a
    2cca:	32 46       	mov	@r6+,	r2	
    2ccc:	00 01       	.word	0x0100;	????	
    2cce:	fe 03       	.word	0x03fe;	????	
    2cd0:	5f 5f 4d 53 	add.b	21325(r15),r15	;0x534d(r15)
    2cd4:	50 34       	jge	$+162    	;abs 0x2d76
    2cd6:	33 30       	jn	$+104    	;abs 0x2d3e
    2cd8:	5f 48 41 53 	mov.b	21313(r8),r15	;0x5341(r8)
    2cdc:	5f 50 4f 52 	add.b	21071(r0),r15	;PC rel. 0x7f2d
    2ce0:	54 33       	jn	$-342    	;abs 0x2b8a
    2ce2:	5f 52 5f 5f 	add.b	&0x5f5f,r15	
    2ce6:	20 00       	.word	0x0020;	????	
    2ce8:	01 80       	sub	r0,	r1	
    2cea:	04 50       	add	r0,	r4	
    2cec:	33 49       	.word	0x4933;	????	Illegal as 2-op instr
    2cee:	4e 5f       	add.b	r15,	r14	
    2cf0:	20 30       	jn	$+66     	;abs 0x2d32
    2cf2:	78 30       	jn	$+242    	;abs 0x2de4
    2cf4:	30 31       	jn	$+610    	;abs 0x2f56
    2cf6:	38 00       	.word	0x0038;	????	
    2cf8:	01 82       	sub	r2,	r1	
    2cfa:	04 50       	add	r0,	r4	
    2cfc:	33 4f       	.word	0x4f33;	????	Illegal as 2-op instr
    2cfe:	55 54 5f 20 	add.b	8287(r4),r5	;0x205f(r4)
    2d02:	30 78       	subc	@r8+,	r0	
    2d04:	30 30       	jn	$+98     	;abs 0x2d66
    2d06:	31 39       	jl	$+612    	;abs 0x2f6a
    2d08:	00 01       	.word	0x0100;	????	
    2d0a:	84 04       	.word	0x0484;	????	
    2d0c:	50 33       	jn	$-350    	;abs 0x2bae
    2d0e:	44 49       	mov.b	r9,	r4	
    2d10:	52 5f 20 30 	add.b	12320(r15),r2	;0x3020(r15)
    2d14:	78 30       	jn	$+242    	;abs 0x2e06
    2d16:	30 31       	jn	$+610    	;abs 0x2f78
    2d18:	41 00       	.word	0x0041;	????	
    2d1a:	01 86       	sub	r6,	r1	
    2d1c:	04 50       	add	r0,	r4	
    2d1e:	33 53       	.word	0x5333;	????	Illegal as 2-op instr
    2d20:	45 4c       	mov.b	r12,	r5	
    2d22:	5f 20       	jnz	$+192    	;abs 0x2de2
    2d24:	30 78       	subc	@r8+,	r0	
    2d26:	30 30       	jn	$+98     	;abs 0x2d88
    2d28:	31 42       	mov	#8,	r1	;r2 As==11
    2d2a:	00 01       	.word	0x0100;	????	
    2d2c:	88 04       	.word	0x0488;	????	
    2d2e:	50 33       	jn	$-350    	;abs 0x2bd0
    2d30:	53 45       	.word	0x4553;	????	Illegal as 2-op instr
    2d32:	4c 32       	jn	$-870    	;abs 0x29cc
    2d34:	5f 20       	jnz	$+192    	;abs 0x2df4
    2d36:	30 78       	subc	@r8+,	r0	
    2d38:	30 30       	jn	$+98     	;abs 0x2d9a
    2d3a:	34 33       	jn	$-406    	;abs 0x2ba4
    2d3c:	00 01       	.word	0x0100;	????	
    2d3e:	8a 04       	.word	0x048a;	????	
    2d40:	50 33       	jn	$-350    	;abs 0x2be2
    2d42:	52 45 4e 5f 	mov.b	24398(r5),r2	;0x5f4e(r5)
    2d46:	20 30       	jn	$+66     	;abs 0x2d88
    2d48:	78 30       	jn	$+242    	;abs 0x2e3a
    2d4a:	30 31       	jn	$+610    	;abs 0x2fac
    2d4c:	30 00       	.word	0x0030;	????	
    2d4e:	01 90       	cmp	r0,	r1	
    2d50:	04 5f       	add	r15,	r4	
    2d52:	5f 4d 53 50 	mov.b	20563(r13),r15	;0x5053(r13)
    2d56:	34 33       	jn	$-406    	;abs 0x2bc0
    2d58:	30 5f       	add	@r15+,	r0	
    2d5a:	48 41       	mov.b	r1,	r8	
    2d5c:	53 5f       	.word	0x5f53;	????	Illegal as 2-op instr
    2d5e:	54 41 33 5f 	mov.b	24371(r1),r4	;0x5f33(r1)
    2d62:	5f 20       	jnz	$+192    	;abs 0x2e22
    2d64:	00 01       	.word	0x0100;	????	
    2d66:	92 04       	.word	0x0492;	????	
    2d68:	54 41 30 49 	mov.b	18736(r1),r4	;0x4930(r1)
    2d6c:	56 5f 20 30 	add.b	12320(r15),r6	;0x3020(r15)
    2d70:	78 30       	jn	$+242    	;abs 0x2e62
    2d72:	31 32       	jn	$-924    	;abs 0x29d6
    2d74:	45 00       	.word	0x0045;	????	
    2d76:	01 94       	cmp	r4,	r1	
    2d78:	04 54       	rla	r4		
    2d7a:	41 30       	jn	$+132    	;abs 0x2dfe
    2d7c:	43 54       	.word	0x5443;	????	Illegal as 2-op instr
    2d7e:	4c 5f       	add.b	r15,	r12	
    2d80:	20 30       	jn	$+66     	;abs 0x2dc2
    2d82:	78 30       	jn	$+242    	;abs 0x2e74
    2d84:	31 36       	jge	$-924    	;abs 0x29e8
    2d86:	30 00       	.word	0x0030;	????	
    2d88:	01 96       	cmp	r6,	r1	
    2d8a:	04 54       	rla	r4		
    2d8c:	41 30       	jn	$+132    	;abs 0x2e10
    2d8e:	43 43       	clr.b	#0		;r3 As==00
    2d90:	54 4c 30 5f 	mov.b	24368(r12),r4	;0x5f30(r12)
    2d94:	20 30       	jn	$+66     	;abs 0x2dd6
    2d96:	78 30       	jn	$+242    	;abs 0x2e88
    2d98:	31 36       	jge	$-924    	;abs 0x29fc
    2d9a:	32 00       	.word	0x0032;	????	
    2d9c:	01 98       	cmp	r8,	r1	
    2d9e:	04 54       	rla	r4		
    2da0:	41 30       	jn	$+132    	;abs 0x2e24
    2da2:	43 43       	clr.b	#0		;r3 As==00
    2da4:	54 4c 31 5f 	mov.b	24369(r12),r4	;0x5f31(r12)
    2da8:	20 30       	jn	$+66     	;abs 0x2dea
    2daa:	78 30       	jn	$+242    	;abs 0x2e9c
    2dac:	31 36       	jge	$-924    	;abs 0x2a10
    2dae:	34 00       	.word	0x0034;	????	
    2db0:	01 9a       	cmp	r10,	r1	
    2db2:	04 54       	rla	r4		
    2db4:	41 30       	jn	$+132    	;abs 0x2e38
    2db6:	43 43       	clr.b	#0		;r3 As==00
    2db8:	54 4c 32 5f 	mov.b	24370(r12),r4	;0x5f32(r12)
    2dbc:	20 30       	jn	$+66     	;abs 0x2dfe
    2dbe:	78 30       	jn	$+242    	;abs 0x2eb0
    2dc0:	31 36       	jge	$-924    	;abs 0x2a24
    2dc2:	36 00       	.word	0x0036;	????	
    2dc4:	01 9c       	cmp	r12,	r1	
    2dc6:	04 54       	rla	r4		
    2dc8:	41 30       	jn	$+132    	;abs 0x2e4c
    2dca:	52 5f 20 30 	add.b	12320(r15),r2	;0x3020(r15)
    2dce:	78 30       	jn	$+242    	;abs 0x2ec0
    2dd0:	31 37       	jge	$-412    	;abs 0x2c34
    2dd2:	30 00       	.word	0x0030;	????	
    2dd4:	01 9e       	cmp	r14,	r1	
    2dd6:	04 54       	rla	r4		
    2dd8:	41 30       	jn	$+132    	;abs 0x2e5c
    2dda:	43 43       	clr.b	#0		;r3 As==00
    2ddc:	52 30       	jn	$+166    	;abs 0x2e82
    2dde:	5f 20       	jnz	$+192    	;abs 0x2e9e
    2de0:	30 78       	subc	@r8+,	r0	
    2de2:	30 31       	jn	$+610    	;abs 0x3044
    2de4:	37 32       	jn	$-912    	;abs 0x2a54
    2de6:	00 01       	.word	0x0100;	????	
    2de8:	a0 04       	.word	0x04a0;	????	
    2dea:	54 41 30 43 	mov.b	17200(r1),r4	;0x4330(r1)
    2dee:	43 52       	.word	0x5243;	????	Illegal as 2-op instr
    2df0:	31 5f       	add	@r15+,	r1	
    2df2:	20 30       	jn	$+66     	;abs 0x2e34
    2df4:	78 30       	jn	$+242    	;abs 0x2ee6
    2df6:	31 37       	jge	$-412    	;abs 0x2c5a
    2df8:	34 00       	.word	0x0034;	????	
    2dfa:	01 a2       	dadd	r2,	r1	
    2dfc:	04 54       	rla	r4		
    2dfe:	41 30       	jn	$+132    	;abs 0x2e82
    2e00:	43 43       	clr.b	#0		;r3 As==00
    2e02:	52 32       	jn	$-858    	;abs 0x2aa8
    2e04:	5f 20       	jnz	$+192    	;abs 0x2ec4
    2e06:	30 78       	subc	@r8+,	r0	
    2e08:	30 31       	jn	$+610    	;abs 0x306a
    2e0a:	37 36       	jge	$-912    	;abs 0x2a7a
    2e0c:	00 01       	.word	0x0100;	????	
    2e0e:	a6 04       	.word	0x04a6;	????	
    2e10:	54 41 49 56 	mov.b	22089(r1),r4	;0x5649(r1)
    2e14:	20 54       	add	@r4,	r0	
    2e16:	41 30       	jn	$+132    	;abs 0x2e9a
    2e18:	49 56       	add.b	r6,	r9	
    2e1a:	00 01       	.word	0x0100;	????	
    2e1c:	a7 04       	.word	0x04a7;	????	
    2e1e:	54 41 43 54 	mov.b	21571(r1),r4	;0x5443(r1)
    2e22:	4c 20       	jnz	$+154    	;abs 0x2ebc
    2e24:	54 41 30 43 	mov.b	17200(r1),r4	;0x4330(r1)
    2e28:	54 4c 00 01 	mov.b	256(r12),r4	;0x0100(r12)
    2e2c:	a8 04       	.word	0x04a8;	????	
    2e2e:	54 41 43 43 	mov.b	17219(r1),r4	;0x4343(r1)
    2e32:	54 4c 30 20 	mov.b	8240(r12),r4	;0x2030(r12)
    2e36:	54 41 30 43 	mov.b	17200(r1),r4	;0x4330(r1)
    2e3a:	43 54       	.word	0x5443;	????	Illegal as 2-op instr
    2e3c:	4c 30       	jn	$+154    	;abs 0x2ed6
    2e3e:	00 01       	.word	0x0100;	????	
    2e40:	a9 04       	.word	0x04a9;	????	
    2e42:	54 41 43 43 	mov.b	17219(r1),r4	;0x4343(r1)
    2e46:	54 4c 31 20 	mov.b	8241(r12),r4	;0x2031(r12)
    2e4a:	54 41 30 43 	mov.b	17200(r1),r4	;0x4330(r1)
    2e4e:	43 54       	.word	0x5443;	????	Illegal as 2-op instr
    2e50:	4c 31       	jn	$+666    	;abs 0x30ea
    2e52:	00 01       	.word	0x0100;	????	
    2e54:	aa 04       	.word	0x04aa;	????	
    2e56:	54 41 43 43 	mov.b	17219(r1),r4	;0x4343(r1)
    2e5a:	54 4c 32 20 	mov.b	8242(r12),r4	;0x2032(r12)
    2e5e:	54 41 30 43 	mov.b	17200(r1),r4	;0x4330(r1)
    2e62:	43 54       	.word	0x5443;	????	Illegal as 2-op instr
    2e64:	4c 32       	jn	$-870    	;abs 0x2afe
    2e66:	00 01       	.word	0x0100;	????	
    2e68:	ab 04       	.word	0x04ab;	????	
    2e6a:	54 41 52 20 	mov.b	8274(r1),r4	;0x2052(r1)
    2e6e:	54 41 30 52 	mov.b	21040(r1),r4	;0x5230(r1)
    2e72:	00 01       	.word	0x0100;	????	
    2e74:	ac 04       	.word	0x04ac;	????	
    2e76:	54 41 43 43 	mov.b	17219(r1),r4	;0x4343(r1)
    2e7a:	52 30       	jn	$+166    	;abs 0x2f20
    2e7c:	20 54       	add	@r4,	r0	
    2e7e:	41 30       	jn	$+132    	;abs 0x2f02
    2e80:	43 43       	clr.b	#0		;r3 As==00
    2e82:	52 30       	jn	$+166    	;abs 0x2f28
    2e84:	00 01       	.word	0x0100;	????	
    2e86:	ad 04       	.word	0x04ad;	????	
    2e88:	54 41 43 43 	mov.b	17219(r1),r4	;0x4343(r1)
    2e8c:	52 31       	jn	$+678    	;abs 0x3132
    2e8e:	20 54       	add	@r4,	r0	
    2e90:	41 30       	jn	$+132    	;abs 0x2f14
    2e92:	43 43       	clr.b	#0		;r3 As==00
    2e94:	52 31       	jn	$+678    	;abs 0x313a
    2e96:	00 01       	.word	0x0100;	????	
    2e98:	ae 04       	.word	0x04ae;	????	
    2e9a:	54 41 43 43 	mov.b	17219(r1),r4	;0x4343(r1)
    2e9e:	52 32       	jn	$-858    	;abs 0x2b44
    2ea0:	20 54       	add	@r4,	r0	
    2ea2:	41 30       	jn	$+132    	;abs 0x2f26
    2ea4:	43 43       	clr.b	#0		;r3 As==00
    2ea6:	52 32       	jn	$-858    	;abs 0x2b4c
    2ea8:	00 01       	.word	0x0100;	????	
    2eaa:	af 04       	.word	0x04af;	????	
    2eac:	54 41 49 56 	mov.b	22089(r1),r4	;0x5649(r1)
    2eb0:	5f 20       	jnz	$+192    	;abs 0x2f70
    2eb2:	54 41 30 49 	mov.b	18736(r1),r4	;0x4930(r1)
    2eb6:	56 5f 00 01 	add.b	256(r15),r6	;0x0100(r15)
    2eba:	b0 04       	.word	0x04b0;	????	
    2ebc:	54 41 43 54 	mov.b	21571(r1),r4	;0x5443(r1)
    2ec0:	4c 5f       	add.b	r15,	r12	
    2ec2:	20 54       	add	@r4,	r0	
    2ec4:	41 30       	jn	$+132    	;abs 0x2f48
    2ec6:	43 54       	.word	0x5443;	????	Illegal as 2-op instr
    2ec8:	4c 5f       	add.b	r15,	r12	
    2eca:	00 01       	.word	0x0100;	????	
    2ecc:	b1 04       	.word	0x04b1;	????	
    2ece:	54 41 43 43 	mov.b	17219(r1),r4	;0x4343(r1)
    2ed2:	54 4c 30 5f 	mov.b	24368(r12),r4	;0x5f30(r12)
    2ed6:	20 54       	add	@r4,	r0	
    2ed8:	41 30       	jn	$+132    	;abs 0x2f5c
    2eda:	43 43       	clr.b	#0		;r3 As==00
    2edc:	54 4c 30 5f 	mov.b	24368(r12),r4	;0x5f30(r12)
    2ee0:	00 01       	.word	0x0100;	????	
    2ee2:	b2 04       	.word	0x04b2;	????	
    2ee4:	54 41 43 43 	mov.b	17219(r1),r4	;0x4343(r1)
    2ee8:	54 4c 31 5f 	mov.b	24369(r12),r4	;0x5f31(r12)
    2eec:	20 54       	add	@r4,	r0	
    2eee:	41 30       	jn	$+132    	;abs 0x2f72
    2ef0:	43 43       	clr.b	#0		;r3 As==00
    2ef2:	54 4c 31 5f 	mov.b	24369(r12),r4	;0x5f31(r12)
    2ef6:	00 01       	.word	0x0100;	????	
    2ef8:	b3 04       	.word	0x04b3;	????	
    2efa:	54 41 43 43 	mov.b	17219(r1),r4	;0x4343(r1)
    2efe:	54 4c 32 5f 	mov.b	24370(r12),r4	;0x5f32(r12)
    2f02:	20 54       	add	@r4,	r0	
    2f04:	41 30       	jn	$+132    	;abs 0x2f88
    2f06:	43 43       	clr.b	#0		;r3 As==00
    2f08:	54 4c 32 5f 	mov.b	24370(r12),r4	;0x5f32(r12)
    2f0c:	00 01       	.word	0x0100;	????	
    2f0e:	b4 04       	.word	0x04b4;	????	
    2f10:	54 41 52 5f 	mov.b	24402(r1),r4	;0x5f52(r1)
    2f14:	20 54       	add	@r4,	r0	
    2f16:	41 30       	jn	$+132    	;abs 0x2f9a
    2f18:	52 5f 00 01 	add.b	256(r15),r2	;0x0100(r15)
    2f1c:	b5 04       	.word	0x04b5;	????	
    2f1e:	54 41 43 43 	mov.b	17219(r1),r4	;0x4343(r1)
    2f22:	52 30       	jn	$+166    	;abs 0x2fc8
    2f24:	5f 20       	jnz	$+192    	;abs 0x2fe4
    2f26:	54 41 30 43 	mov.b	17200(r1),r4	;0x4330(r1)
    2f2a:	43 52       	.word	0x5243;	????	Illegal as 2-op instr
    2f2c:	30 5f       	add	@r15+,	r0	
    2f2e:	00 01       	.word	0x0100;	????	
    2f30:	b6 04       	.word	0x04b6;	????	
    2f32:	54 41 43 43 	mov.b	17219(r1),r4	;0x4343(r1)
    2f36:	52 31       	jn	$+678    	;abs 0x31dc
    2f38:	5f 20       	jnz	$+192    	;abs 0x2ff8
    2f3a:	54 41 30 43 	mov.b	17200(r1),r4	;0x4330(r1)
    2f3e:	43 52       	.word	0x5243;	????	Illegal as 2-op instr
    2f40:	31 5f       	add	@r15+,	r1	
    2f42:	00 01       	.word	0x0100;	????	
    2f44:	b7 04       	.word	0x04b7;	????	
    2f46:	54 41 43 43 	mov.b	17219(r1),r4	;0x4343(r1)
    2f4a:	52 32       	jn	$-858    	;abs 0x2bf0
    2f4c:	5f 20       	jnz	$+192    	;abs 0x300c
    2f4e:	54 41 30 43 	mov.b	17200(r1),r4	;0x4330(r1)
    2f52:	43 52       	.word	0x5243;	????	Illegal as 2-op instr
    2f54:	32 5f       	add	@r15+,	r2	
    2f56:	00 01       	.word	0x0100;	????	
    2f58:	ba 04       	.word	0x04ba;	????	
    2f5a:	43 43       	clr.b	#0		;r3 As==00
    2f5c:	54 4c 30 20 	mov.b	8240(r12),r4	;0x2030(r12)
    2f60:	54 41 43 43 	mov.b	17219(r1),r4	;0x4343(r1)
    2f64:	54 4c 30 00 	mov.b	48(r12),r4	;0x0030(r12)
    2f68:	01 bb       	bit	r11,	r1	
    2f6a:	04 43       	clr	r4		
    2f6c:	43 54       	.word	0x5443;	????	Illegal as 2-op instr
    2f6e:	4c 31       	jn	$+666    	;abs 0x3208
    2f70:	20 54       	add	@r4,	r0	
    2f72:	41 43       	clr.b	r1		
    2f74:	43 54       	.word	0x5443;	????	Illegal as 2-op instr
    2f76:	4c 31       	jn	$+666    	;abs 0x3210
    2f78:	00 01       	.word	0x0100;	????	
    2f7a:	bc 04       	.word	0x04bc;	????	
    2f7c:	43 43       	clr.b	#0		;r3 As==00
    2f7e:	54 4c 32 20 	mov.b	8242(r12),r4	;0x2032(r12)
    2f82:	54 41 43 43 	mov.b	17219(r1),r4	;0x4343(r1)
    2f86:	54 4c 32 00 	mov.b	50(r12),r4	;0x0032(r12)
    2f8a:	01 bd       	bit	r13,	r1	
    2f8c:	04 43       	clr	r4		
    2f8e:	43 52       	.word	0x5243;	????	Illegal as 2-op instr
    2f90:	30 20       	jnz	$+98     	;abs 0x2ff2
    2f92:	54 41 43 43 	mov.b	17219(r1),r4	;0x4343(r1)
    2f96:	52 30       	jn	$+166    	;abs 0x303c
    2f98:	00 01       	.word	0x0100;	????	
    2f9a:	be 04       	.word	0x04be;	????	
    2f9c:	43 43       	clr.b	#0		;r3 As==00
    2f9e:	52 31       	jn	$+678    	;abs 0x3244
    2fa0:	20 54       	add	@r4,	r0	
    2fa2:	41 43       	clr.b	r1		
    2fa4:	43 52       	.word	0x5243;	????	Illegal as 2-op instr
    2fa6:	31 00       	.word	0x0031;	????	
    2fa8:	01 bf       	bit	r15,	r1	
    2faa:	04 43       	clr	r4		
    2fac:	43 52       	.word	0x5243;	????	Illegal as 2-op instr
    2fae:	32 20       	jnz	$+102    	;abs 0x3014
    2fb0:	54 41 43 43 	mov.b	17219(r1),r4	;0x4343(r1)
    2fb4:	52 32       	jn	$-858    	;abs 0x2c5a
    2fb6:	00 01       	.word	0x0100;	????	
    2fb8:	c0 04       	.word	0x04c0;	????	
    2fba:	43 43       	clr.b	#0		;r3 As==00
    2fbc:	54 4c 30 5f 	mov.b	24368(r12),r4	;0x5f30(r12)
    2fc0:	20 54       	add	@r4,	r0	
    2fc2:	41 43       	clr.b	r1		
    2fc4:	43 54       	.word	0x5443;	????	Illegal as 2-op instr
    2fc6:	4c 30       	jn	$+154    	;abs 0x3060
    2fc8:	5f 00       	.word	0x005f;	????	
    2fca:	01 c1       	bic	r1,	r1	
    2fcc:	04 43       	clr	r4		
    2fce:	43 54       	.word	0x5443;	????	Illegal as 2-op instr
    2fd0:	4c 31       	jn	$+666    	;abs 0x326a
    2fd2:	5f 20       	jnz	$+192    	;abs 0x3092
    2fd4:	54 41 43 43 	mov.b	17219(r1),r4	;0x4343(r1)
    2fd8:	54 4c 31 5f 	mov.b	24369(r12),r4	;0x5f31(r12)
    2fdc:	00 01       	.word	0x0100;	????	
    2fde:	c2 04       	.word	0x04c2;	????	
    2fe0:	43 43       	clr.b	#0		;r3 As==00
    2fe2:	54 4c 32 5f 	mov.b	24370(r12),r4	;0x5f32(r12)
    2fe6:	20 54       	add	@r4,	r0	
    2fe8:	41 43       	clr.b	r1		
    2fea:	43 54       	.word	0x5443;	????	Illegal as 2-op instr
    2fec:	4c 32       	jn	$-870    	;abs 0x2c86
    2fee:	5f 00       	.word	0x005f;	????	
    2ff0:	01 c3       	bic	#0,	r1	;r3 As==00
    2ff2:	04 43       	clr	r4		
    2ff4:	43 52       	.word	0x5243;	????	Illegal as 2-op instr
    2ff6:	30 5f       	add	@r15+,	r0	
    2ff8:	20 54       	add	@r4,	r0	
    2ffa:	41 43       	clr.b	r1		
    2ffc:	43 52       	.word	0x5243;	????	Illegal as 2-op instr
    2ffe:	30 5f       	add	@r15+,	r0	
    3000:	00 01       	.word	0x0100;	????	
    3002:	c4 04       	.word	0x04c4;	????	
    3004:	43 43       	clr.b	#0		;r3 As==00
    3006:	52 31       	jn	$+678    	;abs 0x32ac
    3008:	5f 20       	jnz	$+192    	;abs 0x30c8
    300a:	54 41 43 43 	mov.b	17219(r1),r4	;0x4343(r1)
    300e:	52 31       	jn	$+678    	;abs 0x32b4
    3010:	5f 00       	.word	0x005f;	????	
    3012:	01 c5       	bic	r5,	r1	
    3014:	04 43       	clr	r4		
    3016:	43 52       	.word	0x5243;	????	Illegal as 2-op instr
    3018:	32 5f       	add	@r15+,	r2	
    301a:	20 54       	add	@r4,	r0	
    301c:	41 43       	clr.b	r1		
    301e:	43 52       	.word	0x5243;	????	Illegal as 2-op instr
    3020:	32 5f       	add	@r15+,	r2	
    3022:	00 01       	.word	0x0100;	????	
    3024:	c7 04       	.word	0x04c7;	????	
    3026:	54 41 53 53 	mov.b	21331(r1),r4	;0x5353(r1)
    302a:	45 4c       	mov.b	r12,	r5	
    302c:	31 20       	jnz	$+100    	;abs 0x3090
    302e:	28 30       	jn	$+82     	;abs 0x3080
    3030:	78 30       	jn	$+242    	;abs 0x3122
    3032:	32 30       	jn	$+102    	;abs 0x3098
    3034:	30 29       	jnc	$+610    	;abs 0x3296
    3036:	00 01       	.word	0x0100;	????	
    3038:	c8 04       	.word	0x04c8;	????	
    303a:	54 41 53 53 	mov.b	21331(r1),r4	;0x5353(r1)
    303e:	45 4c       	mov.b	r12,	r5	
    3040:	30 20       	jnz	$+98     	;abs 0x30a2
    3042:	28 30       	jn	$+82     	;abs 0x3094
    3044:	78 30       	jn	$+242    	;abs 0x3136
    3046:	31 30       	jn	$+100    	;abs 0x30aa
    3048:	30 29       	jnc	$+610    	;abs 0x32aa
    304a:	00 01       	.word	0x0100;	????	
    304c:	c9 04       	.word	0x04c9;	????	
    304e:	49 44       	mov.b	r4,	r9	
    3050:	31 20       	jnz	$+100    	;abs 0x30b4
    3052:	28 30       	jn	$+82     	;abs 0x30a4
    3054:	78 30       	jn	$+242    	;abs 0x3146
    3056:	30 38       	jl	$+98     	;abs 0x30b8
    3058:	30 29       	jnc	$+610    	;abs 0x32ba
    305a:	00 01       	.word	0x0100;	????	
    305c:	ca 04       	.word	0x04ca;	????	
    305e:	49 44       	mov.b	r4,	r9	
    3060:	30 20       	jnz	$+98     	;abs 0x30c2
    3062:	28 30       	jn	$+82     	;abs 0x30b4
    3064:	78 30       	jn	$+242    	;abs 0x3156
    3066:	30 34       	jge	$+98     	;abs 0x30c8
    3068:	30 29       	jnc	$+610    	;abs 0x32ca
    306a:	00 01       	.word	0x0100;	????	
    306c:	cb 04       	.word	0x04cb;	????	
    306e:	4d 43       	clr.b	r13		
    3070:	31 20       	jnz	$+100    	;abs 0x30d4
    3072:	28 30       	jn	$+82     	;abs 0x30c4
    3074:	78 30       	jn	$+242    	;abs 0x3166
    3076:	30 32       	jn	$-926    	;abs 0x2cd8
    3078:	30 29       	jnc	$+610    	;abs 0x32da
    307a:	00 01       	.word	0x0100;	????	
    307c:	cc 04       	.word	0x04cc;	????	
    307e:	4d 43       	clr.b	r13		
    3080:	30 20       	jnz	$+98     	;abs 0x30e2
    3082:	28 30       	jn	$+82     	;abs 0x30d4
    3084:	78 30       	jn	$+242    	;abs 0x3176
    3086:	30 31       	jn	$+610    	;abs 0x32e8
    3088:	30 29       	jnc	$+610    	;abs 0x32ea
    308a:	00 01       	.word	0x0100;	????	
    308c:	cd 04       	.word	0x04cd;	????	
    308e:	54 41 43 4c 	mov.b	19523(r1),r4	;0x4c43(r1)
    3092:	52 20       	jnz	$+166    	;abs 0x3138
    3094:	28 30       	jn	$+82     	;abs 0x30e6
    3096:	78 30       	jn	$+242    	;abs 0x3188
    3098:	30 30       	jn	$+98     	;abs 0x30fa
    309a:	34 29       	jnc	$+618    	;abs 0x3304
    309c:	00 01       	.word	0x0100;	????	
    309e:	ce 04       	.word	0x04ce;	????	
    30a0:	54 41 49 45 	mov.b	17737(r1),r4	;0x4549(r1)
    30a4:	20 28       	jnc	$+66     	;abs 0x30e6
    30a6:	30 78       	subc	@r8+,	r0	
    30a8:	30 30       	jn	$+98     	;abs 0x310a
    30aa:	30 32       	jn	$-926    	;abs 0x2d0c
    30ac:	29 00       	.word	0x0029;	????	
    30ae:	01 cf       	bic	r15,	r1	
    30b0:	04 54       	rla	r4		
    30b2:	41 49       	mov.b	r9,	r1	
    30b4:	46 47       	mov.b	r7,	r6	
    30b6:	20 28       	jnc	$+66     	;abs 0x30f8
    30b8:	30 78       	subc	@r8+,	r0	
    30ba:	30 30       	jn	$+98     	;abs 0x311c
    30bc:	30 31       	jn	$+610    	;abs 0x331e
    30be:	29 00       	.word	0x0029;	????	
    30c0:	01 d1       	bis	r1,	r1	
    30c2:	04 4d       	mov	r13,	r4	
    30c4:	43 5f       	.word	0x5f43;	????	Illegal as 2-op instr
    30c6:	30 20       	jnz	$+98     	;abs 0x3128
    30c8:	28 30       	jn	$+82     	;abs 0x311a
    30ca:	78 30       	jn	$+242    	;abs 0x31bc
    30cc:	30 30       	jn	$+98     	;abs 0x312e
    30ce:	30 29       	jnc	$+610    	;abs 0x3330
    30d0:	00 01       	.word	0x0100;	????	
    30d2:	d2 04       	.word	0x04d2;	????	
    30d4:	4d 43       	clr.b	r13		
    30d6:	5f 31       	jn	$+704    	;abs 0x3396
    30d8:	20 28       	jnc	$+66     	;abs 0x311a
    30da:	30 78       	subc	@r8+,	r0	
    30dc:	30 30       	jn	$+98     	;abs 0x313e
    30de:	31 30       	jn	$+100    	;abs 0x3142
    30e0:	29 00       	.word	0x0029;	????	
    30e2:	01 d3       	bis	#0,	r1	;r3 As==00
    30e4:	04 4d       	mov	r13,	r4	
    30e6:	43 5f       	.word	0x5f43;	????	Illegal as 2-op instr
    30e8:	32 20       	jnz	$+102    	;abs 0x314e
    30ea:	28 30       	jn	$+82     	;abs 0x313c
    30ec:	78 30       	jn	$+242    	;abs 0x31de
    30ee:	30 32       	jn	$-926    	;abs 0x2d50
    30f0:	30 29       	jnc	$+610    	;abs 0x3352
    30f2:	00 01       	.word	0x0100;	????	
    30f4:	d4 04       	.word	0x04d4;	????	
    30f6:	4d 43       	clr.b	r13		
    30f8:	5f 33       	jn	$-320    	;abs 0x2fb8
    30fa:	20 28       	jnc	$+66     	;abs 0x313c
    30fc:	30 78       	subc	@r8+,	r0	
    30fe:	30 30       	jn	$+98     	;abs 0x3160
    3100:	33 30       	jn	$+104    	;abs 0x3168
    3102:	29 00       	.word	0x0029;	????	
    3104:	01 d5       	bis	r5,	r1	
    3106:	04 49       	mov	r9,	r4	
    3108:	44 5f       	add.b	r15,	r4	
    310a:	30 20       	jnz	$+98     	;abs 0x316c
    310c:	28 30       	jn	$+82     	;abs 0x315e
    310e:	78 30       	jn	$+242    	;abs 0x3200
    3110:	30 30       	jn	$+98     	;abs 0x3172
    3112:	30 29       	jnc	$+610    	;abs 0x3374
    3114:	00 01       	.word	0x0100;	????	
    3116:	d6 04       	.word	0x04d6;	????	
    3118:	49 44       	mov.b	r4,	r9	
    311a:	5f 31       	jn	$+704    	;abs 0x33da
    311c:	20 28       	jnc	$+66     	;abs 0x315e
    311e:	30 78       	subc	@r8+,	r0	
    3120:	30 30       	jn	$+98     	;abs 0x3182
    3122:	34 30       	jn	$+106    	;abs 0x318c
    3124:	29 00       	.word	0x0029;	????	
    3126:	01 d7       	bis	r7,	r1	
    3128:	04 49       	mov	r9,	r4	
    312a:	44 5f       	add.b	r15,	r4	
    312c:	32 20       	jnz	$+102    	;abs 0x3192
    312e:	28 30       	jn	$+82     	;abs 0x3180
    3130:	78 30       	jn	$+242    	;abs 0x3222
    3132:	30 38       	jl	$+98     	;abs 0x3194
    3134:	30 29       	jnc	$+610    	;abs 0x3396
    3136:	00 01       	.word	0x0100;	????	
    3138:	d8 04       	.word	0x04d8;	????	
    313a:	49 44       	mov.b	r4,	r9	
    313c:	5f 33       	jn	$-320    	;abs 0x2ffc
    313e:	20 28       	jnc	$+66     	;abs 0x3180
    3140:	30 78       	subc	@r8+,	r0	
    3142:	30 30       	jn	$+98     	;abs 0x31a4
    3144:	43 30       	jn	$+136    	;abs 0x31cc
    3146:	29 00       	.word	0x0029;	????	
    3148:	01 d9       	bis	r9,	r1	
    314a:	04 54       	rla	r4		
    314c:	41 53       	add.b	#0,	r1	;r3 As==00
    314e:	53 45       	.word	0x4553;	????	Illegal as 2-op instr
    3150:	4c 5f       	add.b	r15,	r12	
    3152:	30 20       	jnz	$+98     	;abs 0x31b4
    3154:	28 30       	jn	$+82     	;abs 0x31a6
    3156:	78 30       	jn	$+242    	;abs 0x3248
    3158:	30 30       	jn	$+98     	;abs 0x31ba
    315a:	30 29       	jnc	$+610    	;abs 0x33bc
    315c:	00 01       	.word	0x0100;	????	
    315e:	da 04       	.word	0x04da;	????	
    3160:	54 41 53 53 	mov.b	21331(r1),r4	;0x5353(r1)
    3164:	45 4c       	mov.b	r12,	r5	
    3166:	5f 31       	jn	$+704    	;abs 0x3426
    3168:	20 28       	jnc	$+66     	;abs 0x31aa
    316a:	30 78       	subc	@r8+,	r0	
    316c:	30 31       	jn	$+610    	;abs 0x33ce
    316e:	30 30       	jn	$+98     	;abs 0x31d0
    3170:	29 00       	.word	0x0029;	????	
    3172:	01 db       	bis	r11,	r1	
    3174:	04 54       	rla	r4		
    3176:	41 53       	add.b	#0,	r1	;r3 As==00
    3178:	53 45       	.word	0x4553;	????	Illegal as 2-op instr
    317a:	4c 5f       	add.b	r15,	r12	
    317c:	32 20       	jnz	$+102    	;abs 0x31e2
    317e:	28 30       	jn	$+82     	;abs 0x31d0
    3180:	78 30       	jn	$+242    	;abs 0x3272
    3182:	32 30       	jn	$+102    	;abs 0x31e8
    3184:	30 29       	jnc	$+610    	;abs 0x33e6
    3186:	00 01       	.word	0x0100;	????	
    3188:	dc 04       	.word	0x04dc;	????	
    318a:	54 41 53 53 	mov.b	21331(r1),r4	;0x5353(r1)
    318e:	45 4c       	mov.b	r12,	r5	
    3190:	5f 33       	jn	$-320    	;abs 0x3050
    3192:	20 28       	jnc	$+66     	;abs 0x31d4
    3194:	30 78       	subc	@r8+,	r0	
    3196:	30 33       	jn	$-414    	;abs 0x2ff8
    3198:	30 30       	jn	$+98     	;abs 0x31fa
    319a:	29 00       	.word	0x0029;	????	
    319c:	01 de       	bis	r14,	r1	
    319e:	04 43       	clr	r4		
    31a0:	4d 31       	jn	$+668    	;abs 0x343c
    31a2:	20 28       	jnc	$+66     	;abs 0x31e4
    31a4:	30 78       	subc	@r8+,	r0	
    31a6:	38 30       	jn	$+114    	;abs 0x3218
    31a8:	30 30       	jn	$+98     	;abs 0x320a
    31aa:	29 00       	.word	0x0029;	????	
    31ac:	01 df       	bis	r15,	r1	
    31ae:	04 43       	clr	r4		
    31b0:	4d 30       	jn	$+156    	;abs 0x324c
    31b2:	20 28       	jnc	$+66     	;abs 0x31f4
    31b4:	30 78       	subc	@r8+,	r0	
    31b6:	34 30       	jn	$+106    	;abs 0x3220
    31b8:	30 30       	jn	$+98     	;abs 0x321a
    31ba:	29 00       	.word	0x0029;	????	
    31bc:	01 e0       	xor	r0,	r1	
    31be:	04 43       	clr	r4		
    31c0:	43 49       	.word	0x4943;	????	Illegal as 2-op instr
    31c2:	53 31       	jn	$+680    	;abs 0x346a
    31c4:	20 28       	jnc	$+66     	;abs 0x3206
    31c6:	30 78       	subc	@r8+,	r0	
    31c8:	32 30       	jn	$+102    	;abs 0x322e
    31ca:	30 30       	jn	$+98     	;abs 0x322c
    31cc:	29 00       	.word	0x0029;	????	
    31ce:	01 e1       	xor	r1,	r1	
    31d0:	04 43       	clr	r4		
    31d2:	43 49       	.word	0x4943;	????	Illegal as 2-op instr
    31d4:	53 30       	jn	$+168    	;abs 0x327c
    31d6:	20 28       	jnc	$+66     	;abs 0x3218
    31d8:	30 78       	subc	@r8+,	r0	
    31da:	31 30       	jn	$+100    	;abs 0x323e
    31dc:	30 30       	jn	$+98     	;abs 0x323e
    31de:	29 00       	.word	0x0029;	????	
    31e0:	01 e2       	xor	r2,	r1	
    31e2:	04 53       	add	#0,	r4	;r3 As==00
    31e4:	43 53       	.word	0x5343;	????	Illegal as emulation instr
    31e6:	20 28       	jnc	$+66     	;abs 0x3228
    31e8:	30 78       	subc	@r8+,	r0	
    31ea:	30 38       	jl	$+98     	;abs 0x324c
    31ec:	30 30       	jn	$+98     	;abs 0x324e
    31ee:	29 00       	.word	0x0029;	????	
    31f0:	01 e3       	xor	#0,	r1	;r3 As==00
    31f2:	04 53       	add	#0,	r4	;r3 As==00
    31f4:	43 43       	clr.b	#0		;r3 As==00
    31f6:	49 20       	jnz	$+148    	;abs 0x328a
    31f8:	28 30       	jn	$+82     	;abs 0x324a
    31fa:	78 30       	jn	$+242    	;abs 0x32ec
    31fc:	34 30       	jn	$+106    	;abs 0x3266
    31fe:	30 29       	jnc	$+610    	;abs 0x3460
    3200:	00 01       	.word	0x0100;	????	
    3202:	e4 04       	.word	0x04e4;	????	
    3204:	43 41       	.word	0x4143;	????	Illegal as 2-op instr
    3206:	50 20       	jnz	$+162    	;abs 0x32a8
    3208:	28 30       	jn	$+82     	;abs 0x325a
    320a:	78 30       	jn	$+242    	;abs 0x32fc
    320c:	31 30       	jn	$+100    	;abs 0x3270
    320e:	30 29       	jnc	$+610    	;abs 0x3470
    3210:	00 01       	.word	0x0100;	????	
    3212:	e5 04       	.word	0x04e5;	????	
    3214:	4f 55       	add.b	r5,	r15	
    3216:	54 4d 4f 44 	mov.b	17487(r13),r4	;0x444f(r13)
    321a:	32 20       	jnz	$+102    	;abs 0x3280
    321c:	28 30       	jn	$+82     	;abs 0x326e
    321e:	78 30       	jn	$+242    	;abs 0x3310
    3220:	30 38       	jl	$+98     	;abs 0x3282
    3222:	30 29       	jnc	$+610    	;abs 0x3484
    3224:	00 01       	.word	0x0100;	????	
    3226:	e6 04       	.word	0x04e6;	????	
    3228:	4f 55       	add.b	r5,	r15	
    322a:	54 4d 4f 44 	mov.b	17487(r13),r4	;0x444f(r13)
    322e:	31 20       	jnz	$+100    	;abs 0x3292
    3230:	28 30       	jn	$+82     	;abs 0x3282
    3232:	78 30       	jn	$+242    	;abs 0x3324
    3234:	30 34       	jge	$+98     	;abs 0x3296
    3236:	30 29       	jnc	$+610    	;abs 0x3498
    3238:	00 01       	.word	0x0100;	????	
    323a:	e7 04       	.word	0x04e7;	????	
    323c:	4f 55       	add.b	r5,	r15	
    323e:	54 4d 4f 44 	mov.b	17487(r13),r4	;0x444f(r13)
    3242:	30 20       	jnz	$+98     	;abs 0x32a4
    3244:	28 30       	jn	$+82     	;abs 0x3296
    3246:	78 30       	jn	$+242    	;abs 0x3338
    3248:	30 32       	jn	$-926    	;abs 0x2eaa
    324a:	30 29       	jnc	$+610    	;abs 0x34ac
    324c:	00 01       	.word	0x0100;	????	
    324e:	e8 04       	.word	0x04e8;	????	
    3250:	43 43       	clr.b	#0		;r3 As==00
    3252:	49 45       	mov.b	r5,	r9	
    3254:	20 28       	jnc	$+66     	;abs 0x3296
    3256:	30 78       	subc	@r8+,	r0	
    3258:	30 30       	jn	$+98     	;abs 0x32ba
    325a:	31 30       	jn	$+100    	;abs 0x32be
    325c:	29 00       	.word	0x0029;	????	
    325e:	01 e9       	xor	r9,	r1	
    3260:	04 43       	clr	r4		
    3262:	43 49       	.word	0x4943;	????	Illegal as 2-op instr
    3264:	20 28       	jnc	$+66     	;abs 0x32a6
    3266:	30 78       	subc	@r8+,	r0	
    3268:	30 30       	jn	$+98     	;abs 0x32ca
    326a:	30 38       	jl	$+98     	;abs 0x32cc
    326c:	29 00       	.word	0x0029;	????	
    326e:	01 ea       	xor	r10,	r1	
    3270:	04 4f       	mov	r15,	r4	
    3272:	55 54 20 28 	add.b	10272(r4),r5	;0x2820(r4)
    3276:	30 78       	subc	@r8+,	r0	
    3278:	30 30       	jn	$+98     	;abs 0x32da
    327a:	30 34       	jge	$+98     	;abs 0x32dc
    327c:	29 00       	.word	0x0029;	????	
    327e:	01 eb       	xor	r11,	r1	
    3280:	04 43       	clr	r4		
    3282:	4f 56       	add.b	r6,	r15	
    3284:	20 28       	jnc	$+66     	;abs 0x32c6
    3286:	30 78       	subc	@r8+,	r0	
    3288:	30 30       	jn	$+98     	;abs 0x32ea
    328a:	30 32       	jn	$-926    	;abs 0x2eec
    328c:	29 00       	.word	0x0029;	????	
    328e:	01 ec       	xor	r12,	r1	
    3290:	04 43       	clr	r4		
    3292:	43 49       	.word	0x4943;	????	Illegal as 2-op instr
    3294:	46 47       	mov.b	r7,	r6	
    3296:	20 28       	jnc	$+66     	;abs 0x32d8
    3298:	30 78       	subc	@r8+,	r0	
    329a:	30 30       	jn	$+98     	;abs 0x32fc
    329c:	30 31       	jn	$+610    	;abs 0x34fe
    329e:	29 00       	.word	0x0029;	????	
    32a0:	01 ee       	xor	r14,	r1	
    32a2:	04 4f       	mov	r15,	r4	
    32a4:	55 54 4d 4f 	add.b	20301(r4),r5	;0x4f4d(r4)
    32a8:	44 5f       	add.b	r15,	r4	
    32aa:	30 20       	jnz	$+98     	;abs 0x330c
    32ac:	28 30       	jn	$+82     	;abs 0x32fe
    32ae:	78 30       	jn	$+242    	;abs 0x33a0
    32b0:	30 30       	jn	$+98     	;abs 0x3312
    32b2:	30 29       	jnc	$+610    	;abs 0x3514
    32b4:	00 01       	.word	0x0100;	????	
    32b6:	ef 04       	.word	0x04ef;	????	
    32b8:	4f 55       	add.b	r5,	r15	
    32ba:	54 4d 4f 44 	mov.b	17487(r13),r4	;0x444f(r13)
    32be:	5f 31       	jn	$+704    	;abs 0x357e
    32c0:	20 28       	jnc	$+66     	;abs 0x3302
    32c2:	30 78       	subc	@r8+,	r0	
    32c4:	30 30       	jn	$+98     	;abs 0x3326
    32c6:	32 30       	jn	$+102    	;abs 0x332c
    32c8:	29 00       	.word	0x0029;	????	
    32ca:	01 f0       	and	r0,	r1	
    32cc:	04 4f       	mov	r15,	r4	
    32ce:	55 54 4d 4f 	add.b	20301(r4),r5	;0x4f4d(r4)
    32d2:	44 5f       	add.b	r15,	r4	
    32d4:	32 20       	jnz	$+102    	;abs 0x333a
    32d6:	28 30       	jn	$+82     	;abs 0x3328
    32d8:	78 30       	jn	$+242    	;abs 0x33ca
    32da:	30 34       	jge	$+98     	;abs 0x333c
    32dc:	30 29       	jnc	$+610    	;abs 0x353e
    32de:	00 01       	.word	0x0100;	????	
    32e0:	f1 04       	.word	0x04f1;	????	
    32e2:	4f 55       	add.b	r5,	r15	
    32e4:	54 4d 4f 44 	mov.b	17487(r13),r4	;0x444f(r13)
    32e8:	5f 33       	jn	$-320    	;abs 0x31a8
    32ea:	20 28       	jnc	$+66     	;abs 0x332c
    32ec:	30 78       	subc	@r8+,	r0	
    32ee:	30 30       	jn	$+98     	;abs 0x3350
    32f0:	36 30       	jn	$+110    	;abs 0x335e
    32f2:	29 00       	.word	0x0029;	????	
    32f4:	01 f2       	and	r2,	r1	
    32f6:	04 4f       	mov	r15,	r4	
    32f8:	55 54 4d 4f 	add.b	20301(r4),r5	;0x4f4d(r4)
    32fc:	44 5f       	add.b	r15,	r4	
    32fe:	34 20       	jnz	$+106    	;abs 0x3368
    3300:	28 30       	jn	$+82     	;abs 0x3352
    3302:	78 30       	jn	$+242    	;abs 0x33f4
    3304:	30 38       	jl	$+98     	;abs 0x3366
    3306:	30 29       	jnc	$+610    	;abs 0x3568
    3308:	00 01       	.word	0x0100;	????	
    330a:	f3 04       	.word	0x04f3;	????	
    330c:	4f 55       	add.b	r5,	r15	
    330e:	54 4d 4f 44 	mov.b	17487(r13),r4	;0x444f(r13)
    3312:	5f 35       	jge	$+704    	;abs 0x35d2
    3314:	20 28       	jnc	$+66     	;abs 0x3356
    3316:	30 78       	subc	@r8+,	r0	
    3318:	30 30       	jn	$+98     	;abs 0x337a
    331a:	41 30       	jn	$+132    	;abs 0x339e
    331c:	29 00       	.word	0x0029;	????	
    331e:	01 f4       	and	r4,	r1	
    3320:	04 4f       	mov	r15,	r4	
    3322:	55 54 4d 4f 	add.b	20301(r4),r5	;0x4f4d(r4)
    3326:	44 5f       	add.b	r15,	r4	
    3328:	36 20       	jnz	$+110    	;abs 0x3396
    332a:	28 30       	jn	$+82     	;abs 0x337c
    332c:	78 30       	jn	$+242    	;abs 0x341e
    332e:	30 43       	br	#-1		;r3 As==11
    3330:	30 29       	jnc	$+610    	;abs 0x3592
    3332:	00 01       	.word	0x0100;	????	
    3334:	f5 04       	.word	0x04f5;	????	
    3336:	4f 55       	add.b	r5,	r15	
    3338:	54 4d 4f 44 	mov.b	17487(r13),r4	;0x444f(r13)
    333c:	5f 37       	jge	$-320    	;abs 0x31fc
    333e:	20 28       	jnc	$+66     	;abs 0x3380
    3340:	30 78       	subc	@r8+,	r0	
    3342:	30 30       	jn	$+98     	;abs 0x33a4
    3344:	45 30       	jn	$+140    	;abs 0x33d0
    3346:	29 00       	.word	0x0029;	????	
    3348:	01 f6       	and	r6,	r1	
    334a:	04 43       	clr	r4		
    334c:	43 49       	.word	0x4943;	????	Illegal as 2-op instr
    334e:	53 5f       	.word	0x5f53;	????	Illegal as 2-op instr
    3350:	30 20       	jnz	$+98     	;abs 0x33b2
    3352:	28 30       	jn	$+82     	;abs 0x33a4
    3354:	78 30       	jn	$+242    	;abs 0x3446
    3356:	30 30       	jn	$+98     	;abs 0x33b8
    3358:	30 29       	jnc	$+610    	;abs 0x35ba
    335a:	00 01       	.word	0x0100;	????	
    335c:	f7 04       	.word	0x04f7;	????	
    335e:	43 43       	clr.b	#0		;r3 As==00
    3360:	49 53       	add.b	#0,	r9	;r3 As==00
    3362:	5f 31       	jn	$+704    	;abs 0x3622
    3364:	20 28       	jnc	$+66     	;abs 0x33a6
    3366:	30 78       	subc	@r8+,	r0	
    3368:	31 30       	jn	$+100    	;abs 0x33cc
    336a:	30 30       	jn	$+98     	;abs 0x33cc
    336c:	29 00       	.word	0x0029;	????	
    336e:	01 f8       	and	r8,	r1	
    3370:	04 43       	clr	r4		
    3372:	43 49       	.word	0x4943;	????	Illegal as 2-op instr
    3374:	53 5f       	.word	0x5f53;	????	Illegal as 2-op instr
    3376:	32 20       	jnz	$+102    	;abs 0x33dc
    3378:	28 30       	jn	$+82     	;abs 0x33ca
    337a:	78 32       	jn	$-782    	;abs 0x306c
    337c:	30 30       	jn	$+98     	;abs 0x33de
    337e:	30 29       	jnc	$+610    	;abs 0x35e0
    3380:	00 01       	.word	0x0100;	????	
    3382:	f9 04       	.word	0x04f9;	????	
    3384:	43 43       	clr.b	#0		;r3 As==00
    3386:	49 53       	add.b	#0,	r9	;r3 As==00
    3388:	5f 33       	jn	$-320    	;abs 0x3248
    338a:	20 28       	jnc	$+66     	;abs 0x33cc
    338c:	30 78       	subc	@r8+,	r0	
    338e:	33 30       	jn	$+104    	;abs 0x33f6
    3390:	30 30       	jn	$+98     	;abs 0x33f2
    3392:	29 00       	.word	0x0029;	????	
    3394:	01 fa       	and	r10,	r1	
    3396:	04 43       	clr	r4		
    3398:	4d 5f       	add.b	r15,	r13	
    339a:	30 20       	jnz	$+98     	;abs 0x33fc
    339c:	28 30       	jn	$+82     	;abs 0x33ee
    339e:	78 30       	jn	$+242    	;abs 0x3490
    33a0:	30 30       	jn	$+98     	;abs 0x3402
    33a2:	30 29       	jnc	$+610    	;abs 0x3604
    33a4:	00 01       	.word	0x0100;	????	
    33a6:	fb 04       	.word	0x04fb;	????	
    33a8:	43 4d       	.word	0x4d43;	????	Illegal as 2-op instr
    33aa:	5f 31       	jn	$+704    	;abs 0x366a
    33ac:	20 28       	jnc	$+66     	;abs 0x33ee
    33ae:	30 78       	subc	@r8+,	r0	
    33b0:	34 30       	jn	$+106    	;abs 0x341a
    33b2:	30 30       	jn	$+98     	;abs 0x3414
    33b4:	29 00       	.word	0x0029;	????	
    33b6:	01 fc       	and	r12,	r1	
    33b8:	04 43       	clr	r4		
    33ba:	4d 5f       	add.b	r15,	r13	
    33bc:	32 20       	jnz	$+102    	;abs 0x3422
    33be:	28 30       	jn	$+82     	;abs 0x3410
    33c0:	78 38       	jl	$+242    	;abs 0x34b2
    33c2:	30 30       	jn	$+98     	;abs 0x3424
    33c4:	30 29       	jnc	$+610    	;abs 0x3626
    33c6:	00 01       	.word	0x0100;	????	
    33c8:	fd 04       	.word	0x04fd;	????	
    33ca:	43 4d       	.word	0x4d43;	????	Illegal as 2-op instr
    33cc:	5f 33       	jn	$-320    	;abs 0x328c
    33ce:	20 28       	jnc	$+66     	;abs 0x3410
    33d0:	30 78       	subc	@r8+,	r0	
    33d2:	43 30       	jn	$+136    	;abs 0x345a
    33d4:	30 30       	jn	$+98     	;abs 0x3436
    33d6:	29 00       	.word	0x0029;	????	
    33d8:	01 80       	sub	r0,	r1	
    33da:	05 54       	add	r4,	r5	
    33dc:	41 30       	jn	$+132    	;abs 0x3460
    33de:	49 56       	add.b	r6,	r9	
    33e0:	5f 4e 4f 4e 	mov.b	20047(r14),r15	;0x4e4f(r14)
    33e4:	45 20       	jnz	$+140    	;abs 0x3470
    33e6:	28 30       	jn	$+82     	;abs 0x3438
    33e8:	78 30       	jn	$+242    	;abs 0x34da
    33ea:	30 30       	jn	$+98     	;abs 0x344c
    33ec:	30 29       	jnc	$+610    	;abs 0x364e
    33ee:	00 01       	.word	0x0100;	????	
    33f0:	81 05       	.word	0x0581;	????	
    33f2:	54 41 30 49 	mov.b	18736(r1),r4	;0x4930(r1)
    33f6:	56 5f 54 41 	add.b	16724(r15),r6	;0x4154(r15)
    33fa:	43 43       	clr.b	#0		;r3 As==00
    33fc:	52 31       	jn	$+678    	;abs 0x36a2
    33fe:	20 28       	jnc	$+66     	;abs 0x3440
    3400:	30 78       	subc	@r8+,	r0	
    3402:	30 30       	jn	$+98     	;abs 0x3464
    3404:	30 32       	jn	$-926    	;abs 0x3066
    3406:	29 00       	.word	0x0029;	????	
    3408:	01 82       	sub	r2,	r1	
    340a:	05 54       	add	r4,	r5	
    340c:	41 30       	jn	$+132    	;abs 0x3490
    340e:	49 56       	add.b	r6,	r9	
    3410:	5f 54 41 43 	add.b	17217(r4),r15	;0x4341(r4)
    3414:	43 52       	.word	0x5243;	????	Illegal as 2-op instr
    3416:	32 20       	jnz	$+102    	;abs 0x347c
    3418:	28 30       	jn	$+82     	;abs 0x346a
    341a:	78 30       	jn	$+242    	;abs 0x350c
    341c:	30 30       	jn	$+98     	;abs 0x347e
    341e:	34 29       	jnc	$+618    	;abs 0x3688
    3420:	00 01       	.word	0x0100;	????	
    3422:	83 05       	.word	0x0583;	????	
    3424:	54 41 30 49 	mov.b	18736(r1),r4	;0x4930(r1)
    3428:	56 5f 36 20 	add.b	8246(r15),r6	;0x2036(r15)
    342c:	28 30       	jn	$+82     	;abs 0x347e
    342e:	78 30       	jn	$+242    	;abs 0x3520
    3430:	30 30       	jn	$+98     	;abs 0x3492
    3432:	36 29       	jnc	$+622    	;abs 0x36a0
    3434:	00 01       	.word	0x0100;	????	
    3436:	84 05       	.word	0x0584;	????	
    3438:	54 41 30 49 	mov.b	18736(r1),r4	;0x4930(r1)
    343c:	56 5f 38 20 	add.b	8248(r15),r6	;0x2038(r15)
    3440:	28 30       	jn	$+82     	;abs 0x3492
    3442:	78 30       	jn	$+242    	;abs 0x3534
    3444:	30 30       	jn	$+98     	;abs 0x34a6
    3446:	38 29       	jnc	$+626    	;abs 0x36b8
    3448:	00 01       	.word	0x0100;	????	
    344a:	85 05       	.word	0x0585;	????	
    344c:	54 41 30 49 	mov.b	18736(r1),r4	;0x4930(r1)
    3450:	56 5f 54 41 	add.b	16724(r15),r6	;0x4154(r15)
    3454:	49 46       	mov.b	r6,	r9	
    3456:	47 20       	jnz	$+144    	;abs 0x34e6
    3458:	28 30       	jn	$+82     	;abs 0x34aa
    345a:	78 30       	jn	$+242    	;abs 0x354c
    345c:	30 30       	jn	$+98     	;abs 0x34be
    345e:	41 29       	jnc	$+644    	;abs 0x36e2
    3460:	00 01       	.word	0x0100;	????	
    3462:	8a 05       	.word	0x058a;	????	
    3464:	5f 5f 4d 53 	add.b	21325(r15),r15	;0x534d(r15)
    3468:	50 34       	jge	$+162    	;abs 0x350a
    346a:	33 30       	jn	$+104    	;abs 0x34d2
    346c:	5f 48 41 53 	mov.b	21313(r8),r15	;0x5341(r8)
    3470:	5f 54 31 41 	add.b	16689(r4),r15	;0x4131(r4)
    3474:	33 5f       	.word	0x5f33;	????	Illegal as 2-op instr
    3476:	5f 20       	jnz	$+192    	;abs 0x3536
    3478:	00 01       	.word	0x0100;	????	
    347a:	8c 05       	.word	0x058c;	????	
    347c:	54 41 31 49 	mov.b	18737(r1),r4	;0x4931(r1)
    3480:	56 5f 20 30 	add.b	12320(r15),r6	;0x3020(r15)
    3484:	78 30       	jn	$+242    	;abs 0x3576
    3486:	31 31       	jn	$+612    	;abs 0x36ea
    3488:	45 00       	.word	0x0045;	????	
    348a:	01 8e       	sub	r14,	r1	
    348c:	05 54       	add	r4,	r5	
    348e:	41 31       	jn	$+644    	;abs 0x3712
    3490:	43 54       	.word	0x5443;	????	Illegal as 2-op instr
    3492:	4c 5f       	add.b	r15,	r12	
    3494:	20 30       	jn	$+66     	;abs 0x34d6
    3496:	78 30       	jn	$+242    	;abs 0x3588
    3498:	31 38       	jl	$+100    	;abs 0x34fc
    349a:	30 00       	.word	0x0030;	????	
    349c:	01 90       	cmp	r0,	r1	
    349e:	05 54       	add	r4,	r5	
    34a0:	41 31       	jn	$+644    	;abs 0x3724
    34a2:	43 43       	clr.b	#0		;r3 As==00
    34a4:	54 4c 30 5f 	mov.b	24368(r12),r4	;0x5f30(r12)
    34a8:	20 30       	jn	$+66     	;abs 0x34ea
    34aa:	78 30       	jn	$+242    	;abs 0x359c
    34ac:	31 38       	jl	$+100    	;abs 0x3510
    34ae:	32 00       	.word	0x0032;	????	
    34b0:	01 92       	cmp	r2,	r1	
    34b2:	05 54       	add	r4,	r5	
    34b4:	41 31       	jn	$+644    	;abs 0x3738
    34b6:	43 43       	clr.b	#0		;r3 As==00
    34b8:	54 4c 31 5f 	mov.b	24369(r12),r4	;0x5f31(r12)
    34bc:	20 30       	jn	$+66     	;abs 0x34fe
    34be:	78 30       	jn	$+242    	;abs 0x35b0
    34c0:	31 38       	jl	$+100    	;abs 0x3524
    34c2:	34 00       	.word	0x0034;	????	
    34c4:	01 94       	cmp	r4,	r1	
    34c6:	05 54       	add	r4,	r5	
    34c8:	41 31       	jn	$+644    	;abs 0x374c
    34ca:	43 43       	clr.b	#0		;r3 As==00
    34cc:	54 4c 32 5f 	mov.b	24370(r12),r4	;0x5f32(r12)
    34d0:	20 30       	jn	$+66     	;abs 0x3512
    34d2:	78 30       	jn	$+242    	;abs 0x35c4
    34d4:	31 38       	jl	$+100    	;abs 0x3538
    34d6:	36 00       	.word	0x0036;	????	
    34d8:	01 96       	cmp	r6,	r1	
    34da:	05 54       	add	r4,	r5	
    34dc:	41 31       	jn	$+644    	;abs 0x3760
    34de:	52 5f 20 30 	add.b	12320(r15),r2	;0x3020(r15)
    34e2:	78 30       	jn	$+242    	;abs 0x35d4
    34e4:	31 39       	jl	$+612    	;abs 0x3748
    34e6:	30 00       	.word	0x0030;	????	
    34e8:	01 98       	cmp	r8,	r1	
    34ea:	05 54       	add	r4,	r5	
    34ec:	41 31       	jn	$+644    	;abs 0x3770
    34ee:	43 43       	clr.b	#0		;r3 As==00
    34f0:	52 30       	jn	$+166    	;abs 0x3596
    34f2:	5f 20       	jnz	$+192    	;abs 0x35b2
    34f4:	30 78       	subc	@r8+,	r0	
    34f6:	30 31       	jn	$+610    	;abs 0x3758
    34f8:	39 32       	jn	$-908    	;abs 0x316c
    34fa:	00 01       	.word	0x0100;	????	
    34fc:	9a 05       	.word	0x059a;	????	
    34fe:	54 41 31 43 	mov.b	17201(r1),r4	;0x4331(r1)
    3502:	43 52       	.word	0x5243;	????	Illegal as 2-op instr
    3504:	31 5f       	add	@r15+,	r1	
    3506:	20 30       	jn	$+66     	;abs 0x3548
    3508:	78 30       	jn	$+242    	;abs 0x35fa
    350a:	31 39       	jl	$+612    	;abs 0x376e
    350c:	34 00       	.word	0x0034;	????	
    350e:	01 9c       	cmp	r12,	r1	
    3510:	05 54       	add	r4,	r5	
    3512:	41 31       	jn	$+644    	;abs 0x3796
    3514:	43 43       	clr.b	#0		;r3 As==00
    3516:	52 32       	jn	$-858    	;abs 0x31bc
    3518:	5f 20       	jnz	$+192    	;abs 0x35d8
    351a:	30 78       	subc	@r8+,	r0	
    351c:	30 31       	jn	$+610    	;abs 0x377e
    351e:	39 36       	jge	$-908    	;abs 0x3192
    3520:	00 01       	.word	0x0100;	????	
    3522:	a2 05       	.word	0x05a2;	????	
    3524:	54 41 31 49 	mov.b	18737(r1),r4	;0x4931(r1)
    3528:	56 5f 4e 4f 	add.b	20302(r15),r6	;0x4f4e(r15)
    352c:	4e 45       	mov.b	r5,	r14	
    352e:	20 28       	jnc	$+66     	;abs 0x3570
    3530:	30 78       	subc	@r8+,	r0	
    3532:	30 30       	jn	$+98     	;abs 0x3594
    3534:	30 30       	jn	$+98     	;abs 0x3596
    3536:	29 00       	.word	0x0029;	????	
    3538:	01 a3       	dadc	r1		
    353a:	05 54       	add	r4,	r5	
    353c:	41 31       	jn	$+644    	;abs 0x37c0
    353e:	49 56       	add.b	r6,	r9	
    3540:	5f 54 41 43 	add.b	17217(r4),r15	;0x4341(r4)
    3544:	43 52       	.word	0x5243;	????	Illegal as 2-op instr
    3546:	31 20       	jnz	$+100    	;abs 0x35aa
    3548:	28 30       	jn	$+82     	;abs 0x359a
    354a:	78 30       	jn	$+242    	;abs 0x363c
    354c:	30 30       	jn	$+98     	;abs 0x35ae
    354e:	32 29       	jnc	$+614    	;abs 0x37b4
    3550:	00 01       	.word	0x0100;	????	
    3552:	a4 05       	.word	0x05a4;	????	
    3554:	54 41 31 49 	mov.b	18737(r1),r4	;0x4931(r1)
    3558:	56 5f 54 41 	add.b	16724(r15),r6	;0x4154(r15)
    355c:	43 43       	clr.b	#0		;r3 As==00
    355e:	52 32       	jn	$-858    	;abs 0x3204
    3560:	20 28       	jnc	$+66     	;abs 0x35a2
    3562:	30 78       	subc	@r8+,	r0	
    3564:	30 30       	jn	$+98     	;abs 0x35c6
    3566:	30 34       	jge	$+98     	;abs 0x35c8
    3568:	29 00       	.word	0x0029;	????	
    356a:	01 a5       	dadd	r5,	r1	
    356c:	05 54       	add	r4,	r5	
    356e:	41 31       	jn	$+644    	;abs 0x37f2
    3570:	49 56       	add.b	r6,	r9	
    3572:	5f 54 41 49 	add.b	18753(r4),r15	;0x4941(r4)
    3576:	46 47       	mov.b	r7,	r6	
    3578:	20 28       	jnc	$+66     	;abs 0x35ba
    357a:	30 78       	subc	@r8+,	r0	
    357c:	30 30       	jn	$+98     	;abs 0x35de
    357e:	30 41       	ret			
    3580:	29 00       	.word	0x0029;	????	
    3582:	01 aa       	dadd	r10,	r1	
    3584:	05 5f       	add	r15,	r5	
    3586:	5f 4d 53 50 	mov.b	20563(r13),r15	;0x5053(r13)
    358a:	34 33       	jn	$-406    	;abs 0x33f4
    358c:	30 5f       	add	@r15+,	r0	
    358e:	48 41       	mov.b	r1,	r8	
    3590:	53 5f       	.word	0x5f53;	????	Illegal as 2-op instr
    3592:	55 53       	inc.b	r5		
    3594:	43 49       	.word	0x4943;	????	Illegal as 2-op instr
    3596:	5f 5f 20 00 	add.b	32(r15),r15	;0x0020(r15)
    359a:	01 ac       	dadd	r12,	r1	
    359c:	05 55       	rla	r5		
    359e:	43 41       	.word	0x4143;	????	Illegal as 2-op instr
    35a0:	30 43       	br	#-1		;r3 As==11
    35a2:	54 4c 30 5f 	mov.b	24368(r12),r4	;0x5f30(r12)
    35a6:	20 30       	jn	$+66     	;abs 0x35e8
    35a8:	78 30       	jn	$+242    	;abs 0x369a
    35aa:	30 36       	jge	$-926    	;abs 0x320c
    35ac:	30 00       	.word	0x0030;	????	
    35ae:	01 ae       	dadd	r14,	r1	
    35b0:	05 55       	rla	r5		
    35b2:	43 41       	.word	0x4143;	????	Illegal as 2-op instr
    35b4:	30 43       	br	#-1		;r3 As==11
    35b6:	54 4c 31 5f 	mov.b	24369(r12),r4	;0x5f31(r12)
    35ba:	20 30       	jn	$+66     	;abs 0x35fc
    35bc:	78 30       	jn	$+242    	;abs 0x36ae
    35be:	30 36       	jge	$-926    	;abs 0x3220
    35c0:	31 00       	.word	0x0031;	????	
    35c2:	01 b0       	bit	r0,	r1	
    35c4:	05 55       	rla	r5		
    35c6:	43 41       	.word	0x4143;	????	Illegal as 2-op instr
    35c8:	30 42       	br	#8		;r2 As==11
    35ca:	52 30       	jn	$+166    	;abs 0x3670
    35cc:	5f 20       	jnz	$+192    	;abs 0x368c
    35ce:	30 78       	subc	@r8+,	r0	
    35d0:	30 30       	jn	$+98     	;abs 0x3632
    35d2:	36 32       	jn	$-914    	;abs 0x3240
    35d4:	00 01       	.word	0x0100;	????	
    35d6:	b2 05       	.word	0x05b2;	????	
    35d8:	55 43       	mov.b	#1,	r5	;r3 As==01
    35da:	41 30       	jn	$+132    	;abs 0x365e
    35dc:	42 52       	rla.b	r2		
    35de:	31 5f       	add	@r15+,	r1	
    35e0:	20 30       	jn	$+66     	;abs 0x3622
    35e2:	78 30       	jn	$+242    	;abs 0x36d4
    35e4:	30 36       	jge	$-926    	;abs 0x3246
    35e6:	33 00       	.word	0x0033;	????	
    35e8:	01 b4       	bit	r4,	r1	
    35ea:	05 55       	rla	r5		
    35ec:	43 41       	.word	0x4143;	????	Illegal as 2-op instr
    35ee:	30 4d       	br	@r13+		
    35f0:	43 54       	.word	0x5443;	????	Illegal as 2-op instr
    35f2:	4c 5f       	add.b	r15,	r12	
    35f4:	20 30       	jn	$+66     	;abs 0x3636
    35f6:	78 30       	jn	$+242    	;abs 0x36e8
    35f8:	30 36       	jge	$-926    	;abs 0x325a
    35fa:	34 00       	.word	0x0034;	????	
    35fc:	01 b6       	bit	r6,	r1	
    35fe:	05 55       	rla	r5		
    3600:	43 41       	.word	0x4143;	????	Illegal as 2-op instr
    3602:	30 53       	add	#-1,	r0	;r3 As==11
    3604:	54 41 54 5f 	mov.b	24404(r1),r4	;0x5f54(r1)
    3608:	20 30       	jn	$+66     	;abs 0x364a
    360a:	78 30       	jn	$+242    	;abs 0x36fc
    360c:	30 36       	jge	$-926    	;abs 0x326e
    360e:	35 00       	.word	0x0035;	????	
    3610:	01 b8       	bit	r8,	r1	
    3612:	05 55       	rla	r5		
    3614:	43 41       	.word	0x4143;	????	Illegal as 2-op instr
    3616:	30 52       	add	#8,	r0	;r2 As==11
    3618:	58 42 55 46 	mov.b	&0x4655,r8	
    361c:	5f 20       	jnz	$+192    	;abs 0x36dc
    361e:	30 78       	subc	@r8+,	r0	
    3620:	30 30       	jn	$+98     	;abs 0x3682
    3622:	36 36       	jge	$-914    	;abs 0x3290
    3624:	00 01       	.word	0x0100;	????	
    3626:	ba 05       	.word	0x05ba;	????	
    3628:	55 43       	mov.b	#1,	r5	;r3 As==01
    362a:	41 30       	jn	$+132    	;abs 0x36ae
    362c:	54 58 42 55 	add.b	21826(r8),r4	;0x5542(r8)
    3630:	46 5f       	add.b	r15,	r6	
    3632:	20 30       	jn	$+66     	;abs 0x3674
    3634:	78 30       	jn	$+242    	;abs 0x3726
    3636:	30 36       	jge	$-926    	;abs 0x3298
    3638:	37 00       	.word	0x0037;	????	
    363a:	01 bc       	bit	r12,	r1	
    363c:	05 55       	rla	r5		
    363e:	43 41       	.word	0x4143;	????	Illegal as 2-op instr
    3640:	30 41       	ret			
    3642:	42 43       	clr.b	r2		
    3644:	54 4c 5f 20 	mov.b	8287(r12),r4	;0x205f(r12)
    3648:	30 78       	subc	@r8+,	r0	
    364a:	30 30       	jn	$+98     	;abs 0x36ac
    364c:	35 44       	mov	@r4+,	r5	
    364e:	00 01       	.word	0x0100;	????	
    3650:	be 05       	.word	0x05be;	????	
    3652:	55 43       	mov.b	#1,	r5	;r3 As==01
    3654:	41 30       	jn	$+132    	;abs 0x36d8
    3656:	49 52       	add.b	r2,	r9	
    3658:	54 43       	mov.b	#1,	r4	;r3 As==01
    365a:	54 4c 5f 20 	mov.b	8287(r12),r4	;0x205f(r12)
    365e:	30 78       	subc	@r8+,	r0	
    3660:	30 30       	jn	$+98     	;abs 0x36c2
    3662:	35 45       	mov	@r5+,	r5	
    3664:	00 01       	.word	0x0100;	????	
    3666:	c0 05       	.word	0x05c0;	????	
    3668:	55 43       	mov.b	#1,	r5	;r3 As==01
    366a:	41 30       	jn	$+132    	;abs 0x36ee
    366c:	49 52       	add.b	r2,	r9	
    366e:	52 43       	mov.b	#1,	r2	;r3 As==01
    3670:	54 4c 5f 20 	mov.b	8287(r12),r4	;0x205f(r12)
    3674:	30 78       	subc	@r8+,	r0	
    3676:	30 30       	jn	$+98     	;abs 0x36d8
    3678:	35 46       	mov	@r6+,	r5	
    367a:	00 01       	.word	0x0100;	????	
    367c:	c5 05       	.word	0x05c5;	????	
    367e:	55 43       	mov.b	#1,	r5	;r3 As==01
    3680:	42 30       	jn	$+134    	;abs 0x3706
    3682:	43 54       	.word	0x5443;	????	Illegal as 2-op instr
    3684:	4c 30       	jn	$+154    	;abs 0x371e
    3686:	5f 20       	jnz	$+192    	;abs 0x3746
    3688:	30 78       	subc	@r8+,	r0	
    368a:	30 30       	jn	$+98     	;abs 0x36ec
    368c:	36 38       	jl	$+110    	;abs 0x36fa
    368e:	00 01       	.word	0x0100;	????	
    3690:	c7 05       	.word	0x05c7;	????	
    3692:	55 43       	mov.b	#1,	r5	;r3 As==01
    3694:	42 30       	jn	$+134    	;abs 0x371a
    3696:	43 54       	.word	0x5443;	????	Illegal as 2-op instr
    3698:	4c 31       	jn	$+666    	;abs 0x3932
    369a:	5f 20       	jnz	$+192    	;abs 0x375a
    369c:	30 78       	subc	@r8+,	r0	
    369e:	30 30       	jn	$+98     	;abs 0x3700
    36a0:	36 39       	jl	$+622    	;abs 0x390e
    36a2:	00 01       	.word	0x0100;	????	
    36a4:	c9 05       	.word	0x05c9;	????	
    36a6:	55 43       	mov.b	#1,	r5	;r3 As==01
    36a8:	42 30       	jn	$+134    	;abs 0x372e
    36aa:	42 52       	rla.b	r2		
    36ac:	30 5f       	add	@r15+,	r0	
    36ae:	20 30       	jn	$+66     	;abs 0x36f0
    36b0:	78 30       	jn	$+242    	;abs 0x37a2
    36b2:	30 36       	jge	$-926    	;abs 0x3314
    36b4:	41 00       	.word	0x0041;	????	
    36b6:	01 cb       	bic	r11,	r1	
    36b8:	05 55       	rla	r5		
    36ba:	43 42       	.word	0x4243;	????	Illegal as 2-op instr
    36bc:	30 42       	br	#8		;r2 As==11
    36be:	52 31       	jn	$+678    	;abs 0x3964
    36c0:	5f 20       	jnz	$+192    	;abs 0x3780
    36c2:	30 78       	subc	@r8+,	r0	
    36c4:	30 30       	jn	$+98     	;abs 0x3726
    36c6:	36 42       	mov	#8,	r6	;r2 As==11
    36c8:	00 01       	.word	0x0100;	????	
    36ca:	cd 05       	.word	0x05cd;	????	
    36cc:	55 43       	mov.b	#1,	r5	;r3 As==01
    36ce:	42 30       	jn	$+134    	;abs 0x3754
    36d0:	49 32       	jn	$-876    	;abs 0x3364
    36d2:	43 49       	.word	0x4943;	????	Illegal as 2-op instr
    36d4:	45 5f       	add.b	r15,	r5	
    36d6:	20 30       	jn	$+66     	;abs 0x3718
    36d8:	78 30       	jn	$+242    	;abs 0x37ca
    36da:	30 36       	jge	$-926    	;abs 0x333c
    36dc:	43 00       	.word	0x0043;	????	
    36de:	01 cf       	bic	r15,	r1	
    36e0:	05 55       	rla	r5		
    36e2:	43 42       	.word	0x4243;	????	Illegal as 2-op instr
    36e4:	30 53       	add	#-1,	r0	;r3 As==11
    36e6:	54 41 54 5f 	mov.b	24404(r1),r4	;0x5f54(r1)
    36ea:	20 30       	jn	$+66     	;abs 0x372c
    36ec:	78 30       	jn	$+242    	;abs 0x37de
    36ee:	30 36       	jge	$-926    	;abs 0x3350
    36f0:	44 00       	.word	0x0044;	????	
    36f2:	01 d1       	bis	r1,	r1	
    36f4:	05 55       	rla	r5		
    36f6:	43 42       	.word	0x4243;	????	Illegal as 2-op instr
    36f8:	30 52       	add	#8,	r0	;r2 As==11
    36fa:	58 42 55 46 	mov.b	&0x4655,r8	
    36fe:	5f 20       	jnz	$+192    	;abs 0x37be
    3700:	30 78       	subc	@r8+,	r0	
    3702:	30 30       	jn	$+98     	;abs 0x3764
    3704:	36 45       	mov	@r5+,	r6	
    3706:	00 01       	.word	0x0100;	????	
    3708:	d3 05       	.word	0x05d3;	????	
    370a:	55 43       	mov.b	#1,	r5	;r3 As==01
    370c:	42 30       	jn	$+134    	;abs 0x3792
    370e:	54 58 42 55 	add.b	21826(r8),r4	;0x5542(r8)
    3712:	46 5f       	add.b	r15,	r6	
    3714:	20 30       	jn	$+66     	;abs 0x3756
    3716:	78 30       	jn	$+242    	;abs 0x3808
    3718:	30 36       	jge	$-926    	;abs 0x337a
    371a:	46 00       	.word	0x0046;	????	
    371c:	01 d5       	bis	r5,	r1	
    371e:	05 55       	rla	r5		
    3720:	43 42       	.word	0x4243;	????	Illegal as 2-op instr
    3722:	30 49       	br	@r9+		
    3724:	32 43       	mov	#-1,	r2	;r3 As==11
    3726:	4f 41       	mov.b	r1,	r15	
    3728:	5f 20       	jnz	$+192    	;abs 0x37e8
    372a:	30 78       	subc	@r8+,	r0	
    372c:	30 31       	jn	$+610    	;abs 0x398e
    372e:	31 38       	jl	$+100    	;abs 0x3792
    3730:	00 01       	.word	0x0100;	????	
    3732:	d7 05       	.word	0x05d7;	????	
    3734:	55 43       	mov.b	#1,	r5	;r3 As==01
    3736:	42 30       	jn	$+134    	;abs 0x37bc
    3738:	49 32       	jn	$-876    	;abs 0x33cc
    373a:	43 53       	.word	0x5343;	????	Illegal as emulation instr
    373c:	41 5f       	add.b	r15,	r1	
    373e:	20 30       	jn	$+66     	;abs 0x3780
    3740:	78 30       	jn	$+242    	;abs 0x3832
    3742:	31 31       	jn	$+612    	;abs 0x39a6
    3744:	41 00       	.word	0x0041;	????	
    3746:	01 db       	bis	r11,	r1	
    3748:	05 55       	rla	r5		
    374a:	43 50       	.word	0x5043;	????	Illegal as 2-op instr
    374c:	45 4e       	mov.b	r14,	r5	
    374e:	20 28       	jnc	$+66     	;abs 0x3790
    3750:	30 78       	subc	@r8+,	r0	
    3752:	38 30       	jn	$+114    	;abs 0x37c4
    3754:	29 00       	.word	0x0029;	????	
    3756:	01 dc       	bis	r12,	r1	
    3758:	05 55       	rla	r5		
    375a:	43 50       	.word	0x5043;	????	Illegal as 2-op instr
    375c:	41 52       	add.b	r2,	r1	
    375e:	20 28       	jnc	$+66     	;abs 0x37a0
    3760:	30 78       	subc	@r8+,	r0	
    3762:	34 30       	jn	$+106    	;abs 0x37cc
    3764:	29 00       	.word	0x0029;	????	
    3766:	01 dd       	bis	r13,	r1	
    3768:	05 55       	rla	r5		
    376a:	43 4d       	.word	0x4d43;	????	Illegal as 2-op instr
    376c:	53 42       	.word	0x4253;	????	Illegal as 2-op instr
    376e:	20 28       	jnc	$+66     	;abs 0x37b0
    3770:	30 78       	subc	@r8+,	r0	
    3772:	32 30       	jn	$+102    	;abs 0x37d8
    3774:	29 00       	.word	0x0029;	????	
    3776:	01 de       	bis	r14,	r1	
    3778:	05 55       	rla	r5		
    377a:	43 37       	jge	$-376    	;abs 0x3602
    377c:	42 49       	mov.b	r9,	r2	
    377e:	54 20       	jnz	$+170    	;abs 0x3828
    3780:	28 30       	jn	$+82     	;abs 0x37d2
    3782:	78 31       	jn	$+754    	;abs 0x3a74
    3784:	30 29       	jnc	$+610    	;abs 0x39e6
    3786:	00 01       	.word	0x0100;	????	
    3788:	df 05       	.word	0x05df;	????	
    378a:	55 43       	mov.b	#1,	r5	;r3 As==01
    378c:	53 50       	.word	0x5053;	????	Illegal as 2-op instr
    378e:	42 20       	jnz	$+134    	;abs 0x3814
    3790:	28 30       	jn	$+82     	;abs 0x37e2
    3792:	78 30       	jn	$+242    	;abs 0x3884
    3794:	38 29       	jnc	$+626    	;abs 0x3a06
    3796:	00 01       	.word	0x0100;	????	
    3798:	e0 05       	.word	0x05e0;	????	
    379a:	55 43       	mov.b	#1,	r5	;r3 As==01
    379c:	4d 4f       	mov.b	r15,	r13	
    379e:	44 45       	mov.b	r5,	r4	
    37a0:	31 20       	jnz	$+100    	;abs 0x3804
    37a2:	28 30       	jn	$+82     	;abs 0x37f4
    37a4:	78 30       	jn	$+242    	;abs 0x3896
    37a6:	34 29       	jnc	$+618    	;abs 0x3a10
    37a8:	00 01       	.word	0x0100;	????	
    37aa:	e1 05       	.word	0x05e1;	????	
    37ac:	55 43       	mov.b	#1,	r5	;r3 As==01
    37ae:	4d 4f       	mov.b	r15,	r13	
    37b0:	44 45       	mov.b	r5,	r4	
    37b2:	30 20       	jnz	$+98     	;abs 0x3814
    37b4:	28 30       	jn	$+82     	;abs 0x3806
    37b6:	78 30       	jn	$+242    	;abs 0x38a8
    37b8:	32 29       	jnc	$+614    	;abs 0x3a1e
    37ba:	00 01       	.word	0x0100;	????	
    37bc:	e2 05       	.word	0x05e2;	????	
    37be:	55 43       	mov.b	#1,	r5	;r3 As==01
    37c0:	53 59       	.word	0x5953;	????	Illegal as 2-op instr
    37c2:	4e 43       	clr.b	r14		
    37c4:	20 28       	jnc	$+66     	;abs 0x3806
    37c6:	30 78       	subc	@r8+,	r0	
    37c8:	30 31       	jn	$+610    	;abs 0x3a2a
    37ca:	29 00       	.word	0x0029;	????	
    37cc:	01 e5       	xor	r5,	r1	
    37ce:	05 55       	rla	r5		
    37d0:	43 43       	clr.b	#0		;r3 As==00
    37d2:	4b 50       	add.b	r0,	r11	
    37d4:	48 20       	jnz	$+146    	;abs 0x3866
    37d6:	28 30       	jn	$+82     	;abs 0x3828
    37d8:	78 38       	jl	$+242    	;abs 0x38ca
    37da:	30 29       	jnc	$+610    	;abs 0x3a3c
    37dc:	00 01       	.word	0x0100;	????	
    37de:	e6 05       	.word	0x05e6;	????	
    37e0:	55 43       	mov.b	#1,	r5	;r3 As==01
    37e2:	43 4b       	.word	0x4b43;	????	Illegal as 2-op instr
    37e4:	50 4c 20 28 	br	10272(r12)	;0x2820(r12)
    37e8:	30 78       	subc	@r8+,	r0	
    37ea:	34 30       	jn	$+106    	;abs 0x3854
    37ec:	29 00       	.word	0x0029;	????	
    37ee:	01 e7       	xor	r7,	r1	
    37f0:	05 55       	rla	r5		
    37f2:	43 4d       	.word	0x4d43;	????	Illegal as 2-op instr
    37f4:	53 54       	.word	0x5453;	????	Illegal as 2-op instr
    37f6:	20 28       	jnc	$+66     	;abs 0x3838
    37f8:	30 78       	subc	@r8+,	r0	
    37fa:	30 38       	jl	$+98     	;abs 0x385c
    37fc:	29 00       	.word	0x0029;	????	
    37fe:	01 ea       	xor	r10,	r1	
    3800:	05 55       	rla	r5		
    3802:	43 41       	.word	0x4143;	????	Illegal as 2-op instr
    3804:	31 30       	jn	$+100    	;abs 0x3868
    3806:	20 28       	jnc	$+66     	;abs 0x3848
    3808:	30 78       	subc	@r8+,	r0	
    380a:	38 30       	jn	$+114    	;abs 0x387c
    380c:	29 00       	.word	0x0029;	????	
    380e:	01 eb       	xor	r11,	r1	
    3810:	05 55       	rla	r5		
    3812:	43 53       	.word	0x5343;	????	Illegal as emulation instr
    3814:	4c 41       	mov.b	r1,	r12	
    3816:	31 30       	jn	$+100    	;abs 0x387a
    3818:	20 28       	jnc	$+66     	;abs 0x385a
    381a:	30 78       	subc	@r8+,	r0	
    381c:	34 30       	jn	$+106    	;abs 0x3886
    381e:	29 00       	.word	0x0029;	????	
    3820:	01 ec       	xor	r12,	r1	
    3822:	05 55       	rla	r5		
    3824:	43 4d       	.word	0x4d43;	????	Illegal as 2-op instr
    3826:	4d 20       	jnz	$+156    	;abs 0x38c2
    3828:	28 30       	jn	$+82     	;abs 0x387a
    382a:	78 32       	jn	$-782    	;abs 0x351c
    382c:	30 29       	jnc	$+610    	;abs 0x3a8e
    382e:	00 01       	.word	0x0100;	????	
    3830:	ee 05       	.word	0x05ee;	????	
    3832:	55 43       	mov.b	#1,	r5	;r3 As==01
    3834:	4d 4f       	mov.b	r15,	r13	
    3836:	44 45       	mov.b	r5,	r4	
    3838:	5f 30       	jn	$+192    	;abs 0x38f8
    383a:	20 28       	jnc	$+66     	;abs 0x387c
    383c:	30 78       	subc	@r8+,	r0	
    383e:	30 30       	jn	$+98     	;abs 0x38a0
    3840:	29 00       	.word	0x0029;	????	
    3842:	01 ef       	xor	r15,	r1	
    3844:	05 55       	rla	r5		
    3846:	43 4d       	.word	0x4d43;	????	Illegal as 2-op instr
    3848:	4f 44       	mov.b	r4,	r15	
    384a:	45 5f       	add.b	r15,	r5	
    384c:	31 20       	jnz	$+100    	;abs 0x38b0
    384e:	28 30       	jn	$+82     	;abs 0x38a0
    3850:	78 30       	jn	$+242    	;abs 0x3942
    3852:	32 29       	jnc	$+614    	;abs 0x3ab8
    3854:	00 01       	.word	0x0100;	????	
    3856:	f0 05       	.word	0x05f0;	????	
    3858:	55 43       	mov.b	#1,	r5	;r3 As==01
    385a:	4d 4f       	mov.b	r15,	r13	
    385c:	44 45       	mov.b	r5,	r4	
    385e:	5f 32       	jn	$-832    	;abs 0x351e
    3860:	20 28       	jnc	$+66     	;abs 0x38a2
    3862:	30 78       	subc	@r8+,	r0	
    3864:	30 34       	jge	$+98     	;abs 0x38c6
    3866:	29 00       	.word	0x0029;	????	
    3868:	01 f1       	and	r1,	r1	
    386a:	05 55       	rla	r5		
    386c:	43 4d       	.word	0x4d43;	????	Illegal as 2-op instr
    386e:	4f 44       	mov.b	r4,	r15	
    3870:	45 5f       	add.b	r15,	r5	
    3872:	33 20       	jnz	$+104    	;abs 0x38da
    3874:	28 30       	jn	$+82     	;abs 0x38c6
    3876:	78 30       	jn	$+242    	;abs 0x3968
    3878:	36 29       	jnc	$+622    	;abs 0x3ae6
    387a:	00 01       	.word	0x0100;	????	
    387c:	f4 05       	.word	0x05f4;	????	
    387e:	55 43       	mov.b	#1,	r5	;r3 As==01
    3880:	53 53       	inc.b	#0		;r3 As==00
    3882:	45 4c       	mov.b	r12,	r5	
    3884:	31 20       	jnz	$+100    	;abs 0x38e8
    3886:	28 30       	jn	$+82     	;abs 0x38d8
    3888:	78 38       	jl	$+242    	;abs 0x397a
    388a:	30 29       	jnc	$+610    	;abs 0x3aec
    388c:	00 01       	.word	0x0100;	????	
    388e:	f5 05       	.word	0x05f5;	????	
    3890:	55 43       	mov.b	#1,	r5	;r3 As==01
    3892:	53 53       	inc.b	#0		;r3 As==00
    3894:	45 4c       	mov.b	r12,	r5	
    3896:	30 20       	jnz	$+98     	;abs 0x38f8
    3898:	28 30       	jn	$+82     	;abs 0x38ea
    389a:	78 34       	jge	$+242    	;abs 0x398c
    389c:	30 29       	jnc	$+610    	;abs 0x3afe
    389e:	00 01       	.word	0x0100;	????	
    38a0:	f6 05       	.word	0x05f6;	????	
    38a2:	55 43       	mov.b	#1,	r5	;r3 As==01
    38a4:	52 58 45 49 	add.b	18757(r8),r2	;0x4945(r8)
    38a8:	45 20       	jnz	$+140    	;abs 0x3934
    38aa:	28 30       	jn	$+82     	;abs 0x38fc
    38ac:	78 32       	jn	$-782    	;abs 0x359e
    38ae:	30 29       	jnc	$+610    	;abs 0x3b10
    38b0:	00 01       	.word	0x0100;	????	
    38b2:	f7 05       	.word	0x05f7;	????	
    38b4:	55 43       	mov.b	#1,	r5	;r3 As==01
    38b6:	42 52       	rla.b	r2		
    38b8:	4b 49       	mov.b	r9,	r11	
    38ba:	45 20       	jnz	$+140    	;abs 0x3946
    38bc:	28 30       	jn	$+82     	;abs 0x390e
    38be:	78 31       	jn	$+754    	;abs 0x3bb0
    38c0:	30 29       	jnc	$+610    	;abs 0x3b22
    38c2:	00 01       	.word	0x0100;	????	
    38c4:	f8 05       	.word	0x05f8;	????	
    38c6:	55 43       	mov.b	#1,	r5	;r3 As==01
    38c8:	44 4f       	mov.b	r15,	r4	
    38ca:	52 4d 20 28 	mov.b	10272(r13),r2	;0x2820(r13)
    38ce:	30 78       	subc	@r8+,	r0	
    38d0:	30 38       	jl	$+98     	;abs 0x3932
    38d2:	29 00       	.word	0x0029;	????	
    38d4:	01 f9       	and	r9,	r1	
    38d6:	05 55       	rla	r5		
    38d8:	43 54       	.word	0x5443;	????	Illegal as 2-op instr
    38da:	58 41 44 44 	mov.b	17476(r1),r8	;0x4444(r1)
    38de:	52 20       	jnz	$+166    	;abs 0x3984
    38e0:	28 30       	jn	$+82     	;abs 0x3932
    38e2:	78 30       	jn	$+242    	;abs 0x39d4
    38e4:	34 29       	jnc	$+618    	;abs 0x3b4e
    38e6:	00 01       	.word	0x0100;	????	
    38e8:	fa 05       	.word	0x05fa;	????	
    38ea:	55 43       	mov.b	#1,	r5	;r3 As==01
    38ec:	54 58 42 52 	add.b	21058(r8),r4	;0x5242(r8)
    38f0:	4b 20       	jnz	$+152    	;abs 0x3988
    38f2:	28 30       	jn	$+82     	;abs 0x3944
    38f4:	78 30       	jn	$+242    	;abs 0x39e6
    38f6:	32 29       	jnc	$+614    	;abs 0x3b5c
    38f8:	00 01       	.word	0x0100;	????	
    38fa:	fb 05       	.word	0x05fb;	????	
    38fc:	55 43       	mov.b	#1,	r5	;r3 As==01
    38fe:	53 57       	.word	0x5753;	????	Illegal as 2-op instr
    3900:	52 53       	inc.b	r2		
    3902:	54 20       	jnz	$+170    	;abs 0x39ac
    3904:	28 30       	jn	$+82     	;abs 0x3956
    3906:	78 30       	jn	$+242    	;abs 0x39f8
    3908:	31 29       	jnc	$+612    	;abs 0x3b6c
    390a:	00 01       	.word	0x0100;	????	
    390c:	86 06       	.word	0x0686;	????	
    390e:	55 43       	mov.b	#1,	r5	;r3 As==01
    3910:	54 52 20 28 	add.b	&0x2820,r4	
    3914:	30 78       	subc	@r8+,	r0	
    3916:	31 30       	jn	$+100    	;abs 0x397a
    3918:	29 00       	.word	0x0029;	????	
    391a:	01 87       	sub	r7,	r1	
    391c:	06 55       	add	r5,	r6	
    391e:	43 54       	.word	0x5443;	????	Illegal as 2-op instr
    3920:	58 4e 41 43 	mov.b	17217(r14),r8	;0x4341(r14)
    3924:	4b 20       	jnz	$+152    	;abs 0x39bc
    3926:	28 30       	jn	$+82     	;abs 0x3978
    3928:	78 30       	jn	$+242    	;abs 0x3a1a
    392a:	38 29       	jnc	$+626    	;abs 0x3b9c
    392c:	00 01       	.word	0x0100;	????	
    392e:	88 06       	.word	0x0688;	????	
    3930:	55 43       	mov.b	#1,	r5	;r3 As==01
    3932:	54 58 53 54 	add.b	21587(r8),r4	;0x5453(r8)
    3936:	50 20       	jnz	$+162    	;abs 0x39d8
    3938:	28 30       	jn	$+82     	;abs 0x398a
    393a:	78 30       	jn	$+242    	;abs 0x3a2c
    393c:	34 29       	jnc	$+618    	;abs 0x3ba6
    393e:	00 01       	.word	0x0100;	????	
    3940:	89 06       	.word	0x0689;	????	
    3942:	55 43       	mov.b	#1,	r5	;r3 As==01
    3944:	54 58 53 54 	add.b	21587(r8),r4	;0x5453(r8)
    3948:	54 20       	jnz	$+170    	;abs 0x39f2
    394a:	28 30       	jn	$+82     	;abs 0x399c
    394c:	78 30       	jn	$+242    	;abs 0x3a3e
    394e:	32 29       	jnc	$+614    	;abs 0x3bb4
    3950:	00 01       	.word	0x0100;	????	
    3952:	8a 06       	.word	0x068a;	????	
    3954:	55 43       	mov.b	#1,	r5	;r3 As==01
    3956:	53 53       	inc.b	#0		;r3 As==00
    3958:	45 4c       	mov.b	r12,	r5	
    395a:	5f 30       	jn	$+192    	;abs 0x3a1a
    395c:	20 28       	jnc	$+66     	;abs 0x399e
    395e:	30 78       	subc	@r8+,	r0	
    3960:	30 30       	jn	$+98     	;abs 0x39c2
    3962:	29 00       	.word	0x0029;	????	
    3964:	01 8b       	sub	r11,	r1	
    3966:	06 55       	add	r5,	r6	
    3968:	43 53       	.word	0x5343;	????	Illegal as emulation instr
    396a:	53 45       	.word	0x4553;	????	Illegal as 2-op instr
    396c:	4c 5f       	add.b	r15,	r12	
    396e:	31 20       	jnz	$+100    	;abs 0x39d2
    3970:	28 30       	jn	$+82     	;abs 0x39c2
    3972:	78 34       	jge	$+242    	;abs 0x3a64
    3974:	30 29       	jnc	$+610    	;abs 0x3bd6
    3976:	00 01       	.word	0x0100;	????	
    3978:	8c 06       	.word	0x068c;	????	
    397a:	55 43       	mov.b	#1,	r5	;r3 As==01
    397c:	53 53       	inc.b	#0		;r3 As==00
    397e:	45 4c       	mov.b	r12,	r5	
    3980:	5f 32       	jn	$-832    	;abs 0x3640
    3982:	20 28       	jnc	$+66     	;abs 0x39c4
    3984:	30 78       	subc	@r8+,	r0	
    3986:	38 30       	jn	$+114    	;abs 0x39f8
    3988:	29 00       	.word	0x0029;	????	
    398a:	01 8d       	sub	r13,	r1	
    398c:	06 55       	add	r5,	r6	
    398e:	43 53       	.word	0x5343;	????	Illegal as emulation instr
    3990:	53 45       	.word	0x4553;	????	Illegal as 2-op instr
    3992:	4c 5f       	add.b	r15,	r12	
    3994:	33 20       	jnz	$+104    	;abs 0x39fc
    3996:	28 30       	jn	$+82     	;abs 0x39e8
    3998:	78 43       	mov.b	#-1,	r8	;r3 As==11
    399a:	30 29       	jnc	$+610    	;abs 0x3bfc
    399c:	00 01       	.word	0x0100;	????	
    399e:	8f 06       	.word	0x068f;	????	
    39a0:	55 43       	mov.b	#1,	r5	;r3 As==01
    39a2:	42 52       	rla.b	r2		
    39a4:	46 33       	jn	$-370    	;abs 0x3832
    39a6:	20 28       	jnc	$+66     	;abs 0x39e8
    39a8:	30 78       	subc	@r8+,	r0	
    39aa:	38 30       	jn	$+114    	;abs 0x3a1c
    39ac:	29 00       	.word	0x0029;	????	
    39ae:	01 90       	cmp	r0,	r1	
    39b0:	06 55       	add	r5,	r6	
    39b2:	43 42       	.word	0x4243;	????	Illegal as 2-op instr
    39b4:	52 46 32 20 	mov.b	8242(r6),r2	;0x2032(r6)
    39b8:	28 30       	jn	$+82     	;abs 0x3a0a
    39ba:	78 34       	jge	$+242    	;abs 0x3aac
    39bc:	30 29       	jnc	$+610    	;abs 0x3c1e
    39be:	00 01       	.word	0x0100;	????	
    39c0:	91 06       	.word	0x0691;	????	
    39c2:	55 43       	mov.b	#1,	r5	;r3 As==01
    39c4:	42 52       	rla.b	r2		
    39c6:	46 31       	jn	$+654    	;abs 0x3c54
    39c8:	20 28       	jnc	$+66     	;abs 0x3a0a
    39ca:	30 78       	subc	@r8+,	r0	
    39cc:	32 30       	jn	$+102    	;abs 0x3a32
    39ce:	29 00       	.word	0x0029;	????	
    39d0:	01 92       	cmp	r2,	r1	
    39d2:	06 55       	add	r5,	r6	
    39d4:	43 42       	.word	0x4243;	????	Illegal as 2-op instr
    39d6:	52 46 30 20 	mov.b	8240(r6),r2	;0x2030(r6)
    39da:	28 30       	jn	$+82     	;abs 0x3a2c
    39dc:	78 31       	jn	$+754    	;abs 0x3cce
    39de:	30 29       	jnc	$+610    	;abs 0x3c40
    39e0:	00 01       	.word	0x0100;	????	
    39e2:	93 06       	.word	0x0693;	????	
    39e4:	55 43       	mov.b	#1,	r5	;r3 As==01
    39e6:	42 52       	rla.b	r2		
    39e8:	53 32       	jn	$-856    	;abs 0x3690
    39ea:	20 28       	jnc	$+66     	;abs 0x3a2c
    39ec:	30 78       	subc	@r8+,	r0	
    39ee:	30 38       	jl	$+98     	;abs 0x3a50
    39f0:	29 00       	.word	0x0029;	????	
    39f2:	01 94       	cmp	r4,	r1	
    39f4:	06 55       	add	r5,	r6	
    39f6:	43 42       	.word	0x4243;	????	Illegal as 2-op instr
    39f8:	52 53       	inc.b	r2		
    39fa:	31 20       	jnz	$+100    	;abs 0x3a5e
    39fc:	28 30       	jn	$+82     	;abs 0x3a4e
    39fe:	78 30       	jn	$+242    	;abs 0x3af0
    3a00:	34 29       	jnc	$+618    	;abs 0x3c6a
    3a02:	00 01       	.word	0x0100;	????	
    3a04:	95 06       	.word	0x0695;	????	
    3a06:	55 43       	mov.b	#1,	r5	;r3 As==01
    3a08:	42 52       	rla.b	r2		
    3a0a:	53 30       	jn	$+168    	;abs 0x3ab2
    3a0c:	20 28       	jnc	$+66     	;abs 0x3a4e
    3a0e:	30 78       	subc	@r8+,	r0	
    3a10:	30 32       	jn	$-926    	;abs 0x3672
    3a12:	29 00       	.word	0x0029;	????	
    3a14:	01 96       	cmp	r6,	r1	
    3a16:	06 55       	add	r5,	r6	
    3a18:	43 4f       	.word	0x4f43;	????	Illegal as 2-op instr
    3a1a:	53 31       	jn	$+680    	;abs 0x3cc2
    3a1c:	36 20       	jnz	$+110    	;abs 0x3a8a
    3a1e:	28 30       	jn	$+82     	;abs 0x3a70
    3a20:	78 30       	jn	$+242    	;abs 0x3b12
    3a22:	31 29       	jnc	$+612    	;abs 0x3c86
    3a24:	00 01       	.word	0x0100;	????	
    3a26:	98 06       	.word	0x0698;	????	
    3a28:	55 43       	mov.b	#1,	r5	;r3 As==01
    3a2a:	42 52       	rla.b	r2		
    3a2c:	46 5f       	add.b	r15,	r6	
    3a2e:	30 20       	jnz	$+98     	;abs 0x3a90
    3a30:	28 30       	jn	$+82     	;abs 0x3a82
    3a32:	78 30       	jn	$+242    	;abs 0x3b24
    3a34:	30 29       	jnc	$+610    	;abs 0x3c96
    3a36:	00 01       	.word	0x0100;	????	
    3a38:	99 06       	.word	0x0699;	????	
    3a3a:	55 43       	mov.b	#1,	r5	;r3 As==01
    3a3c:	42 52       	rla.b	r2		
    3a3e:	46 5f       	add.b	r15,	r6	
    3a40:	31 20       	jnz	$+100    	;abs 0x3aa4
    3a42:	28 30       	jn	$+82     	;abs 0x3a94
    3a44:	78 31       	jn	$+754    	;abs 0x3d36
    3a46:	30 29       	jnc	$+610    	;abs 0x3ca8
    3a48:	00 01       	.word	0x0100;	????	
    3a4a:	9a 06       	.word	0x069a;	????	
    3a4c:	55 43       	mov.b	#1,	r5	;r3 As==01
    3a4e:	42 52       	rla.b	r2		
    3a50:	46 5f       	add.b	r15,	r6	
    3a52:	32 20       	jnz	$+102    	;abs 0x3ab8
    3a54:	28 30       	jn	$+82     	;abs 0x3aa6
    3a56:	78 32       	jn	$-782    	;abs 0x3748
    3a58:	30 29       	jnc	$+610    	;abs 0x3cba
    3a5a:	00 01       	.word	0x0100;	????	
    3a5c:	9b 06       	.word	0x069b;	????	
    3a5e:	55 43       	mov.b	#1,	r5	;r3 As==01
    3a60:	42 52       	rla.b	r2		
    3a62:	46 5f       	add.b	r15,	r6	
    3a64:	33 20       	jnz	$+104    	;abs 0x3acc
    3a66:	28 30       	jn	$+82     	;abs 0x3ab8
    3a68:	78 33       	jn	$-270    	;abs 0x395a
    3a6a:	30 29       	jnc	$+610    	;abs 0x3ccc
    3a6c:	00 01       	.word	0x0100;	????	
    3a6e:	9c 06       	.word	0x069c;	????	
    3a70:	55 43       	mov.b	#1,	r5	;r3 As==01
    3a72:	42 52       	rla.b	r2		
    3a74:	46 5f       	add.b	r15,	r6	
    3a76:	34 20       	jnz	$+106    	;abs 0x3ae0
    3a78:	28 30       	jn	$+82     	;abs 0x3aca
    3a7a:	78 34       	jge	$+242    	;abs 0x3b6c
    3a7c:	30 29       	jnc	$+610    	;abs 0x3cde
    3a7e:	00 01       	.word	0x0100;	????	
    3a80:	9d 06       	.word	0x069d;	????	
    3a82:	55 43       	mov.b	#1,	r5	;r3 As==01
    3a84:	42 52       	rla.b	r2		
    3a86:	46 5f       	add.b	r15,	r6	
    3a88:	35 20       	jnz	$+108    	;abs 0x3af4
    3a8a:	28 30       	jn	$+82     	;abs 0x3adc
    3a8c:	78 35       	jge	$+754    	;abs 0x3d7e
    3a8e:	30 29       	jnc	$+610    	;abs 0x3cf0
    3a90:	00 01       	.word	0x0100;	????	
    3a92:	9e 06       	.word	0x069e;	????	
    3a94:	55 43       	mov.b	#1,	r5	;r3 As==01
    3a96:	42 52       	rla.b	r2		
    3a98:	46 5f       	add.b	r15,	r6	
    3a9a:	36 20       	jnz	$+110    	;abs 0x3b08
    3a9c:	28 30       	jn	$+82     	;abs 0x3aee
    3a9e:	78 36       	jge	$-782    	;abs 0x3790
    3aa0:	30 29       	jnc	$+610    	;abs 0x3d02
    3aa2:	00 01       	.word	0x0100;	????	
    3aa4:	9f 06       	.word	0x069f;	????	
    3aa6:	55 43       	mov.b	#1,	r5	;r3 As==01
    3aa8:	42 52       	rla.b	r2		
    3aaa:	46 5f       	add.b	r15,	r6	
    3aac:	37 20       	jnz	$+112    	;abs 0x3b1c
    3aae:	28 30       	jn	$+82     	;abs 0x3b00
    3ab0:	78 37       	jge	$-270    	;abs 0x39a2
    3ab2:	30 29       	jnc	$+610    	;abs 0x3d14
    3ab4:	00 01       	.word	0x0100;	????	
    3ab6:	a0 06       	.word	0x06a0;	????	
    3ab8:	55 43       	mov.b	#1,	r5	;r3 As==01
    3aba:	42 52       	rla.b	r2		
    3abc:	46 5f       	add.b	r15,	r6	
    3abe:	38 20       	jnz	$+114    	;abs 0x3b30
    3ac0:	28 30       	jn	$+82     	;abs 0x3b12
    3ac2:	78 38       	jl	$+242    	;abs 0x3bb4
    3ac4:	30 29       	jnc	$+610    	;abs 0x3d26
    3ac6:	00 01       	.word	0x0100;	????	
    3ac8:	a1 06       	.word	0x06a1;	????	
    3aca:	55 43       	mov.b	#1,	r5	;r3 As==01
    3acc:	42 52       	rla.b	r2		
    3ace:	46 5f       	add.b	r15,	r6	
    3ad0:	39 20       	jnz	$+116    	;abs 0x3b44
    3ad2:	28 30       	jn	$+82     	;abs 0x3b24
    3ad4:	78 39       	jl	$+754    	;abs 0x3dc6
    3ad6:	30 29       	jnc	$+610    	;abs 0x3d38
    3ad8:	00 01       	.word	0x0100;	????	
    3ada:	a2 06       	.word	0x06a2;	????	
    3adc:	55 43       	mov.b	#1,	r5	;r3 As==01
    3ade:	42 52       	rla.b	r2		
    3ae0:	46 5f       	add.b	r15,	r6	
    3ae2:	31 30       	jn	$+100    	;abs 0x3b46
    3ae4:	20 28       	jnc	$+66     	;abs 0x3b26
    3ae6:	30 78       	subc	@r8+,	r0	
    3ae8:	41 30       	jn	$+132    	;abs 0x3b6c
    3aea:	29 00       	.word	0x0029;	????	
    3aec:	01 a3       	dadc	r1		
    3aee:	06 55       	add	r5,	r6	
    3af0:	43 42       	.word	0x4243;	????	Illegal as 2-op instr
    3af2:	52 46 5f 31 	mov.b	12639(r6),r2	;0x315f(r6)
    3af6:	31 20       	jnz	$+100    	;abs 0x3b5a
    3af8:	28 30       	jn	$+82     	;abs 0x3b4a
    3afa:	78 42       	mov.b	#8,	r8	;r2 As==11
    3afc:	30 29       	jnc	$+610    	;abs 0x3d5e
    3afe:	00 01       	.word	0x0100;	????	
    3b00:	a4 06       	.word	0x06a4;	????	
    3b02:	55 43       	mov.b	#1,	r5	;r3 As==01
    3b04:	42 52       	rla.b	r2		
    3b06:	46 5f       	add.b	r15,	r6	
    3b08:	31 32       	jn	$-924    	;abs 0x376c
    3b0a:	20 28       	jnc	$+66     	;abs 0x3b4c
    3b0c:	30 78       	subc	@r8+,	r0	
    3b0e:	43 30       	jn	$+136    	;abs 0x3b96
    3b10:	29 00       	.word	0x0029;	????	
    3b12:	01 a5       	dadd	r5,	r1	
    3b14:	06 55       	add	r5,	r6	
    3b16:	43 42       	.word	0x4243;	????	Illegal as 2-op instr
    3b18:	52 46 5f 31 	mov.b	12639(r6),r2	;0x315f(r6)
    3b1c:	33 20       	jnz	$+104    	;abs 0x3b84
    3b1e:	28 30       	jn	$+82     	;abs 0x3b70
    3b20:	78 44       	mov.b	@r4+,	r8	
    3b22:	30 29       	jnc	$+610    	;abs 0x3d84
    3b24:	00 01       	.word	0x0100;	????	
    3b26:	a6 06       	.word	0x06a6;	????	
    3b28:	55 43       	mov.b	#1,	r5	;r3 As==01
    3b2a:	42 52       	rla.b	r2		
    3b2c:	46 5f       	add.b	r15,	r6	
    3b2e:	31 34       	jge	$+100    	;abs 0x3b92
    3b30:	20 28       	jnc	$+66     	;abs 0x3b72
    3b32:	30 78       	subc	@r8+,	r0	
    3b34:	45 30       	jn	$+140    	;abs 0x3bc0
    3b36:	29 00       	.word	0x0029;	????	
    3b38:	01 a7       	dadd	r7,	r1	
    3b3a:	06 55       	add	r5,	r6	
    3b3c:	43 42       	.word	0x4243;	????	Illegal as 2-op instr
    3b3e:	52 46 5f 31 	mov.b	12639(r6),r2	;0x315f(r6)
    3b42:	35 20       	jnz	$+108    	;abs 0x3bae
    3b44:	28 30       	jn	$+82     	;abs 0x3b96
    3b46:	78 46       	mov.b	@r6+,	r8	
    3b48:	30 29       	jnc	$+610    	;abs 0x3daa
    3b4a:	00 01       	.word	0x0100;	????	
    3b4c:	a9 06       	.word	0x06a9;	????	
    3b4e:	55 43       	mov.b	#1,	r5	;r3 As==01
    3b50:	42 52       	rla.b	r2		
    3b52:	53 5f       	.word	0x5f53;	????	Illegal as 2-op instr
    3b54:	30 20       	jnz	$+98     	;abs 0x3bb6
    3b56:	28 30       	jn	$+82     	;abs 0x3ba8
    3b58:	78 30       	jn	$+242    	;abs 0x3c4a
    3b5a:	30 29       	jnc	$+610    	;abs 0x3dbc
    3b5c:	00 01       	.word	0x0100;	????	
    3b5e:	aa 06       	.word	0x06aa;	????	
    3b60:	55 43       	mov.b	#1,	r5	;r3 As==01
    3b62:	42 52       	rla.b	r2		
    3b64:	53 5f       	.word	0x5f53;	????	Illegal as 2-op instr
    3b66:	31 20       	jnz	$+100    	;abs 0x3bca
    3b68:	28 30       	jn	$+82     	;abs 0x3bba
    3b6a:	78 30       	jn	$+242    	;abs 0x3c5c
    3b6c:	32 29       	jnc	$+614    	;abs 0x3dd2
    3b6e:	00 01       	.word	0x0100;	????	
    3b70:	ab 06       	.word	0x06ab;	????	
    3b72:	55 43       	mov.b	#1,	r5	;r3 As==01
    3b74:	42 52       	rla.b	r2		
    3b76:	53 5f       	.word	0x5f53;	????	Illegal as 2-op instr
    3b78:	32 20       	jnz	$+102    	;abs 0x3bde
    3b7a:	28 30       	jn	$+82     	;abs 0x3bcc
    3b7c:	78 30       	jn	$+242    	;abs 0x3c6e
    3b7e:	34 29       	jnc	$+618    	;abs 0x3de8
    3b80:	00 01       	.word	0x0100;	????	
    3b82:	ac 06       	.word	0x06ac;	????	
    3b84:	55 43       	mov.b	#1,	r5	;r3 As==01
    3b86:	42 52       	rla.b	r2		
    3b88:	53 5f       	.word	0x5f53;	????	Illegal as 2-op instr
    3b8a:	33 20       	jnz	$+104    	;abs 0x3bf2
    3b8c:	28 30       	jn	$+82     	;abs 0x3bde
    3b8e:	78 30       	jn	$+242    	;abs 0x3c80
    3b90:	36 29       	jnc	$+622    	;abs 0x3dfe
    3b92:	00 01       	.word	0x0100;	????	
    3b94:	ad 06       	.word	0x06ad;	????	
    3b96:	55 43       	mov.b	#1,	r5	;r3 As==01
    3b98:	42 52       	rla.b	r2		
    3b9a:	53 5f       	.word	0x5f53;	????	Illegal as 2-op instr
    3b9c:	34 20       	jnz	$+106    	;abs 0x3c06
    3b9e:	28 30       	jn	$+82     	;abs 0x3bf0
    3ba0:	78 30       	jn	$+242    	;abs 0x3c92
    3ba2:	38 29       	jnc	$+626    	;abs 0x3e14
    3ba4:	00 01       	.word	0x0100;	????	
    3ba6:	ae 06       	.word	0x06ae;	????	
    3ba8:	55 43       	mov.b	#1,	r5	;r3 As==01
    3baa:	42 52       	rla.b	r2		
    3bac:	53 5f       	.word	0x5f53;	????	Illegal as 2-op instr
    3bae:	35 20       	jnz	$+108    	;abs 0x3c1a
    3bb0:	28 30       	jn	$+82     	;abs 0x3c02
    3bb2:	78 30       	jn	$+242    	;abs 0x3ca4
    3bb4:	41 29       	jnc	$+644    	;abs 0x3e38
    3bb6:	00 01       	.word	0x0100;	????	
    3bb8:	af 06       	.word	0x06af;	????	
    3bba:	55 43       	mov.b	#1,	r5	;r3 As==01
    3bbc:	42 52       	rla.b	r2		
    3bbe:	53 5f       	.word	0x5f53;	????	Illegal as 2-op instr
    3bc0:	36 20       	jnz	$+110    	;abs 0x3c2e
    3bc2:	28 30       	jn	$+82     	;abs 0x3c14
    3bc4:	78 30       	jn	$+242    	;abs 0x3cb6
    3bc6:	43 29       	jnc	$+648    	;abs 0x3e4e
    3bc8:	00 01       	.word	0x0100;	????	
    3bca:	b0 06       	.word	0x06b0;	????	
    3bcc:	55 43       	mov.b	#1,	r5	;r3 As==01
    3bce:	42 52       	rla.b	r2		
    3bd0:	53 5f       	.word	0x5f53;	????	Illegal as 2-op instr
    3bd2:	37 20       	jnz	$+112    	;abs 0x3c42
    3bd4:	28 30       	jn	$+82     	;abs 0x3c26
    3bd6:	78 30       	jn	$+242    	;abs 0x3cc8
    3bd8:	45 29       	jnc	$+652    	;abs 0x3e64
    3bda:	00 01       	.word	0x0100;	????	
    3bdc:	b2 06       	.word	0x06b2;	????	
    3bde:	55 43       	mov.b	#1,	r5	;r3 As==01
    3be0:	4c 49       	mov.b	r9,	r12	
    3be2:	53 54       	.word	0x5453;	????	Illegal as 2-op instr
    3be4:	45 4e       	mov.b	r14,	r5	
    3be6:	20 28       	jnc	$+66     	;abs 0x3c28
    3be8:	30 78       	subc	@r8+,	r0	
    3bea:	38 30       	jn	$+114    	;abs 0x3c5c
    3bec:	29 00       	.word	0x0029;	????	
    3bee:	01 b3       	bit	#0,	r1	;r3 As==00
    3bf0:	06 55       	add	r5,	r6	
    3bf2:	43 46       	.word	0x4643;	????	Illegal as 2-op instr
    3bf4:	45 20       	jnz	$+140    	;abs 0x3c80
    3bf6:	28 30       	jn	$+82     	;abs 0x3c48
    3bf8:	78 34       	jge	$+242    	;abs 0x3cea
    3bfa:	30 29       	jnc	$+610    	;abs 0x3e5c
    3bfc:	00 01       	.word	0x0100;	????	
    3bfe:	b4 06       	.word	0x06b4;	????	
    3c00:	55 43       	mov.b	#1,	r5	;r3 As==01
    3c02:	4f 45       	mov.b	r5,	r15	
    3c04:	20 28       	jnc	$+66     	;abs 0x3c46
    3c06:	30 78       	subc	@r8+,	r0	
    3c08:	32 30       	jn	$+102    	;abs 0x3c6e
    3c0a:	29 00       	.word	0x0029;	????	
    3c0c:	01 b5       	bit	r5,	r1	
    3c0e:	06 55       	add	r5,	r6	
    3c10:	43 50       	.word	0x5043;	????	Illegal as 2-op instr
    3c12:	45 20       	jnz	$+140    	;abs 0x3c9e
    3c14:	28 30       	jn	$+82     	;abs 0x3c66
    3c16:	78 31       	jn	$+754    	;abs 0x3f08
    3c18:	30 29       	jnc	$+610    	;abs 0x3e7a
    3c1a:	00 01       	.word	0x0100;	????	
    3c1c:	b6 06       	.word	0x06b6;	????	
    3c1e:	55 43       	mov.b	#1,	r5	;r3 As==01
    3c20:	42 52       	rla.b	r2		
    3c22:	4b 20       	jnz	$+152    	;abs 0x3cba
    3c24:	28 30       	jn	$+82     	;abs 0x3c76
    3c26:	78 30       	jn	$+242    	;abs 0x3d18
    3c28:	38 29       	jnc	$+626    	;abs 0x3e9a
    3c2a:	00 01       	.word	0x0100;	????	
    3c2c:	b7 06       	.word	0x06b7;	????	
    3c2e:	55 43       	mov.b	#1,	r5	;r3 As==01
    3c30:	52 58 45 52 	add.b	21061(r8),r2	;0x5245(r8)
    3c34:	52 20       	jnz	$+166    	;abs 0x3cda
    3c36:	28 30       	jn	$+82     	;abs 0x3c88
    3c38:	78 30       	jn	$+242    	;abs 0x3d2a
    3c3a:	34 29       	jnc	$+618    	;abs 0x3ea4
    3c3c:	00 01       	.word	0x0100;	????	
    3c3e:	b8 06       	.word	0x06b8;	????	
    3c40:	55 43       	mov.b	#1,	r5	;r3 As==01
    3c42:	41 44       	mov.b	r4,	r1	
    3c44:	44 52       	add.b	r2,	r4	
    3c46:	20 28       	jnc	$+66     	;abs 0x3c88
    3c48:	30 78       	subc	@r8+,	r0	
    3c4a:	30 32       	jn	$-926    	;abs 0x38ac
    3c4c:	29 00       	.word	0x0029;	????	
    3c4e:	01 b9       	bit	r9,	r1	
    3c50:	06 55       	add	r5,	r6	
    3c52:	43 42       	.word	0x4243;	????	Illegal as 2-op instr
    3c54:	55 53       	inc.b	r5		
    3c56:	59 20       	jnz	$+180    	;abs 0x3d0a
    3c58:	28 30       	jn	$+82     	;abs 0x3caa
    3c5a:	78 30       	jn	$+242    	;abs 0x3d4c
    3c5c:	31 29       	jnc	$+612    	;abs 0x3ec0
    3c5e:	00 01       	.word	0x0100;	????	
    3c60:	ba 06       	.word	0x06ba;	????	
    3c62:	55 43       	mov.b	#1,	r5	;r3 As==01
    3c64:	49 44       	mov.b	r4,	r9	
    3c66:	4c 45       	mov.b	r5,	r12	
    3c68:	20 28       	jnc	$+66     	;abs 0x3caa
    3c6a:	30 78       	subc	@r8+,	r0	
    3c6c:	30 32       	jn	$-926    	;abs 0x38ce
    3c6e:	29 00       	.word	0x0029;	????	
    3c70:	01 c0       	bic	r0,	r1	
    3c72:	06 55       	add	r5,	r6	
    3c74:	43 4e       	.word	0x4e43;	????	Illegal as 2-op instr
    3c76:	41 43       	clr.b	r1		
    3c78:	4b 49       	mov.b	r9,	r11	
    3c7a:	45 20       	jnz	$+140    	;abs 0x3d06
    3c7c:	28 30       	jn	$+82     	;abs 0x3cce
    3c7e:	78 30       	jn	$+242    	;abs 0x3d70
    3c80:	38 29       	jnc	$+626    	;abs 0x3ef2
    3c82:	00 01       	.word	0x0100;	????	
    3c84:	c1 06       	.word	0x06c1;	????	
    3c86:	55 43       	mov.b	#1,	r5	;r3 As==01
    3c88:	53 54       	.word	0x5453;	????	Illegal as 2-op instr
    3c8a:	50 49 45 20 	br	8261(r9)	;0x2045(r9)
    3c8e:	28 30       	jn	$+82     	;abs 0x3ce0
    3c90:	78 30       	jn	$+242    	;abs 0x3d82
    3c92:	34 29       	jnc	$+618    	;abs 0x3efc
    3c94:	00 01       	.word	0x0100;	????	
    3c96:	c2 06       	.word	0x06c2;	????	
    3c98:	55 43       	mov.b	#1,	r5	;r3 As==01
    3c9a:	53 54       	.word	0x5453;	????	Illegal as 2-op instr
    3c9c:	54 49 45 20 	mov.b	8261(r9),r4	;0x2045(r9)
    3ca0:	28 30       	jn	$+82     	;abs 0x3cf2
    3ca2:	78 30       	jn	$+242    	;abs 0x3d94
    3ca4:	32 29       	jnc	$+614    	;abs 0x3f0a
    3ca6:	00 01       	.word	0x0100;	????	
    3ca8:	c3 06       	.word	0x06c3;	????	
    3caa:	55 43       	mov.b	#1,	r5	;r3 As==01
    3cac:	41 4c       	mov.b	r12,	r1	
    3cae:	49 45       	mov.b	r5,	r9	
    3cb0:	20 28       	jnc	$+66     	;abs 0x3cf2
    3cb2:	30 78       	subc	@r8+,	r0	
    3cb4:	30 31       	jn	$+610    	;abs 0x3f16
    3cb6:	29 00       	.word	0x0029;	????	
    3cb8:	01 c6       	bic	r6,	r1	
    3cba:	06 55       	add	r5,	r6	
    3cbc:	43 53       	.word	0x5343;	????	Illegal as emulation instr
    3cbe:	43 4c       	.word	0x4c43;	????	Illegal as 2-op instr
    3cc0:	4c 4f       	mov.b	r15,	r12	
    3cc2:	57 20       	jnz	$+176    	;abs 0x3d72
    3cc4:	28 30       	jn	$+82     	;abs 0x3d16
    3cc6:	78 34       	jge	$+242    	;abs 0x3db8
    3cc8:	30 29       	jnc	$+610    	;abs 0x3f2a
    3cca:	00 01       	.word	0x0100;	????	
    3ccc:	c7 06       	.word	0x06c7;	????	
    3cce:	55 43       	mov.b	#1,	r5	;r3 As==01
    3cd0:	47 43       	clr.b	r7		
    3cd2:	20 28       	jnc	$+66     	;abs 0x3d14
    3cd4:	30 78       	subc	@r8+,	r0	
    3cd6:	32 30       	jn	$+102    	;abs 0x3d3c
    3cd8:	29 00       	.word	0x0029;	????	
    3cda:	01 c8       	bic	r8,	r1	
    3cdc:	06 55       	add	r5,	r6	
    3cde:	43 42       	.word	0x4243;	????	Illegal as 2-op instr
    3ce0:	42 55       	add.b	r5,	r2	
    3ce2:	53 59       	.word	0x5953;	????	Illegal as 2-op instr
    3ce4:	20 28       	jnc	$+66     	;abs 0x3d26
    3ce6:	30 78       	subc	@r8+,	r0	
    3ce8:	31 30       	jn	$+100    	;abs 0x3d4c
    3cea:	29 00       	.word	0x0029;	????	
    3cec:	01 c9       	bic	r9,	r1	
    3cee:	06 55       	add	r5,	r6	
    3cf0:	43 4e       	.word	0x4e43;	????	Illegal as 2-op instr
    3cf2:	41 43       	clr.b	r1		
    3cf4:	4b 49       	mov.b	r9,	r11	
    3cf6:	46 47       	mov.b	r7,	r6	
    3cf8:	20 28       	jnc	$+66     	;abs 0x3d3a
    3cfa:	30 78       	subc	@r8+,	r0	
    3cfc:	30 38       	jl	$+98     	;abs 0x3d5e
    3cfe:	29 00       	.word	0x0029;	????	
    3d00:	01 ca       	bic	r10,	r1	
    3d02:	06 55       	add	r5,	r6	
    3d04:	43 53       	.word	0x5343;	????	Illegal as emulation instr
    3d06:	54 50 49 46 	add.b	17993(r0),r4	;PC rel. 0x8351
    3d0a:	47 20       	jnz	$+144    	;abs 0x3d9a
    3d0c:	28 30       	jn	$+82     	;abs 0x3d5e
    3d0e:	78 30       	jn	$+242    	;abs 0x3e00
    3d10:	34 29       	jnc	$+618    	;abs 0x3f7a
    3d12:	00 01       	.word	0x0100;	????	
    3d14:	cb 06       	.word	0x06cb;	????	
    3d16:	55 43       	mov.b	#1,	r5	;r3 As==01
    3d18:	53 54       	.word	0x5453;	????	Illegal as 2-op instr
    3d1a:	54 49 46 47 	mov.b	18246(r9),r4	;0x4746(r9)
    3d1e:	20 28       	jnc	$+66     	;abs 0x3d60
    3d20:	30 78       	subc	@r8+,	r0	
    3d22:	30 32       	jn	$-926    	;abs 0x3984
    3d24:	29 00       	.word	0x0029;	????	
    3d26:	01 cc       	bic	r12,	r1	
    3d28:	06 55       	add	r5,	r6	
    3d2a:	43 41       	.word	0x4143;	????	Illegal as 2-op instr
    3d2c:	4c 49       	mov.b	r9,	r12	
    3d2e:	46 47       	mov.b	r7,	r6	
    3d30:	20 28       	jnc	$+66     	;abs 0x3d72
    3d32:	30 78       	subc	@r8+,	r0	
    3d34:	30 31       	jn	$+610    	;abs 0x3f96
    3d36:	29 00       	.word	0x0029;	????	
    3d38:	01 ce       	bic	r14,	r1	
    3d3a:	06 55       	add	r5,	r6	
    3d3c:	43 49       	.word	0x4943;	????	Illegal as 2-op instr
    3d3e:	52 54 58 50 	add.b	20568(r4),r2	;0x5058(r4)
    3d42:	4c 35       	jge	$+666    	;abs 0x3fdc
    3d44:	20 28       	jnc	$+66     	;abs 0x3d86
    3d46:	30 78       	subc	@r8+,	r0	
    3d48:	38 30       	jn	$+114    	;abs 0x3dba
    3d4a:	29 00       	.word	0x0029;	????	
    3d4c:	01 cf       	bic	r15,	r1	
    3d4e:	06 55       	add	r5,	r6	
    3d50:	43 49       	.word	0x4943;	????	Illegal as 2-op instr
    3d52:	52 54 58 50 	add.b	20568(r4),r2	;0x5058(r4)
    3d56:	4c 34       	jge	$+154    	;abs 0x3df0
    3d58:	20 28       	jnc	$+66     	;abs 0x3d9a
    3d5a:	30 78       	subc	@r8+,	r0	
    3d5c:	34 30       	jn	$+106    	;abs 0x3dc6
    3d5e:	29 00       	.word	0x0029;	????	
    3d60:	01 d0       	bis	r0,	r1	
    3d62:	06 55       	add	r5,	r6	
    3d64:	43 49       	.word	0x4943;	????	Illegal as 2-op instr
    3d66:	52 54 58 50 	add.b	20568(r4),r2	;0x5058(r4)
    3d6a:	4c 33       	jn	$-358    	;abs 0x3c04
    3d6c:	20 28       	jnc	$+66     	;abs 0x3dae
    3d6e:	30 78       	subc	@r8+,	r0	
    3d70:	32 30       	jn	$+102    	;abs 0x3dd6
    3d72:	29 00       	.word	0x0029;	????	
    3d74:	01 d1       	bis	r1,	r1	
    3d76:	06 55       	add	r5,	r6	
    3d78:	43 49       	.word	0x4943;	????	Illegal as 2-op instr
    3d7a:	52 54 58 50 	add.b	20568(r4),r2	;0x5058(r4)
    3d7e:	4c 32       	jn	$-870    	;abs 0x3a18
    3d80:	20 28       	jnc	$+66     	;abs 0x3dc2
    3d82:	30 78       	subc	@r8+,	r0	
    3d84:	31 30       	jn	$+100    	;abs 0x3de8
    3d86:	29 00       	.word	0x0029;	????	
    3d88:	01 d2       	bis	r2,	r1	
    3d8a:	06 55       	add	r5,	r6	
    3d8c:	43 49       	.word	0x4943;	????	Illegal as 2-op instr
    3d8e:	52 54 58 50 	add.b	20568(r4),r2	;0x5058(r4)
    3d92:	4c 31       	jn	$+666    	;abs 0x402c
    3d94:	20 28       	jnc	$+66     	;abs 0x3dd6
    3d96:	30 78       	subc	@r8+,	r0	
    3d98:	30 38       	jl	$+98     	;abs 0x3dfa
    3d9a:	29 00       	.word	0x0029;	????	
    3d9c:	01 d3       	bis	#0,	r1	;r3 As==00
    3d9e:	06 55       	add	r5,	r6	
    3da0:	43 49       	.word	0x4943;	????	Illegal as 2-op instr
    3da2:	52 54 58 50 	add.b	20568(r4),r2	;0x5058(r4)
    3da6:	4c 30       	jn	$+154    	;abs 0x3e40
    3da8:	20 28       	jnc	$+66     	;abs 0x3dea
    3daa:	30 78       	subc	@r8+,	r0	
    3dac:	30 34       	jge	$+98     	;abs 0x3e0e
    3dae:	29 00       	.word	0x0029;	????	
    3db0:	01 d4       	bis	r4,	r1	
    3db2:	06 55       	add	r5,	r6	
    3db4:	43 49       	.word	0x4943;	????	Illegal as 2-op instr
    3db6:	52 54 58 43 	add.b	17240(r4),r2	;0x4358(r4)
    3dba:	4c 4b       	mov.b	r11,	r12	
    3dbc:	20 28       	jnc	$+66     	;abs 0x3dfe
    3dbe:	30 78       	subc	@r8+,	r0	
    3dc0:	30 32       	jn	$-926    	;abs 0x3a22
    3dc2:	29 00       	.word	0x0029;	????	
    3dc4:	01 d5       	bis	r5,	r1	
    3dc6:	06 55       	add	r5,	r6	
    3dc8:	43 49       	.word	0x4943;	????	Illegal as 2-op instr
    3dca:	52 45 4e 20 	mov.b	8270(r5),r2	;0x204e(r5)
    3dce:	28 30       	jn	$+82     	;abs 0x3e20
    3dd0:	78 30       	jn	$+242    	;abs 0x3ec2
    3dd2:	31 29       	jnc	$+612    	;abs 0x4036
    3dd4:	00 01       	.word	0x0100;	????	
    3dd6:	d7 06       	.word	0x06d7;	????	
    3dd8:	55 43       	mov.b	#1,	r5	;r3 As==01
    3dda:	49 52       	add.b	r2,	r9	
    3ddc:	52 58 46 4c 	add.b	19526(r8),r2	;0x4c46(r8)
    3de0:	35 20       	jnz	$+108    	;abs 0x3e4c
    3de2:	28 30       	jn	$+82     	;abs 0x3e34
    3de4:	78 38       	jl	$+242    	;abs 0x3ed6
    3de6:	30 29       	jnc	$+610    	;abs 0x4048
    3de8:	00 01       	.word	0x0100;	????	
    3dea:	d8 06       	.word	0x06d8;	????	
    3dec:	55 43       	mov.b	#1,	r5	;r3 As==01
    3dee:	49 52       	add.b	r2,	r9	
    3df0:	52 58 46 4c 	add.b	19526(r8),r2	;0x4c46(r8)
    3df4:	34 20       	jnz	$+106    	;abs 0x3e5e
    3df6:	28 30       	jn	$+82     	;abs 0x3e48
    3df8:	78 34       	jge	$+242    	;abs 0x3eea
    3dfa:	30 29       	jnc	$+610    	;abs 0x405c
    3dfc:	00 01       	.word	0x0100;	????	
    3dfe:	d9 06       	.word	0x06d9;	????	
    3e00:	55 43       	mov.b	#1,	r5	;r3 As==01
    3e02:	49 52       	add.b	r2,	r9	
    3e04:	52 58 46 4c 	add.b	19526(r8),r2	;0x4c46(r8)
    3e08:	33 20       	jnz	$+104    	;abs 0x3e70
    3e0a:	28 30       	jn	$+82     	;abs 0x3e5c
    3e0c:	78 32       	jn	$-782    	;abs 0x3afe
    3e0e:	30 29       	jnc	$+610    	;abs 0x4070
    3e10:	00 01       	.word	0x0100;	????	
    3e12:	da 06       	.word	0x06da;	????	
    3e14:	55 43       	mov.b	#1,	r5	;r3 As==01
    3e16:	49 52       	add.b	r2,	r9	
    3e18:	52 58 46 4c 	add.b	19526(r8),r2	;0x4c46(r8)
    3e1c:	32 20       	jnz	$+102    	;abs 0x3e82
    3e1e:	28 30       	jn	$+82     	;abs 0x3e70
    3e20:	78 31       	jn	$+754    	;abs 0x4112
    3e22:	30 29       	jnc	$+610    	;abs 0x4084
    3e24:	00 01       	.word	0x0100;	????	
    3e26:	db 06       	.word	0x06db;	????	
    3e28:	55 43       	mov.b	#1,	r5	;r3 As==01
    3e2a:	49 52       	add.b	r2,	r9	
    3e2c:	52 58 46 4c 	add.b	19526(r8),r2	;0x4c46(r8)
    3e30:	31 20       	jnz	$+100    	;abs 0x3e94
    3e32:	28 30       	jn	$+82     	;abs 0x3e84
    3e34:	78 30       	jn	$+242    	;abs 0x3f26
    3e36:	38 29       	jnc	$+626    	;abs 0x40a8
    3e38:	00 01       	.word	0x0100;	????	
    3e3a:	dc 06       	.word	0x06dc;	????	
    3e3c:	55 43       	mov.b	#1,	r5	;r3 As==01
    3e3e:	49 52       	add.b	r2,	r9	
    3e40:	52 58 46 4c 	add.b	19526(r8),r2	;0x4c46(r8)
    3e44:	30 20       	jnz	$+98     	;abs 0x3ea6
    3e46:	28 30       	jn	$+82     	;abs 0x3e98
    3e48:	78 30       	jn	$+242    	;abs 0x3f3a
    3e4a:	34 29       	jnc	$+618    	;abs 0x40b4
    3e4c:	00 01       	.word	0x0100;	????	
    3e4e:	dd 06       	.word	0x06dd;	????	
    3e50:	55 43       	mov.b	#1,	r5	;r3 As==01
    3e52:	49 52       	add.b	r2,	r9	
    3e54:	52 58 50 4c 	add.b	19536(r8),r2	;0x4c50(r8)
    3e58:	20 28       	jnc	$+66     	;abs 0x3e9a
    3e5a:	30 78       	subc	@r8+,	r0	
    3e5c:	30 32       	jn	$-926    	;abs 0x3abe
    3e5e:	29 00       	.word	0x0029;	????	
    3e60:	01 de       	bis	r14,	r1	
    3e62:	06 55       	add	r5,	r6	
    3e64:	43 49       	.word	0x4943;	????	Illegal as 2-op instr
    3e66:	52 52 58 46 	add.b	&0x4658,r2	
    3e6a:	45 20       	jnz	$+140    	;abs 0x3ef6
    3e6c:	28 30       	jn	$+82     	;abs 0x3ebe
    3e6e:	78 30       	jn	$+242    	;abs 0x3f60
    3e70:	31 29       	jnc	$+612    	;abs 0x40d4
    3e72:	00 01       	.word	0x0100;	????	
    3e74:	e2 06       	.word	0x06e2;	????	
    3e76:	55 43       	mov.b	#1,	r5	;r3 As==01
    3e78:	44 45       	mov.b	r5,	r4	
    3e7a:	4c 49       	mov.b	r9,	r12	
    3e7c:	4d 31       	jn	$+668    	;abs 0x4118
    3e7e:	20 28       	jnc	$+66     	;abs 0x3ec0
    3e80:	30 78       	subc	@r8+,	r0	
    3e82:	32 30       	jn	$+102    	;abs 0x3ee8
    3e84:	29 00       	.word	0x0029;	????	
    3e86:	01 e3       	xor	#0,	r1	;r3 As==00
    3e88:	06 55       	add	r5,	r6	
    3e8a:	43 44       	.word	0x4443;	????	Illegal as 2-op instr
    3e8c:	45 4c       	mov.b	r12,	r5	
    3e8e:	49 4d       	mov.b	r13,	r9	
    3e90:	30 20       	jnz	$+98     	;abs 0x3ef2
    3e92:	28 30       	jn	$+82     	;abs 0x3ee4
    3e94:	78 31       	jn	$+754    	;abs 0x4186
    3e96:	30 29       	jnc	$+610    	;abs 0x40f8
    3e98:	00 01       	.word	0x0100;	????	
    3e9a:	e4 06       	.word	0x06e4;	????	
    3e9c:	55 43       	mov.b	#1,	r5	;r3 As==01
    3e9e:	53 54       	.word	0x5453;	????	Illegal as 2-op instr
    3ea0:	4f 45       	mov.b	r5,	r15	
    3ea2:	20 28       	jnc	$+66     	;abs 0x3ee4
    3ea4:	30 78       	subc	@r8+,	r0	
    3ea6:	30 38       	jl	$+98     	;abs 0x3f08
    3ea8:	29 00       	.word	0x0029;	????	
    3eaa:	01 e5       	xor	r5,	r1	
    3eac:	06 55       	add	r5,	r6	
    3eae:	43 42       	.word	0x4243;	????	Illegal as 2-op instr
    3eb0:	54 4f 45 20 	mov.b	8261(r15),r4	;0x2045(r15)
    3eb4:	28 30       	jn	$+82     	;abs 0x3f06
    3eb6:	78 30       	jn	$+242    	;abs 0x3fa8
    3eb8:	34 29       	jnc	$+618    	;abs 0x4122
    3eba:	00 01       	.word	0x0100;	????	
    3ebc:	e7 06       	.word	0x06e7;	????	
    3ebe:	55 43       	mov.b	#1,	r5	;r3 As==01
    3ec0:	41 42       	mov.b	r2,	r1	
    3ec2:	44 45       	mov.b	r5,	r4	
    3ec4:	4e 20       	jnz	$+158    	;abs 0x3f62
    3ec6:	28 30       	jn	$+82     	;abs 0x3f18
    3ec8:	78 30       	jn	$+242    	;abs 0x3fba
    3eca:	31 29       	jnc	$+612    	;abs 0x412e
    3ecc:	00 01       	.word	0x0100;	????	
    3ece:	e9 06       	.word	0x06e9;	????	
    3ed0:	55 43       	mov.b	#1,	r5	;r3 As==01
    3ed2:	47 43       	clr.b	r7		
    3ed4:	45 4e       	mov.b	r14,	r5	
    3ed6:	20 28       	jnc	$+66     	;abs 0x3f18
    3ed8:	30 78       	subc	@r8+,	r0	
    3eda:	38 30       	jn	$+114    	;abs 0x3f4c
    3edc:	30 30       	jn	$+98     	;abs 0x3f3e
    3ede:	29 00       	.word	0x0029;	????	
    3ee0:	01 ea       	xor	r10,	r1	
    3ee2:	06 55       	add	r5,	r6	
    3ee4:	43 4f       	.word	0x4f43;	????	Illegal as 2-op instr
    3ee6:	41 39       	jl	$+644    	;abs 0x416a
    3ee8:	20 28       	jnc	$+66     	;abs 0x3f2a
    3eea:	30 78       	subc	@r8+,	r0	
    3eec:	30 32       	jn	$-926    	;abs 0x3b4e
    3eee:	30 30       	jn	$+98     	;abs 0x3f50
    3ef0:	29 00       	.word	0x0029;	????	
    3ef2:	01 eb       	xor	r11,	r1	
    3ef4:	06 55       	add	r5,	r6	
    3ef6:	43 4f       	.word	0x4f43;	????	Illegal as 2-op instr
    3ef8:	41 38       	jl	$+132    	;abs 0x3f7c
    3efa:	20 28       	jnc	$+66     	;abs 0x3f3c
    3efc:	30 78       	subc	@r8+,	r0	
    3efe:	30 31       	jn	$+610    	;abs 0x4160
    3f00:	30 30       	jn	$+98     	;abs 0x3f62
    3f02:	29 00       	.word	0x0029;	????	
    3f04:	01 ec       	xor	r12,	r1	
    3f06:	06 55       	add	r5,	r6	
    3f08:	43 4f       	.word	0x4f43;	????	Illegal as 2-op instr
    3f0a:	41 37       	jge	$-380    	;abs 0x3d8e
    3f0c:	20 28       	jnc	$+66     	;abs 0x3f4e
    3f0e:	30 78       	subc	@r8+,	r0	
    3f10:	30 30       	jn	$+98     	;abs 0x3f72
    3f12:	38 30       	jn	$+114    	;abs 0x3f84
    3f14:	29 00       	.word	0x0029;	????	
    3f16:	01 ed       	xor	r13,	r1	
    3f18:	06 55       	add	r5,	r6	
    3f1a:	43 4f       	.word	0x4f43;	????	Illegal as 2-op instr
    3f1c:	41 36       	jge	$-892    	;abs 0x3ba0
    3f1e:	20 28       	jnc	$+66     	;abs 0x3f60
    3f20:	30 78       	subc	@r8+,	r0	
    3f22:	30 30       	jn	$+98     	;abs 0x3f84
    3f24:	34 30       	jn	$+106    	;abs 0x3f8e
    3f26:	29 00       	.word	0x0029;	????	
    3f28:	01 ee       	xor	r14,	r1	
    3f2a:	06 55       	add	r5,	r6	
    3f2c:	43 4f       	.word	0x4f43;	????	Illegal as 2-op instr
    3f2e:	41 35       	jge	$+644    	;abs 0x41b2
    3f30:	20 28       	jnc	$+66     	;abs 0x3f72
    3f32:	30 78       	subc	@r8+,	r0	
    3f34:	30 30       	jn	$+98     	;abs 0x3f96
    3f36:	32 30       	jn	$+102    	;abs 0x3f9c
    3f38:	29 00       	.word	0x0029;	????	
    3f3a:	01 ef       	xor	r15,	r1	
    3f3c:	06 55       	add	r5,	r6	
    3f3e:	43 4f       	.word	0x4f43;	????	Illegal as 2-op instr
    3f40:	41 34       	jge	$+132    	;abs 0x3fc4
    3f42:	20 28       	jnc	$+66     	;abs 0x3f84
    3f44:	30 78       	subc	@r8+,	r0	
    3f46:	30 30       	jn	$+98     	;abs 0x3fa8
    3f48:	31 30       	jn	$+100    	;abs 0x3fac
    3f4a:	29 00       	.word	0x0029;	????	
    3f4c:	01 f0       	and	r0,	r1	
    3f4e:	06 55       	add	r5,	r6	
    3f50:	43 4f       	.word	0x4f43;	????	Illegal as 2-op instr
    3f52:	41 33       	jn	$-380    	;abs 0x3dd6
    3f54:	20 28       	jnc	$+66     	;abs 0x3f96
    3f56:	30 78       	subc	@r8+,	r0	
    3f58:	30 30       	jn	$+98     	;abs 0x3fba
    3f5a:	30 38       	jl	$+98     	;abs 0x3fbc
    3f5c:	29 00       	.word	0x0029;	????	
    3f5e:	01 f1       	and	r1,	r1	
    3f60:	06 55       	add	r5,	r6	
    3f62:	43 4f       	.word	0x4f43;	????	Illegal as 2-op instr
    3f64:	41 32       	jn	$-892    	;abs 0x3be8
    3f66:	20 28       	jnc	$+66     	;abs 0x3fa8
    3f68:	30 78       	subc	@r8+,	r0	
    3f6a:	30 30       	jn	$+98     	;abs 0x3fcc
    3f6c:	30 34       	jge	$+98     	;abs 0x3fce
    3f6e:	29 00       	.word	0x0029;	????	
    3f70:	01 f2       	and	r2,	r1	
    3f72:	06 55       	add	r5,	r6	
    3f74:	43 4f       	.word	0x4f43;	????	Illegal as 2-op instr
    3f76:	41 31       	jn	$+644    	;abs 0x41fa
    3f78:	20 28       	jnc	$+66     	;abs 0x3fba
    3f7a:	30 78       	subc	@r8+,	r0	
    3f7c:	30 30       	jn	$+98     	;abs 0x3fde
    3f7e:	30 32       	jn	$-926    	;abs 0x3be0
    3f80:	29 00       	.word	0x0029;	????	
    3f82:	01 f3       	and	#0,	r1	;r3 As==00
    3f84:	06 55       	add	r5,	r6	
    3f86:	43 4f       	.word	0x4f43;	????	Illegal as 2-op instr
    3f88:	41 30       	jn	$+132    	;abs 0x400c
    3f8a:	20 28       	jnc	$+66     	;abs 0x3fcc
    3f8c:	30 78       	subc	@r8+,	r0	
    3f8e:	30 30       	jn	$+98     	;abs 0x3ff0
    3f90:	30 31       	jn	$+610    	;abs 0x41f2
    3f92:	29 00       	.word	0x0029;	????	
    3f94:	01 f5       	and	r5,	r1	
    3f96:	06 55       	add	r5,	r6	
    3f98:	43 53       	.word	0x5343;	????	Illegal as emulation instr
    3f9a:	41 39       	jl	$+644    	;abs 0x421e
    3f9c:	20 28       	jnc	$+66     	;abs 0x3fde
    3f9e:	30 78       	subc	@r8+,	r0	
    3fa0:	30 32       	jn	$-926    	;abs 0x3c02
    3fa2:	30 30       	jn	$+98     	;abs 0x4004
    3fa4:	29 00       	.word	0x0029;	????	
    3fa6:	01 f6       	and	r6,	r1	
    3fa8:	06 55       	add	r5,	r6	
    3faa:	43 53       	.word	0x5343;	????	Illegal as emulation instr
    3fac:	41 38       	jl	$+132    	;abs 0x4030
    3fae:	20 28       	jnc	$+66     	;abs 0x3ff0
    3fb0:	30 78       	subc	@r8+,	r0	
    3fb2:	30 31       	jn	$+610    	;abs 0x4214
    3fb4:	30 30       	jn	$+98     	;abs 0x4016
    3fb6:	29 00       	.word	0x0029;	????	
    3fb8:	01 f7       	and	r7,	r1	
    3fba:	06 55       	add	r5,	r6	
    3fbc:	43 53       	.word	0x5343;	????	Illegal as emulation instr
    3fbe:	41 37       	jge	$-380    	;abs 0x3e42
    3fc0:	20 28       	jnc	$+66     	;abs 0x4002
    3fc2:	30 78       	subc	@r8+,	r0	
    3fc4:	30 30       	jn	$+98     	;abs 0x4026
    3fc6:	38 30       	jn	$+114    	;abs 0x4038
    3fc8:	29 00       	.word	0x0029;	????	
    3fca:	01 f8       	and	r8,	r1	
    3fcc:	06 55       	add	r5,	r6	
    3fce:	43 53       	.word	0x5343;	????	Illegal as emulation instr
    3fd0:	41 36       	jge	$-892    	;abs 0x3c54
    3fd2:	20 28       	jnc	$+66     	;abs 0x4014
    3fd4:	30 78       	subc	@r8+,	r0	
    3fd6:	30 30       	jn	$+98     	;abs 0x4038
    3fd8:	34 30       	jn	$+106    	;abs 0x4042
    3fda:	29 00       	.word	0x0029;	????	
    3fdc:	01 f9       	and	r9,	r1	
    3fde:	06 55       	add	r5,	r6	
    3fe0:	43 53       	.word	0x5343;	????	Illegal as emulation instr
    3fe2:	41 35       	jge	$+644    	;abs 0x4266
    3fe4:	20 28       	jnc	$+66     	;abs 0x4026
    3fe6:	30 78       	subc	@r8+,	r0	
    3fe8:	30 30       	jn	$+98     	;abs 0x404a
    3fea:	32 30       	jn	$+102    	;abs 0x4050
    3fec:	29 00       	.word	0x0029;	????	
    3fee:	01 fa       	and	r10,	r1	
    3ff0:	06 55       	add	r5,	r6	
    3ff2:	43 53       	.word	0x5343;	????	Illegal as emulation instr
    3ff4:	41 34       	jge	$+132    	;abs 0x4078
    3ff6:	20 28       	jnc	$+66     	;abs 0x4038
    3ff8:	30 78       	subc	@r8+,	r0	
    3ffa:	30 30       	jn	$+98     	;abs 0x405c
    3ffc:	31 30       	jn	$+100    	;abs 0x4060
    3ffe:	29 00       	.word	0x0029;	????	
    4000:	01 fb       	and	r11,	r1	
    4002:	06 55       	add	r5,	r6	
    4004:	43 53       	.word	0x5343;	????	Illegal as emulation instr
    4006:	41 33       	jn	$-380    	;abs 0x3e8a
    4008:	20 28       	jnc	$+66     	;abs 0x404a
    400a:	30 78       	subc	@r8+,	r0	
    400c:	30 30       	jn	$+98     	;abs 0x406e
    400e:	30 38       	jl	$+98     	;abs 0x4070
    4010:	29 00       	.word	0x0029;	????	
    4012:	01 fc       	and	r12,	r1	
    4014:	06 55       	add	r5,	r6	
    4016:	43 53       	.word	0x5343;	????	Illegal as emulation instr
    4018:	41 32       	jn	$-892    	;abs 0x3c9c
    401a:	20 28       	jnc	$+66     	;abs 0x405c
    401c:	30 78       	subc	@r8+,	r0	
    401e:	30 30       	jn	$+98     	;abs 0x4080
    4020:	30 34       	jge	$+98     	;abs 0x4082
    4022:	29 00       	.word	0x0029;	????	
    4024:	01 fd       	and	r13,	r1	
    4026:	06 55       	add	r5,	r6	
    4028:	43 53       	.word	0x5343;	????	Illegal as emulation instr
    402a:	41 31       	jn	$+644    	;abs 0x42ae
    402c:	20 28       	jnc	$+66     	;abs 0x406e
    402e:	30 78       	subc	@r8+,	r0	
    4030:	30 30       	jn	$+98     	;abs 0x4092
    4032:	30 32       	jn	$-926    	;abs 0x3c94
    4034:	29 00       	.word	0x0029;	????	
    4036:	01 fe       	and	r14,	r1	
    4038:	06 55       	add	r5,	r6	
    403a:	43 53       	.word	0x5343;	????	Illegal as emulation instr
    403c:	41 30       	jn	$+132    	;abs 0x40c0
    403e:	20 28       	jnc	$+66     	;abs 0x4080
    4040:	30 78       	subc	@r8+,	r0	
    4042:	30 30       	jn	$+98     	;abs 0x40a4
    4044:	30 31       	jn	$+610    	;abs 0x42a6
    4046:	29 00       	.word	0x0029;	????	
    4048:	01 83       	sub	#0,	r1	;r3 As==00
    404a:	07 5f       	add	r15,	r7	
    404c:	5f 4d 53 50 	mov.b	20563(r13),r15	;0x5053(r13)
    4050:	34 33       	jn	$-406    	;abs 0x3eba
    4052:	30 5f       	add	@r15+,	r0	
    4054:	48 41       	mov.b	r1,	r8	
    4056:	53 5f       	.word	0x5f53;	????	Illegal as 2-op instr
    4058:	57 44 54 5f 	mov.b	24404(r4),r7	;0x5f54(r4)
    405c:	5f 20       	jnz	$+192    	;abs 0x411c
    405e:	00 01       	.word	0x0100;	????	
    4060:	85 07       	.word	0x0785;	????	
    4062:	57 44 54 43 	mov.b	17236(r4),r7	;0x4354(r4)
    4066:	54 4c 5f 20 	mov.b	8287(r12),r4	;0x205f(r12)
    406a:	30 78       	subc	@r8+,	r0	
    406c:	30 31       	jn	$+610    	;abs 0x42ce
    406e:	32 30       	jn	$+102    	;abs 0x40d4
    4070:	00 01       	.word	0x0100;	????	
    4072:	88 07       	.word	0x0788;	????	
    4074:	57 44 54 49 	mov.b	18772(r4),r7	;0x4954(r4)
    4078:	53 30       	jn	$+168    	;abs 0x4120
    407a:	20 28       	jnc	$+66     	;abs 0x40bc
    407c:	30 78       	subc	@r8+,	r0	
    407e:	30 30       	jn	$+98     	;abs 0x40e0
    4080:	30 31       	jn	$+610    	;abs 0x42e2
    4082:	29 00       	.word	0x0029;	????	
    4084:	01 89       	sub	r9,	r1	
    4086:	07 57       	rla	r7		
    4088:	44 54       	rla.b	r4		
    408a:	49 53       	add.b	#0,	r9	;r3 As==00
    408c:	31 20       	jnz	$+100    	;abs 0x40f0
    408e:	28 30       	jn	$+82     	;abs 0x40e0
    4090:	78 30       	jn	$+242    	;abs 0x4182
    4092:	30 30       	jn	$+98     	;abs 0x40f4
    4094:	32 29       	jnc	$+614    	;abs 0x42fa
    4096:	00 01       	.word	0x0100;	????	
    4098:	8a 07       	.word	0x078a;	????	
    409a:	57 44 54 53 	mov.b	21332(r4),r7	;0x5354(r4)
    409e:	53 45       	.word	0x4553;	????	Illegal as 2-op instr
    40a0:	4c 20       	jnz	$+154    	;abs 0x413a
    40a2:	28 30       	jn	$+82     	;abs 0x40f4
    40a4:	78 30       	jn	$+242    	;abs 0x4196
    40a6:	30 30       	jn	$+98     	;abs 0x4108
    40a8:	34 29       	jnc	$+618    	;abs 0x4312
    40aa:	00 01       	.word	0x0100;	????	
    40ac:	8b 07       	.word	0x078b;	????	
    40ae:	57 44 54 43 	mov.b	17236(r4),r7	;0x4354(r4)
    40b2:	4e 54       	add.b	r4,	r14	
    40b4:	43 4c       	.word	0x4c43;	????	Illegal as 2-op instr
    40b6:	20 28       	jnc	$+66     	;abs 0x40f8
    40b8:	30 78       	subc	@r8+,	r0	
    40ba:	30 30       	jn	$+98     	;abs 0x411c
    40bc:	30 38       	jl	$+98     	;abs 0x411e
    40be:	29 00       	.word	0x0029;	????	
    40c0:	01 8c       	sub	r12,	r1	
    40c2:	07 57       	rla	r7		
    40c4:	44 54       	rla.b	r4		
    40c6:	54 4d 53 45 	mov.b	17747(r13),r4	;0x4553(r13)
    40ca:	4c 20       	jnz	$+154    	;abs 0x4164
    40cc:	28 30       	jn	$+82     	;abs 0x411e
    40ce:	78 30       	jn	$+242    	;abs 0x41c0
    40d0:	30 31       	jn	$+610    	;abs 0x4332
    40d2:	30 29       	jnc	$+610    	;abs 0x4334
    40d4:	00 01       	.word	0x0100;	????	
    40d6:	8d 07       	.word	0x078d;	????	
    40d8:	57 44 54 4e 	mov.b	20052(r4),r7	;0x4e54(r4)
    40dc:	4d 49       	mov.b	r9,	r13	
    40de:	20 28       	jnc	$+66     	;abs 0x4120
    40e0:	30 78       	subc	@r8+,	r0	
    40e2:	30 30       	jn	$+98     	;abs 0x4144
    40e4:	32 30       	jn	$+102    	;abs 0x414a
    40e6:	29 00       	.word	0x0029;	????	
    40e8:	01 8e       	sub	r14,	r1	
    40ea:	07 57       	rla	r7		
    40ec:	44 54       	rla.b	r4		
    40ee:	4e 4d       	mov.b	r13,	r14	
    40f0:	49 45       	mov.b	r5,	r9	
    40f2:	53 20       	jnz	$+168    	;abs 0x419a
    40f4:	28 30       	jn	$+82     	;abs 0x4146
    40f6:	78 30       	jn	$+242    	;abs 0x41e8
    40f8:	30 34       	jge	$+98     	;abs 0x415a
    40fa:	30 29       	jnc	$+610    	;abs 0x435c
    40fc:	00 01       	.word	0x0100;	????	
    40fe:	8f 07       	.word	0x078f;	????	
    4100:	57 44 54 48 	mov.b	18516(r4),r7	;0x4854(r4)
    4104:	4f 4c       	mov.b	r12,	r15	
    4106:	44 20       	jnz	$+138    	;abs 0x4190
    4108:	28 30       	jn	$+82     	;abs 0x415a
    410a:	78 30       	jn	$+242    	;abs 0x41fc
    410c:	30 38       	jl	$+98     	;abs 0x416e
    410e:	30 29       	jnc	$+610    	;abs 0x4370
    4110:	00 01       	.word	0x0100;	????	
    4112:	91 07       	.word	0x0791;	????	
    4114:	57 44 54 50 	mov.b	20564(r4),r7	;0x5054(r4)
    4118:	57 20       	jnz	$+176    	;abs 0x41c8
    411a:	28 30       	jn	$+82     	;abs 0x416c
    411c:	78 35       	jge	$+754    	;abs 0x440e
    411e:	41 30       	jn	$+132    	;abs 0x41a2
    4120:	30 29       	jnc	$+610    	;abs 0x4382
    4122:	00 01       	.word	0x0100;	????	
    4124:	95 07       	.word	0x0795;	????	
    4126:	57 44 54 5f 	mov.b	24404(r4),r7	;0x5f54(r4)
    412a:	4d 44       	mov.b	r4,	r13	
    412c:	4c 59       	add.b	r9,	r12	
    412e:	5f 33       	jn	$-320    	;abs 0x3fee
    4130:	32 20       	jnz	$+102    	;abs 0x4196
    4132:	28 57       	add	@r7,	r8	
    4134:	44 54       	rla.b	r4		
    4136:	50 57 2b 57 	add.b	22315(r7),r0	;0x572b(r7)
    413a:	44 54       	rla.b	r4		
    413c:	54 4d 53 45 	mov.b	17747(r13),r4	;0x4553(r13)
    4140:	4c 2b       	jnc	$-358    	;abs 0x3fda
    4142:	57 44 54 43 	mov.b	17236(r4),r7	;0x4354(r4)
    4146:	4e 54       	add.b	r4,	r14	
    4148:	43 4c       	.word	0x4c43;	????	Illegal as 2-op instr
    414a:	29 00       	.word	0x0029;	????	
    414c:	01 96       	cmp	r6,	r1	
    414e:	07 57       	rla	r7		
    4150:	44 54       	rla.b	r4		
    4152:	5f 4d 44 4c 	mov.b	19524(r13),r15	;0x4c44(r13)
    4156:	59 5f 38 20 	add.b	8248(r15),r9	;0x2038(r15)
    415a:	28 57       	add	@r7,	r8	
    415c:	44 54       	rla.b	r4		
    415e:	50 57 2b 57 	add.b	22315(r7),r0	;0x572b(r7)
    4162:	44 54       	rla.b	r4		
    4164:	54 4d 53 45 	mov.b	17747(r13),r4	;0x4553(r13)
    4168:	4c 2b       	jnc	$-358    	;abs 0x4002
    416a:	57 44 54 43 	mov.b	17236(r4),r7	;0x4354(r4)
    416e:	4e 54       	add.b	r4,	r14	
    4170:	43 4c       	.word	0x4c43;	????	Illegal as 2-op instr
    4172:	2b 57       	add	@r7,	r11	
    4174:	44 54       	rla.b	r4		
    4176:	49 53       	add.b	#0,	r9	;r3 As==00
    4178:	30 29       	jnc	$+610    	;abs 0x43da
    417a:	00 01       	.word	0x0100;	????	
    417c:	97 07       	.word	0x0797;	????	
    417e:	57 44 54 5f 	mov.b	24404(r4),r7	;0x5f54(r4)
    4182:	4d 44       	mov.b	r4,	r13	
    4184:	4c 59       	add.b	r9,	r12	
    4186:	5f 30       	jn	$+192    	;abs 0x4246
    4188:	5f 35       	jge	$+704    	;abs 0x4448
    418a:	20 28       	jnc	$+66     	;abs 0x41cc
    418c:	57 44 54 50 	mov.b	20564(r4),r7	;0x5054(r4)
    4190:	57 2b       	jnc	$-336    	;abs 0x4040
    4192:	57 44 54 54 	mov.b	21588(r4),r7	;0x5454(r4)
    4196:	4d 53       	add.b	#0,	r13	;r3 As==00
    4198:	45 4c       	mov.b	r12,	r5	
    419a:	2b 57       	add	@r7,	r11	
    419c:	44 54       	rla.b	r4		
    419e:	43 4e       	.word	0x4e43;	????	Illegal as 2-op instr
    41a0:	54 43       	mov.b	#1,	r4	;r3 As==01
    41a2:	4c 2b       	jnc	$-358    	;abs 0x403c
    41a4:	57 44 54 49 	mov.b	18772(r4),r7	;0x4954(r4)
    41a8:	53 31       	jn	$+680    	;abs 0x4450
    41aa:	29 00       	.word	0x0029;	????	
    41ac:	01 98       	cmp	r8,	r1	
    41ae:	07 57       	rla	r7		
    41b0:	44 54       	rla.b	r4		
    41b2:	5f 4d 44 4c 	mov.b	19524(r13),r15	;0x4c44(r13)
    41b6:	59 5f 30 5f 	add.b	24368(r15),r9	;0x5f30(r15)
    41ba:	30 36       	jge	$-926    	;abs 0x3e1c
    41bc:	34 20       	jnz	$+106    	;abs 0x4226
    41be:	28 57       	add	@r7,	r8	
    41c0:	44 54       	rla.b	r4		
    41c2:	50 57 2b 57 	add.b	22315(r7),r0	;0x572b(r7)
    41c6:	44 54       	rla.b	r4		
    41c8:	54 4d 53 45 	mov.b	17747(r13),r4	;0x4553(r13)
    41cc:	4c 2b       	jnc	$-358    	;abs 0x4066
    41ce:	57 44 54 43 	mov.b	17236(r4),r7	;0x4354(r4)
    41d2:	4e 54       	add.b	r4,	r14	
    41d4:	43 4c       	.word	0x4c43;	????	Illegal as 2-op instr
    41d6:	2b 57       	add	@r7,	r11	
    41d8:	44 54       	rla.b	r4		
    41da:	49 53       	add.b	#0,	r9	;r3 As==00
    41dc:	31 2b       	jnc	$-412    	;abs 0x4040
    41de:	57 44 54 49 	mov.b	18772(r4),r7	;0x4954(r4)
    41e2:	53 30       	jn	$+168    	;abs 0x428a
    41e4:	29 00       	.word	0x0029;	????	
    41e6:	01 9a       	cmp	r10,	r1	
    41e8:	07 57       	rla	r7		
    41ea:	44 54       	rla.b	r4		
    41ec:	5f 41 44 4c 	mov.b	19524(r1),r15	;0x4c44(r1)
    41f0:	59 5f 31 30 	add.b	12337(r15),r9	;0x3031(r15)
    41f4:	30 30       	jn	$+98     	;abs 0x4256
    41f6:	20 28       	jnc	$+66     	;abs 0x4238
    41f8:	57 44 54 50 	mov.b	20564(r4),r7	;0x5054(r4)
    41fc:	57 2b       	jnc	$-336    	;abs 0x40ac
    41fe:	57 44 54 54 	mov.b	21588(r4),r7	;0x5454(r4)
    4202:	4d 53       	add.b	#0,	r13	;r3 As==00
    4204:	45 4c       	mov.b	r12,	r5	
    4206:	2b 57       	add	@r7,	r11	
    4208:	44 54       	rla.b	r4		
    420a:	43 4e       	.word	0x4e43;	????	Illegal as 2-op instr
    420c:	54 43       	mov.b	#1,	r4	;r3 As==01
    420e:	4c 2b       	jnc	$-358    	;abs 0x40a8
    4210:	57 44 54 53 	mov.b	21332(r4),r7	;0x5354(r4)
    4214:	53 45       	.word	0x4553;	????	Illegal as 2-op instr
    4216:	4c 29       	jnc	$+666    	;abs 0x44b0
    4218:	00 01       	.word	0x0100;	????	
    421a:	9b 07       	.word	0x079b;	????	
    421c:	57 44 54 5f 	mov.b	24404(r4),r7	;0x5f54(r4)
    4220:	41 44       	mov.b	r4,	r1	
    4222:	4c 59       	add.b	r9,	r12	
    4224:	5f 32       	jn	$-832    	;abs 0x3ee4
    4226:	35 30       	jn	$+108    	;abs 0x4292
    4228:	20 28       	jnc	$+66     	;abs 0x426a
    422a:	57 44 54 50 	mov.b	20564(r4),r7	;0x5054(r4)
    422e:	57 2b       	jnc	$-336    	;abs 0x40de
    4230:	57 44 54 54 	mov.b	21588(r4),r7	;0x5454(r4)
    4234:	4d 53       	add.b	#0,	r13	;r3 As==00
    4236:	45 4c       	mov.b	r12,	r5	
    4238:	2b 57       	add	@r7,	r11	
    423a:	44 54       	rla.b	r4		
    423c:	43 4e       	.word	0x4e43;	????	Illegal as 2-op instr
    423e:	54 43       	mov.b	#1,	r4	;r3 As==01
    4240:	4c 2b       	jnc	$-358    	;abs 0x40da
    4242:	57 44 54 53 	mov.b	21332(r4),r7	;0x5354(r4)
    4246:	53 45       	.word	0x4553;	????	Illegal as 2-op instr
    4248:	4c 2b       	jnc	$-358    	;abs 0x40e2
    424a:	57 44 54 49 	mov.b	18772(r4),r7	;0x4954(r4)
    424e:	53 30       	jn	$+168    	;abs 0x42f6
    4250:	29 00       	.word	0x0029;	????	
    4252:	01 9c       	cmp	r12,	r1	
    4254:	07 57       	rla	r7		
    4256:	44 54       	rla.b	r4		
    4258:	5f 41 44 4c 	mov.b	19524(r1),r15	;0x4c44(r1)
    425c:	59 5f 31 36 	add.b	13873(r15),r9	;0x3631(r15)
    4260:	20 28       	jnc	$+66     	;abs 0x42a2
    4262:	57 44 54 50 	mov.b	20564(r4),r7	;0x5054(r4)
    4266:	57 2b       	jnc	$-336    	;abs 0x4116
    4268:	57 44 54 54 	mov.b	21588(r4),r7	;0x5454(r4)
    426c:	4d 53       	add.b	#0,	r13	;r3 As==00
    426e:	45 4c       	mov.b	r12,	r5	
    4270:	2b 57       	add	@r7,	r11	
    4272:	44 54       	rla.b	r4		
    4274:	43 4e       	.word	0x4e43;	????	Illegal as 2-op instr
    4276:	54 43       	mov.b	#1,	r4	;r3 As==01
    4278:	4c 2b       	jnc	$-358    	;abs 0x4112
    427a:	57 44 54 53 	mov.b	21332(r4),r7	;0x5354(r4)
    427e:	53 45       	.word	0x4553;	????	Illegal as 2-op instr
    4280:	4c 2b       	jnc	$-358    	;abs 0x411a
    4282:	57 44 54 49 	mov.b	18772(r4),r7	;0x4954(r4)
    4286:	53 31       	jn	$+680    	;abs 0x452e
    4288:	29 00       	.word	0x0029;	????	
    428a:	01 9d       	cmp	r13,	r1	
    428c:	07 57       	rla	r7		
    428e:	44 54       	rla.b	r4		
    4290:	5f 41 44 4c 	mov.b	19524(r1),r15	;0x4c44(r1)
    4294:	59 5f 31 5f 	add.b	24369(r15),r9	;0x5f31(r15)
    4298:	39 20       	jnz	$+116    	;abs 0x430c
    429a:	28 57       	add	@r7,	r8	
    429c:	44 54       	rla.b	r4		
    429e:	50 57 2b 57 	add.b	22315(r7),r0	;0x572b(r7)
    42a2:	44 54       	rla.b	r4		
    42a4:	54 4d 53 45 	mov.b	17747(r13),r4	;0x4553(r13)
    42a8:	4c 2b       	jnc	$-358    	;abs 0x4142
    42aa:	57 44 54 43 	mov.b	17236(r4),r7	;0x4354(r4)
    42ae:	4e 54       	add.b	r4,	r14	
    42b0:	43 4c       	.word	0x4c43;	????	Illegal as 2-op instr
    42b2:	2b 57       	add	@r7,	r11	
    42b4:	44 54       	rla.b	r4		
    42b6:	53 53       	inc.b	#0		;r3 As==00
    42b8:	45 4c       	mov.b	r12,	r5	
    42ba:	2b 57       	add	@r7,	r11	
    42bc:	44 54       	rla.b	r4		
    42be:	49 53       	add.b	#0,	r9	;r3 As==00
    42c0:	31 2b       	jnc	$-412    	;abs 0x4124
    42c2:	57 44 54 49 	mov.b	18772(r4),r7	;0x4954(r4)
    42c6:	53 30       	jn	$+168    	;abs 0x436e
    42c8:	29 00       	.word	0x0029;	????	
    42ca:	01 a0       	dadd	r0,	r1	
    42cc:	07 57       	rla	r7		
    42ce:	44 54       	rla.b	r4		
    42d0:	5f 4d 52 53 	mov.b	21330(r13),r15	;0x5352(r13)
    42d4:	54 5f 33 32 	add.b	12851(r15),r4	;0x3233(r15)
    42d8:	20 28       	jnc	$+66     	;abs 0x431a
    42da:	57 44 54 50 	mov.b	20564(r4),r7	;0x5054(r4)
    42de:	57 2b       	jnc	$-336    	;abs 0x418e
    42e0:	57 44 54 43 	mov.b	17236(r4),r7	;0x4354(r4)
    42e4:	4e 54       	add.b	r4,	r14	
    42e6:	43 4c       	.word	0x4c43;	????	Illegal as 2-op instr
    42e8:	29 00       	.word	0x0029;	????	
    42ea:	01 a1       	dadd	r1,	r1	
    42ec:	07 57       	rla	r7		
    42ee:	44 54       	rla.b	r4		
    42f0:	5f 4d 52 53 	mov.b	21330(r13),r15	;0x5352(r13)
    42f4:	54 5f 38 20 	add.b	8248(r15),r4	;0x2038(r15)
    42f8:	28 57       	add	@r7,	r8	
    42fa:	44 54       	rla.b	r4		
    42fc:	50 57 2b 57 	add.b	22315(r7),r0	;0x572b(r7)
    4300:	44 54       	rla.b	r4		
    4302:	43 4e       	.word	0x4e43;	????	Illegal as 2-op instr
    4304:	54 43       	mov.b	#1,	r4	;r3 As==01
    4306:	4c 2b       	jnc	$-358    	;abs 0x41a0
    4308:	57 44 54 49 	mov.b	18772(r4),r7	;0x4954(r4)
    430c:	53 30       	jn	$+168    	;abs 0x43b4
    430e:	29 00       	.word	0x0029;	????	
    4310:	01 a2       	dadd	r2,	r1	
    4312:	07 57       	rla	r7		
    4314:	44 54       	rla.b	r4		
    4316:	5f 4d 52 53 	mov.b	21330(r13),r15	;0x5352(r13)
    431a:	54 5f 30 5f 	add.b	24368(r15),r4	;0x5f30(r15)
    431e:	35 20       	jnz	$+108    	;abs 0x438a
    4320:	28 57       	add	@r7,	r8	
    4322:	44 54       	rla.b	r4		
    4324:	50 57 2b 57 	add.b	22315(r7),r0	;0x572b(r7)
    4328:	44 54       	rla.b	r4		
    432a:	43 4e       	.word	0x4e43;	????	Illegal as 2-op instr
    432c:	54 43       	mov.b	#1,	r4	;r3 As==01
    432e:	4c 2b       	jnc	$-358    	;abs 0x41c8
    4330:	57 44 54 49 	mov.b	18772(r4),r7	;0x4954(r4)
    4334:	53 31       	jn	$+680    	;abs 0x45dc
    4336:	29 00       	.word	0x0029;	????	
    4338:	01 a3       	dadc	r1		
    433a:	07 57       	rla	r7		
    433c:	44 54       	rla.b	r4		
    433e:	5f 4d 52 53 	mov.b	21330(r13),r15	;0x5352(r13)
    4342:	54 5f 30 5f 	add.b	24368(r15),r4	;0x5f30(r15)
    4346:	30 36       	jge	$-926    	;abs 0x3fa8
    4348:	34 20       	jnz	$+106    	;abs 0x43b2
    434a:	28 57       	add	@r7,	r8	
    434c:	44 54       	rla.b	r4		
    434e:	50 57 2b 57 	add.b	22315(r7),r0	;0x572b(r7)
    4352:	44 54       	rla.b	r4		
    4354:	43 4e       	.word	0x4e43;	????	Illegal as 2-op instr
    4356:	54 43       	mov.b	#1,	r4	;r3 As==01
    4358:	4c 2b       	jnc	$-358    	;abs 0x41f2
    435a:	57 44 54 49 	mov.b	18772(r4),r7	;0x4954(r4)
    435e:	53 31       	jn	$+680    	;abs 0x4606
    4360:	2b 57       	add	@r7,	r11	
    4362:	44 54       	rla.b	r4		
    4364:	49 53       	add.b	#0,	r9	;r3 As==00
    4366:	30 29       	jnc	$+610    	;abs 0x45c8
    4368:	00 01       	.word	0x0100;	????	
    436a:	a5 07       	.word	0x07a5;	????	
    436c:	57 44 54 5f 	mov.b	24404(r4),r7	;0x5f54(r4)
    4370:	41 52       	add.b	r2,	r1	
    4372:	53 54       	.word	0x5453;	????	Illegal as 2-op instr
    4374:	5f 31       	jn	$+704    	;abs 0x4634
    4376:	30 30       	jn	$+98     	;abs 0x43d8
    4378:	30 20       	jnz	$+98     	;abs 0x43da
    437a:	28 57       	add	@r7,	r8	
    437c:	44 54       	rla.b	r4		
    437e:	50 57 2b 57 	add.b	22315(r7),r0	;0x572b(r7)
    4382:	44 54       	rla.b	r4		
    4384:	43 4e       	.word	0x4e43;	????	Illegal as 2-op instr
    4386:	54 43       	mov.b	#1,	r4	;r3 As==01
    4388:	4c 2b       	jnc	$-358    	;abs 0x4222
    438a:	57 44 54 53 	mov.b	21332(r4),r7	;0x5354(r4)
    438e:	53 45       	.word	0x4553;	????	Illegal as 2-op instr
    4390:	4c 29       	jnc	$+666    	;abs 0x462a
    4392:	00 01       	.word	0x0100;	????	
    4394:	a6 07       	.word	0x07a6;	????	
    4396:	57 44 54 5f 	mov.b	24404(r4),r7	;0x5f54(r4)
    439a:	41 52       	add.b	r2,	r1	
    439c:	53 54       	.word	0x5453;	????	Illegal as 2-op instr
    439e:	5f 32       	jn	$-832    	;abs 0x405e
    43a0:	35 30       	jn	$+108    	;abs 0x440c
    43a2:	20 28       	jnc	$+66     	;abs 0x43e4
    43a4:	57 44 54 50 	mov.b	20564(r4),r7	;0x5054(r4)
    43a8:	57 2b       	jnc	$-336    	;abs 0x4258
    43aa:	57 44 54 43 	mov.b	17236(r4),r7	;0x4354(r4)
    43ae:	4e 54       	add.b	r4,	r14	
    43b0:	43 4c       	.word	0x4c43;	????	Illegal as 2-op instr
    43b2:	2b 57       	add	@r7,	r11	
    43b4:	44 54       	rla.b	r4		
    43b6:	53 53       	inc.b	#0		;r3 As==00
    43b8:	45 4c       	mov.b	r12,	r5	
    43ba:	2b 57       	add	@r7,	r11	
    43bc:	44 54       	rla.b	r4		
    43be:	49 53       	add.b	#0,	r9	;r3 As==00
    43c0:	30 29       	jnc	$+610    	;abs 0x4622
    43c2:	00 01       	.word	0x0100;	????	
    43c4:	a7 07       	.word	0x07a7;	????	
    43c6:	57 44 54 5f 	mov.b	24404(r4),r7	;0x5f54(r4)
    43ca:	41 52       	add.b	r2,	r1	
    43cc:	53 54       	.word	0x5453;	????	Illegal as 2-op instr
    43ce:	5f 31       	jn	$+704    	;abs 0x468e
    43d0:	36 20       	jnz	$+110    	;abs 0x443e
    43d2:	28 57       	add	@r7,	r8	
    43d4:	44 54       	rla.b	r4		
    43d6:	50 57 2b 57 	add.b	22315(r7),r0	;0x572b(r7)
    43da:	44 54       	rla.b	r4		
    43dc:	43 4e       	.word	0x4e43;	????	Illegal as 2-op instr
    43de:	54 43       	mov.b	#1,	r4	;r3 As==01
    43e0:	4c 2b       	jnc	$-358    	;abs 0x427a
    43e2:	57 44 54 53 	mov.b	21332(r4),r7	;0x5354(r4)
    43e6:	53 45       	.word	0x4553;	????	Illegal as 2-op instr
    43e8:	4c 2b       	jnc	$-358    	;abs 0x4282
    43ea:	57 44 54 49 	mov.b	18772(r4),r7	;0x4954(r4)
    43ee:	53 31       	jn	$+680    	;abs 0x4696
    43f0:	29 00       	.word	0x0029;	????	
    43f2:	01 a8       	dadd	r8,	r1	
    43f4:	07 57       	rla	r7		
    43f6:	44 54       	rla.b	r4		
    43f8:	5f 41 52 53 	mov.b	21330(r1),r15	;0x5352(r1)
    43fc:	54 5f 31 5f 	add.b	24369(r15),r4	;0x5f31(r15)
    4400:	39 20       	jnz	$+116    	;abs 0x4474
    4402:	28 57       	add	@r7,	r8	
    4404:	44 54       	rla.b	r4		
    4406:	50 57 2b 57 	add.b	22315(r7),r0	;0x572b(r7)
    440a:	44 54       	rla.b	r4		
    440c:	43 4e       	.word	0x4e43;	????	Illegal as 2-op instr
    440e:	54 43       	mov.b	#1,	r4	;r3 As==01
    4410:	4c 2b       	jnc	$-358    	;abs 0x42aa
    4412:	57 44 54 53 	mov.b	21332(r4),r7	;0x5354(r4)
    4416:	53 45       	.word	0x4553;	????	Illegal as 2-op instr
    4418:	4c 2b       	jnc	$-358    	;abs 0x42b2
    441a:	57 44 54 49 	mov.b	18772(r4),r7	;0x4954(r4)
    441e:	53 31       	jn	$+680    	;abs 0x46c6
    4420:	2b 57       	add	@r7,	r11	
    4422:	44 54       	rla.b	r4		
    4424:	49 53       	add.b	#0,	r9	;r3 As==00
    4426:	30 29       	jnc	$+610    	;abs 0x4688
    4428:	00 01       	.word	0x0100;	????	
    442a:	b5 07       	.word	0x07b5;	????	
    442c:	43 41       	.word	0x4143;	????	Illegal as 2-op instr
    442e:	4c 44       	mov.b	r4,	r12	
    4430:	43 4f       	.word	0x4f43;	????	Illegal as 2-op instr
    4432:	5f 31       	jn	$+704    	;abs 0x46f2
    4434:	36 4d       	mov	@r13+,	r6	
    4436:	48 5a       	add.b	r10,	r8	
    4438:	5f 20       	jnz	$+192    	;abs 0x44f8
    443a:	30 78       	subc	@r8+,	r0	
    443c:	31 30       	jn	$+100    	;abs 0x44a0
    443e:	46 38       	jl	$+142    	;abs 0x44cc
    4440:	00 01       	.word	0x0100;	????	
    4442:	b7 07       	.word	0x07b7;	????	
    4444:	43 41       	.word	0x4143;	????	Illegal as 2-op instr
    4446:	4c 42       	mov.b	r2,	r12	
    4448:	43 31       	jn	$+648    	;abs 0x46d0
    444a:	5f 31       	jn	$+704    	;abs 0x470a
    444c:	36 4d       	mov	@r13+,	r6	
    444e:	48 5a       	add.b	r10,	r8	
    4450:	5f 20       	jnz	$+192    	;abs 0x4510
    4452:	30 78       	subc	@r8+,	r0	
    4454:	31 30       	jn	$+100    	;abs 0x44b8
    4456:	46 39       	jl	$+654    	;abs 0x46e4
    4458:	00 01       	.word	0x0100;	????	
    445a:	b9 07       	.word	0x07b9;	????	
    445c:	43 41       	.word	0x4143;	????	Illegal as 2-op instr
    445e:	4c 44       	mov.b	r4,	r12	
    4460:	43 4f       	.word	0x4f43;	????	Illegal as 2-op instr
    4462:	5f 31       	jn	$+704    	;abs 0x4722
    4464:	32 4d       	mov	@r13+,	r2	
    4466:	48 5a       	add.b	r10,	r8	
    4468:	5f 20       	jnz	$+192    	;abs 0x4528
    446a:	30 78       	subc	@r8+,	r0	
    446c:	31 30       	jn	$+100    	;abs 0x44d0
    446e:	46 41       	mov.b	r1,	r6	
    4470:	00 01       	.word	0x0100;	????	
    4472:	bb 07       	.word	0x07bb;	????	
    4474:	43 41       	.word	0x4143;	????	Illegal as 2-op instr
    4476:	4c 42       	mov.b	r2,	r12	
    4478:	43 31       	jn	$+648    	;abs 0x4700
    447a:	5f 31       	jn	$+704    	;abs 0x473a
    447c:	32 4d       	mov	@r13+,	r2	
    447e:	48 5a       	add.b	r10,	r8	
    4480:	5f 20       	jnz	$+192    	;abs 0x4540
    4482:	30 78       	subc	@r8+,	r0	
    4484:	31 30       	jn	$+100    	;abs 0x44e8
    4486:	46 42       	mov.b	r2,	r6	
    4488:	00 01       	.word	0x0100;	????	
    448a:	bd 07       	.word	0x07bd;	????	
    448c:	43 41       	.word	0x4143;	????	Illegal as 2-op instr
    448e:	4c 44       	mov.b	r4,	r12	
    4490:	43 4f       	.word	0x4f43;	????	Illegal as 2-op instr
    4492:	5f 38       	jl	$+192    	;abs 0x4552
    4494:	4d 48       	mov.b	r8,	r13	
    4496:	5a 5f 20 30 	add.b	12320(r15),r10	;0x3020(r15)
    449a:	78 31       	jn	$+754    	;abs 0x478c
    449c:	30 46       	br	@r6+		
    449e:	43 00       	.word	0x0043;	????	
    44a0:	01 bf       	bit	r15,	r1	
    44a2:	07 43       	clr	r7		
    44a4:	41 4c       	mov.b	r12,	r1	
    44a6:	42 43       	clr.b	r2		
    44a8:	31 5f       	add	@r15+,	r1	
    44aa:	38 4d       	mov	@r13+,	r8	
    44ac:	48 5a       	add.b	r10,	r8	
    44ae:	5f 20       	jnz	$+192    	;abs 0x456e
    44b0:	30 78       	subc	@r8+,	r0	
    44b2:	31 30       	jn	$+100    	;abs 0x4516
    44b4:	46 44       	mov.b	r4,	r6	
    44b6:	00 01       	.word	0x0100;	????	
    44b8:	c1 07       	.word	0x07c1;	????	
    44ba:	43 41       	.word	0x4143;	????	Illegal as 2-op instr
    44bc:	4c 44       	mov.b	r4,	r12	
    44be:	43 4f       	.word	0x4f43;	????	Illegal as 2-op instr
    44c0:	5f 31       	jn	$+704    	;abs 0x4780
    44c2:	4d 48       	mov.b	r8,	r13	
    44c4:	5a 5f 20 30 	add.b	12320(r15),r10	;0x3020(r15)
    44c8:	78 31       	jn	$+754    	;abs 0x47ba
    44ca:	30 46       	br	@r6+		
    44cc:	45 00       	.word	0x0045;	????	
    44ce:	01 c3       	bic	#0,	r1	;r3 As==00
    44d0:	07 43       	clr	r7		
    44d2:	41 4c       	mov.b	r12,	r1	
    44d4:	42 43       	clr.b	r2		
    44d6:	31 5f       	add	@r15+,	r1	
    44d8:	31 4d       	mov	@r13+,	r1	
    44da:	48 5a       	add.b	r10,	r8	
    44dc:	5f 20       	jnz	$+192    	;abs 0x459c
    44de:	30 78       	subc	@r8+,	r0	
    44e0:	31 30       	jn	$+100    	;abs 0x4544
    44e2:	46 46       	mov.b	r6,	r6	
    44e4:	00 01       	.word	0x0100;	????	
    44e6:	cd 07       	.word	0x07cd;	????	
    44e8:	50 4f 52 54 	br	21586(r15)	;0x5452(r15)
    44ec:	31 5f       	add	@r15+,	r1	
    44ee:	56 45 43 54 	mov.b	21571(r5),r6	;0x5443(r5)
    44f2:	4f 52       	add.b	r2,	r15	
    44f4:	20 28       	jnc	$+66     	;abs 0x4536
    44f6:	30 78       	subc	@r8+,	r0	
    44f8:	30 30       	jn	$+98     	;abs 0x455a
    44fa:	30 34       	jge	$+98     	;abs 0x455c
    44fc:	29 00       	.word	0x0029;	????	
    44fe:	01 ce       	bic	r14,	r1	
    4500:	07 50       	add	r0,	r7	
    4502:	4f 52       	add.b	r2,	r15	
    4504:	54 32       	jn	$-854    	;abs 0x41ae
    4506:	5f 56 45 43 	add.b	17221(r6),r15	;0x4345(r6)
    450a:	54 4f 52 20 	mov.b	8274(r15),r4	;0x2052(r15)
    450e:	28 30       	jn	$+82     	;abs 0x4560
    4510:	78 30       	jn	$+242    	;abs 0x4602
    4512:	30 30       	jn	$+98     	;abs 0x4574
    4514:	36 29       	jnc	$+622    	;abs 0x4782
    4516:	00 01       	.word	0x0100;	????	
    4518:	cf 07       	.word	0x07cf;	????	
    451a:	41 44       	mov.b	r4,	r1	
    451c:	43 31       	jn	$+648    	;abs 0x47a4
    451e:	30 5f       	add	@r15+,	r0	
    4520:	56 45 43 54 	mov.b	21571(r5),r6	;0x5443(r5)
    4524:	4f 52       	add.b	r2,	r15	
    4526:	20 28       	jnc	$+66     	;abs 0x4568
    4528:	30 78       	subc	@r8+,	r0	
    452a:	30 30       	jn	$+98     	;abs 0x458c
    452c:	30 41       	ret			
    452e:	29 00       	.word	0x0029;	????	
    4530:	01 d0       	bis	r0,	r1	
    4532:	07 55       	add	r5,	r7	
    4534:	53 43       	.word	0x4353;	????	Illegal as 2-op instr
    4536:	49 41       	mov.b	r1,	r9	
    4538:	42 30       	jn	$+134    	;abs 0x45be
    453a:	54 58 5f 56 	add.b	22111(r8),r4	;0x565f(r8)
    453e:	45 43       	clr.b	r5		
    4540:	54 4f 52 20 	mov.b	8274(r15),r4	;0x2052(r15)
    4544:	28 30       	jn	$+82     	;abs 0x4596
    4546:	78 30       	jn	$+242    	;abs 0x4638
    4548:	30 30       	jn	$+98     	;abs 0x45aa
    454a:	43 29       	jnc	$+648    	;abs 0x47d2
    454c:	00 01       	.word	0x0100;	????	
    454e:	d1 07       	.word	0x07d1;	????	
    4550:	55 53       	inc.b	r5		
    4552:	43 49       	.word	0x4943;	????	Illegal as 2-op instr
    4554:	41 42       	mov.b	r2,	r1	
    4556:	30 52       	add	#8,	r0	;r2 As==11
    4558:	58 5f 56 45 	add.b	17750(r15),r8	;0x4556(r15)
    455c:	43 54       	.word	0x5443;	????	Illegal as 2-op instr
    455e:	4f 52       	add.b	r2,	r15	
    4560:	20 28       	jnc	$+66     	;abs 0x45a2
    4562:	30 78       	subc	@r8+,	r0	
    4564:	30 30       	jn	$+98     	;abs 0x45c6
    4566:	30 45       	br	@r5+		
    4568:	29 00       	.word	0x0029;	????	
    456a:	01 d2       	bis	r2,	r1	
    456c:	07 54       	add	r4,	r7	
    456e:	49 4d       	mov.b	r13,	r9	
    4570:	45 52       	add.b	r2,	r5	
    4572:	30 5f       	add	@r15+,	r0	
    4574:	41 31       	jn	$+644    	;abs 0x47f8
    4576:	5f 56 45 43 	add.b	17221(r6),r15	;0x4345(r6)
    457a:	54 4f 52 20 	mov.b	8274(r15),r4	;0x2052(r15)
    457e:	28 30       	jn	$+82     	;abs 0x45d0
    4580:	78 30       	jn	$+242    	;abs 0x4672
    4582:	30 31       	jn	$+610    	;abs 0x47e4
    4584:	30 29       	jnc	$+610    	;abs 0x47e6
    4586:	00 01       	.word	0x0100;	????	
    4588:	d3 07       	.word	0x07d3;	????	
    458a:	54 49 4d 45 	mov.b	17741(r9),r4	;0x454d(r9)
    458e:	52 30       	jn	$+166    	;abs 0x4634
    4590:	5f 41 30 5f 	mov.b	24368(r1),r15	;0x5f30(r1)
    4594:	56 45 43 54 	mov.b	21571(r5),r6	;0x5443(r5)
    4598:	4f 52       	add.b	r2,	r15	
    459a:	20 28       	jnc	$+66     	;abs 0x45dc
    459c:	30 78       	subc	@r8+,	r0	
    459e:	30 30       	jn	$+98     	;abs 0x4600
    45a0:	31 32       	jn	$-924    	;abs 0x4204
    45a2:	29 00       	.word	0x0029;	????	
    45a4:	01 d4       	bis	r4,	r1	
    45a6:	07 57       	rla	r7		
    45a8:	44 54       	rla.b	r4		
    45aa:	5f 56 45 43 	add.b	17221(r6),r15	;0x4345(r6)
    45ae:	54 4f 52 20 	mov.b	8274(r15),r4	;0x2052(r15)
    45b2:	28 30       	jn	$+82     	;abs 0x4604
    45b4:	78 30       	jn	$+242    	;abs 0x46a6
    45b6:	30 31       	jn	$+610    	;abs 0x4818
    45b8:	34 29       	jnc	$+618    	;abs 0x4822
    45ba:	00 01       	.word	0x0100;	????	
    45bc:	d5 07       	.word	0x07d5;	????	
    45be:	43 4f       	.word	0x4f43;	????	Illegal as 2-op instr
    45c0:	4d 50       	add.b	r0,	r13	
    45c2:	41 52       	add.b	r2,	r1	
    45c4:	41 54       	add.b	r4,	r1	
    45c6:	4f 52       	add.b	r2,	r15	
    45c8:	41 5f       	add.b	r15,	r1	
    45ca:	56 45 43 54 	mov.b	21571(r5),r6	;0x5443(r5)
    45ce:	4f 52       	add.b	r2,	r15	
    45d0:	20 28       	jnc	$+66     	;abs 0x4612
    45d2:	30 78       	subc	@r8+,	r0	
    45d4:	30 30       	jn	$+98     	;abs 0x4636
    45d6:	31 36       	jge	$-924    	;abs 0x423a
    45d8:	29 00       	.word	0x0029;	????	
    45da:	01 d6       	bis	r6,	r1	
    45dc:	07 54       	add	r4,	r7	
    45de:	49 4d       	mov.b	r13,	r9	
    45e0:	45 52       	add.b	r2,	r5	
    45e2:	31 5f       	add	@r15+,	r1	
    45e4:	41 31       	jn	$+644    	;abs 0x4868
    45e6:	5f 56 45 43 	add.b	17221(r6),r15	;0x4345(r6)
    45ea:	54 4f 52 20 	mov.b	8274(r15),r4	;0x2052(r15)
    45ee:	28 30       	jn	$+82     	;abs 0x4640
    45f0:	78 30       	jn	$+242    	;abs 0x46e2
    45f2:	30 31       	jn	$+610    	;abs 0x4854
    45f4:	38 29       	jnc	$+626    	;abs 0x4866
    45f6:	00 01       	.word	0x0100;	????	
    45f8:	d7 07       	.word	0x07d7;	????	
    45fa:	54 49 4d 45 	mov.b	17741(r9),r4	;0x454d(r9)
    45fe:	52 31       	jn	$+678    	;abs 0x48a4
    4600:	5f 41 30 5f 	mov.b	24368(r1),r15	;0x5f30(r1)
    4604:	56 45 43 54 	mov.b	21571(r5),r6	;0x5443(r5)
    4608:	4f 52       	add.b	r2,	r15	
    460a:	20 28       	jnc	$+66     	;abs 0x464c
    460c:	30 78       	subc	@r8+,	r0	
    460e:	30 30       	jn	$+98     	;abs 0x4670
    4610:	31 41       	pop	r1		
    4612:	29 00       	.word	0x0029;	????	
    4614:	01 d8       	bis	r8,	r1	
    4616:	07 4e       	mov	r14,	r7	
    4618:	4d 49       	mov.b	r9,	r13	
    461a:	5f 56 45 43 	add.b	17221(r6),r15	;0x4345(r6)
    461e:	54 4f 52 20 	mov.b	8274(r15),r4	;0x2052(r15)
    4622:	28 30       	jn	$+82     	;abs 0x4674
    4624:	78 30       	jn	$+242    	;abs 0x4716
    4626:	30 31       	jn	$+610    	;abs 0x4888
    4628:	43 29       	jnc	$+648    	;abs 0x48b0
    462a:	00 01       	.word	0x0100;	????	
    462c:	d9 07       	.word	0x07d9;	????	
    462e:	52 45 53 45 	mov.b	17747(r5),r2	;0x4553(r5)
    4632:	54 5f 56 45 	add.b	17750(r15),r4	;0x4556(r15)
    4636:	43 54       	.word	0x5443;	????	Illegal as 2-op instr
    4638:	4f 52       	add.b	r2,	r15	
    463a:	20 28       	jnc	$+66     	;abs 0x467c
    463c:	30 78       	subc	@r8+,	r0	
    463e:	30 30       	jn	$+98     	;abs 0x46a0
    4640:	31 45       	mov	@r5+,	r1	
    4642:	29 00       	.word	0x0029;	????	
    4644:	04 04       	.word	0x0404;	????	
    4646:	03 15       	.word	0x1503;	????	
    4648:	02 01       	.word	0x0102;	????	
    464a:	1e 5f 5f 53 	add	21343(r15),r14	;0x535f(r15)
    464e:	54 44 49 4e 	mov.b	20041(r4),r4	;0x4e49(r4)
    4652:	54 5f 48 5f 	add.b	24392(r15),r4	;0x5f48(r15)
    4656:	20 00       	.word	0x0020;	????	
    4658:	01 25       	jz	$+516    	;abs 0x485c
    465a:	5f 5f 69 6e 	add.b	28265(r15),r15	;0x6e69(r15)
    465e:	74 38       	jl	$+234    	;abs 0x4748
    4660:	5f 74 5f 64 	subc.b	25695(r4),r15	;0x645f(r4)
    4664:	65 66       	addc.b	@r6,	r5	
    4666:	69 6e       	addc.b	@r14,	r9	
    4668:	65 64       	addc.b	@r4,	r5	
    466a:	20 00       	.word	0x0020;	????	
    466c:	01 51       	rla	r1		
    466e:	5f 5f 69 6e 	add.b	28265(r15),r15	;0x6e69(r15)
    4672:	74 70 74 72 	subc.b	#29300,	r4	;#0x7274
    4676:	5f 74 5f 64 	subc.b	25695(r4),r15	;0x645f(r4)
    467a:	65 66       	addc.b	@r6,	r5	
    467c:	69 6e       	addc.b	@r14,	r9	
    467e:	65 64       	addc.b	@r4,	r5	
    4680:	20 00       	.word	0x0020;	????	
    4682:	01 68       	addc	r8,	r1	
    4684:	49 4e       	mov.b	r14,	r9	
    4686:	54 38       	jl	$+170    	;abs 0x4730
    4688:	5f 4d 41 58 	mov.b	22593(r13),r15	;0x5841(r13)
    468c:	20 31       	jn	$+578    	;abs 0x48ce
    468e:	32 37       	jge	$-410    	;abs 0x44f4
    4690:	00 01       	.word	0x0100;	????	
    4692:	69 49       	mov.b	@r9,	r9	
    4694:	4e 54       	add.b	r4,	r14	
    4696:	31 36       	jge	$-924    	;abs 0x42fa
    4698:	5f 4d 41 58 	mov.b	22593(r13),r15	;0x5841(r13)
    469c:	20 33       	jn	$-446    	;abs 0x44de
    469e:	32 37       	jge	$-410    	;abs 0x4504
    46a0:	36 37       	jge	$-402    	;abs 0x450e
    46a2:	00 01       	.word	0x0100;	????	
    46a4:	6a 49       	mov.b	@r9,	r10	
    46a6:	4e 54       	add.b	r4,	r14	
    46a8:	33 32       	jn	$-920    	;abs 0x4310
    46aa:	5f 4d 41 58 	mov.b	22593(r13),r15	;0x5841(r13)
    46ae:	20 32       	jn	$-958    	;abs 0x42f0
    46b0:	31 34       	jge	$+100    	;abs 0x4714
    46b2:	37 34       	jge	$+112    	;abs 0x4722
    46b4:	38 33       	jn	$-398    	;abs 0x4526
    46b6:	36 34       	jge	$+110    	;abs 0x4724
    46b8:	37 4c       	mov	@r12+,	r7	
    46ba:	00 01       	.word	0x0100;	????	
    46bc:	6b 49       	mov.b	@r9,	r11	
    46be:	4e 54       	add.b	r4,	r14	
    46c0:	36 34       	jge	$+110    	;abs 0x472e
    46c2:	5f 4d 41 58 	mov.b	22593(r13),r15	;0x5841(r13)
    46c6:	20 39       	jl	$+578    	;abs 0x4908
    46c8:	32 32       	jn	$-922    	;abs 0x432e
    46ca:	33 33       	jn	$-408    	;abs 0x4532
    46cc:	37 32       	jn	$-912    	;abs 0x433c
    46ce:	30 33       	jn	$-414    	;abs 0x4530
    46d0:	36 38       	jl	$+110    	;abs 0x473e
    46d2:	35 34       	jge	$+108    	;abs 0x473e
    46d4:	37 37       	jge	$-400    	;abs 0x4544
    46d6:	35 38       	jl	$+108    	;abs 0x4742
    46d8:	30 37       	jge	$-414    	;abs 0x453a
    46da:	4c 4c       	mov.b	r12,	r12	
    46dc:	00 01       	.word	0x0100;	????	
    46de:	6e 49       	mov.b	@r9,	r14	
    46e0:	4e 54       	add.b	r4,	r14	
    46e2:	38 5f       	add	@r15+,	r8	
    46e4:	4d 49       	mov.b	r9,	r13	
    46e6:	4e 20       	jnz	$+158    	;abs 0x4784
    46e8:	28 2d       	jc	$+594    	;abs 0x493a
    46ea:	49 4e       	mov.b	r14,	r9	
    46ec:	54 38       	jl	$+170    	;abs 0x4796
    46ee:	5f 4d 41 58 	mov.b	22593(r13),r15	;0x5841(r13)
    46f2:	20 2d       	jc	$+578    	;abs 0x4934
    46f4:	20 31       	jn	$+578    	;abs 0x4936
    46f6:	29 00       	.word	0x0029;	????	
    46f8:	01 6f       	addc	r15,	r1	
    46fa:	49 4e       	mov.b	r14,	r9	
    46fc:	54 31       	jn	$+682    	;abs 0x49a6
    46fe:	36 5f       	add	@r15+,	r6	
    4700:	4d 49       	mov.b	r9,	r13	
    4702:	4e 20       	jnz	$+158    	;abs 0x47a0
    4704:	28 2d       	jc	$+594    	;abs 0x4956
    4706:	49 4e       	mov.b	r14,	r9	
    4708:	54 31       	jn	$+682    	;abs 0x49b2
    470a:	36 5f       	add	@r15+,	r6	
    470c:	4d 41       	mov.b	r1,	r13	
    470e:	58 20       	jnz	$+178    	;abs 0x47c0
    4710:	2d 20       	jnz	$+92     	;abs 0x476c
    4712:	31 29       	jnc	$+612    	;abs 0x4976
    4714:	00 01       	.word	0x0100;	????	
    4716:	70 49       	br	@r9+		
    4718:	4e 54       	add.b	r4,	r14	
    471a:	33 32       	jn	$-920    	;abs 0x4382
    471c:	5f 4d 49 4e 	mov.b	20041(r13),r15	;0x4e49(r13)
    4720:	20 28       	jnc	$+66     	;abs 0x4762
    4722:	2d 49       	mov	@r9,	r13	
    4724:	4e 54       	add.b	r4,	r14	
    4726:	33 32       	jn	$-920    	;abs 0x438e
    4728:	5f 4d 41 58 	mov.b	22593(r13),r15	;0x5841(r13)
    472c:	20 2d       	jc	$+578    	;abs 0x496e
    472e:	20 31       	jn	$+578    	;abs 0x4970
    4730:	29 00       	.word	0x0029;	????	
    4732:	01 71       	subc	r1,	r1	
    4734:	49 4e       	mov.b	r14,	r9	
    4736:	54 36       	jge	$-854    	;abs 0x43e0
    4738:	34 5f       	add	@r15+,	r4	
    473a:	4d 49       	mov.b	r9,	r13	
    473c:	4e 20       	jnz	$+158    	;abs 0x47da
    473e:	28 2d       	jc	$+594    	;abs 0x4990
    4740:	49 4e       	mov.b	r14,	r9	
    4742:	54 36       	jge	$-854    	;abs 0x43ec
    4744:	34 5f       	add	@r15+,	r4	
    4746:	4d 41       	mov.b	r1,	r13	
    4748:	58 20       	jnz	$+178    	;abs 0x47fa
    474a:	2d 20       	jnz	$+92     	;abs 0x47a6
    474c:	31 29       	jnc	$+612    	;abs 0x49b0
    474e:	00 01       	.word	0x0100;	????	
    4750:	74 55       	add.b	@r5+,	r4	
    4752:	49 4e       	mov.b	r14,	r9	
    4754:	54 38       	jl	$+170    	;abs 0x47fe
    4756:	5f 4d 41 58 	mov.b	22593(r13),r15	;0x5841(r13)
    475a:	20 32       	jn	$-958    	;abs 0x439c
    475c:	35 35       	jge	$+620    	;abs 0x49c8
    475e:	55 00       	.word	0x0055;	????	
    4760:	01 75       	subc	r5,	r1	
    4762:	55 49 4e 54 	mov.b	21582(r9),r5	;0x544e(r9)
    4766:	31 36       	jge	$-924    	;abs 0x43ca
    4768:	5f 4d 41 58 	mov.b	22593(r13),r15	;0x5841(r13)
    476c:	20 36       	jge	$-958    	;abs 0x43ae
    476e:	35 35       	jge	$+620    	;abs 0x49da
    4770:	33 35       	jge	$+616    	;abs 0x49d8
    4772:	55 00       	.word	0x0055;	????	
    4774:	01 76       	subc	r6,	r1	
    4776:	55 49 4e 54 	mov.b	21582(r9),r5	;0x544e(r9)
    477a:	33 32       	jn	$-920    	;abs 0x43e2
    477c:	5f 4d 41 58 	mov.b	22593(r13),r15	;0x5841(r13)
    4780:	20 34       	jge	$+66     	;abs 0x47c2
    4782:	32 39       	jl	$+614    	;abs 0x49e8
    4784:	34 39       	jl	$+618    	;abs 0x49ee
    4786:	36 37       	jge	$-402    	;abs 0x45f4
    4788:	32 39       	jl	$+614    	;abs 0x49ee
    478a:	35 55       	add	@r5+,	r5	
    478c:	4c 00       	.word	0x004c;	????	
    478e:	01 77       	subc	r7,	r1	
    4790:	55 49 4e 54 	mov.b	21582(r9),r5	;0x544e(r9)
    4794:	36 34       	jge	$+110    	;abs 0x4802
    4796:	5f 4d 41 58 	mov.b	22593(r13),r15	;0x5841(r13)
    479a:	20 31       	jn	$+578    	;abs 0x49dc
    479c:	38 34       	jge	$+114    	;abs 0x480e
    479e:	34 36       	jge	$-918    	;abs 0x4408
    47a0:	37 34       	jge	$+112    	;abs 0x4810
    47a2:	34 30       	jn	$+106    	;abs 0x480c
    47a4:	37 33       	jn	$-400    	;abs 0x4614
    47a6:	37 30       	jn	$+112    	;abs 0x4816
    47a8:	39 35       	jge	$+628    	;abs 0x4a1c
    47aa:	35 31       	jn	$+620    	;abs 0x4a16
    47ac:	36 31       	jn	$+622    	;abs 0x4a1a
    47ae:	35 55       	add	@r5+,	r5	
    47b0:	4c 4c       	mov.b	r12,	r12	
    47b2:	00 01       	.word	0x0100;	????	
    47b4:	7b 49       	mov.b	@r9+,	r11	
    47b6:	4e 54       	add.b	r4,	r14	
    47b8:	5f 4c 45 41 	mov.b	16709(r12),r15	;0x4145(r12)
    47bc:	53 54       	.word	0x5453;	????	Illegal as 2-op instr
    47be:	38 5f       	add	@r15+,	r8	
    47c0:	4d 49       	mov.b	r9,	r13	
    47c2:	4e 20       	jnz	$+158    	;abs 0x4860
    47c4:	49 4e       	mov.b	r14,	r9	
    47c6:	54 38       	jl	$+170    	;abs 0x4870
    47c8:	5f 4d 49 4e 	mov.b	20041(r13),r15	;0x4e49(r13)
    47cc:	00 01       	.word	0x0100;	????	
    47ce:	7c 49       	mov.b	@r9+,	r12	
    47d0:	4e 54       	add.b	r4,	r14	
    47d2:	5f 4c 45 41 	mov.b	16709(r12),r15	;0x4145(r12)
    47d6:	53 54       	.word	0x5453;	????	Illegal as 2-op instr
    47d8:	31 36       	jge	$-924    	;abs 0x443c
    47da:	5f 4d 49 4e 	mov.b	20041(r13),r15	;0x4e49(r13)
    47de:	20 49       	br	@r9		
    47e0:	4e 54       	add.b	r4,	r14	
    47e2:	31 36       	jge	$-924    	;abs 0x4446
    47e4:	5f 4d 49 4e 	mov.b	20041(r13),r15	;0x4e49(r13)
    47e8:	00 01       	.word	0x0100;	????	
    47ea:	7d 49       	mov.b	@r9+,	r13	
    47ec:	4e 54       	add.b	r4,	r14	
    47ee:	5f 4c 45 41 	mov.b	16709(r12),r15	;0x4145(r12)
    47f2:	53 54       	.word	0x5453;	????	Illegal as 2-op instr
    47f4:	33 32       	jn	$-920    	;abs 0x445c
    47f6:	5f 4d 49 4e 	mov.b	20041(r13),r15	;0x4e49(r13)
    47fa:	20 49       	br	@r9		
    47fc:	4e 54       	add.b	r4,	r14	
    47fe:	33 32       	jn	$-920    	;abs 0x4466
    4800:	5f 4d 49 4e 	mov.b	20041(r13),r15	;0x4e49(r13)
    4804:	00 01       	.word	0x0100;	????	
    4806:	7e 49       	mov.b	@r9+,	r14	
    4808:	4e 54       	add.b	r4,	r14	
    480a:	5f 4c 45 41 	mov.b	16709(r12),r15	;0x4145(r12)
    480e:	53 54       	.word	0x5453;	????	Illegal as 2-op instr
    4810:	36 34       	jge	$+110    	;abs 0x487e
    4812:	5f 4d 49 4e 	mov.b	20041(r13),r15	;0x4e49(r13)
    4816:	20 49       	br	@r9		
    4818:	4e 54       	add.b	r4,	r14	
    481a:	36 34       	jge	$+110    	;abs 0x4888
    481c:	5f 4d 49 4e 	mov.b	20041(r13),r15	;0x4e49(r13)
    4820:	00 01       	.word	0x0100;	????	
    4822:	80 01       	.word	0x0180;	????	
    4824:	49 4e       	mov.b	r14,	r9	
    4826:	54 5f 4c 45 	add.b	17740(r15),r4	;0x454c(r15)
    482a:	41 53       	add.b	#0,	r1	;r3 As==00
    482c:	54 38       	jl	$+170    	;abs 0x48d6
    482e:	5f 4d 41 58 	mov.b	22593(r13),r15	;0x5841(r13)
    4832:	20 49       	br	@r9		
    4834:	4e 54       	add.b	r4,	r14	
    4836:	38 5f       	add	@r15+,	r8	
    4838:	4d 41       	mov.b	r1,	r13	
    483a:	58 00       	.word	0x0058;	????	
    483c:	01 81       	sub	r1,	r1	
    483e:	01 49       	mov	r9,	r1	
    4840:	4e 54       	add.b	r4,	r14	
    4842:	5f 4c 45 41 	mov.b	16709(r12),r15	;0x4145(r12)
    4846:	53 54       	.word	0x5453;	????	Illegal as 2-op instr
    4848:	31 36       	jge	$-924    	;abs 0x44ac
    484a:	5f 4d 41 58 	mov.b	22593(r13),r15	;0x5841(r13)
    484e:	20 49       	br	@r9		
    4850:	4e 54       	add.b	r4,	r14	
    4852:	31 36       	jge	$-924    	;abs 0x44b6
    4854:	5f 4d 41 58 	mov.b	22593(r13),r15	;0x5841(r13)
    4858:	00 01       	.word	0x0100;	????	
    485a:	82 01       	.word	0x0182;	????	
    485c:	49 4e       	mov.b	r14,	r9	
    485e:	54 5f 4c 45 	add.b	17740(r15),r4	;0x454c(r15)
    4862:	41 53       	add.b	#0,	r1	;r3 As==00
    4864:	54 33       	jn	$-342    	;abs 0x470e
    4866:	32 5f       	add	@r15+,	r2	
    4868:	4d 41       	mov.b	r1,	r13	
    486a:	58 20       	jnz	$+178    	;abs 0x491c
    486c:	49 4e       	mov.b	r14,	r9	
    486e:	54 33       	jn	$-342    	;abs 0x4718
    4870:	32 5f       	add	@r15+,	r2	
    4872:	4d 41       	mov.b	r1,	r13	
    4874:	58 00       	.word	0x0058;	????	
    4876:	01 83       	sub	#0,	r1	;r3 As==00
    4878:	01 49       	mov	r9,	r1	
    487a:	4e 54       	add.b	r4,	r14	
    487c:	5f 4c 45 41 	mov.b	16709(r12),r15	;0x4145(r12)
    4880:	53 54       	.word	0x5453;	????	Illegal as 2-op instr
    4882:	36 34       	jge	$+110    	;abs 0x48f0
    4884:	5f 4d 41 58 	mov.b	22593(r13),r15	;0x5841(r13)
    4888:	20 49       	br	@r9		
    488a:	4e 54       	add.b	r4,	r14	
    488c:	36 34       	jge	$+110    	;abs 0x48fa
    488e:	5f 4d 41 58 	mov.b	22593(r13),r15	;0x5841(r13)
    4892:	00 01       	.word	0x0100;	????	
    4894:	86 01       	.word	0x0186;	????	
    4896:	55 49 4e 54 	mov.b	21582(r9),r5	;0x544e(r9)
    489a:	5f 4c 45 41 	mov.b	16709(r12),r15	;0x4145(r12)
    489e:	53 54       	.word	0x5453;	????	Illegal as 2-op instr
    48a0:	38 5f       	add	@r15+,	r8	
    48a2:	4d 41       	mov.b	r1,	r13	
    48a4:	58 20       	jnz	$+178    	;abs 0x4956
    48a6:	55 49 4e 54 	mov.b	21582(r9),r5	;0x544e(r9)
    48aa:	38 5f       	add	@r15+,	r8	
    48ac:	4d 41       	mov.b	r1,	r13	
    48ae:	58 00       	.word	0x0058;	????	
    48b0:	01 87       	sub	r7,	r1	
    48b2:	01 55       	add	r5,	r1	
    48b4:	49 4e       	mov.b	r14,	r9	
    48b6:	54 5f 4c 45 	add.b	17740(r15),r4	;0x454c(r15)
    48ba:	41 53       	add.b	#0,	r1	;r3 As==00
    48bc:	54 31       	jn	$+682    	;abs 0x4b66
    48be:	36 5f       	add	@r15+,	r6	
    48c0:	4d 41       	mov.b	r1,	r13	
    48c2:	58 20       	jnz	$+178    	;abs 0x4974
    48c4:	55 49 4e 54 	mov.b	21582(r9),r5	;0x544e(r9)
    48c8:	31 36       	jge	$-924    	;abs 0x452c
    48ca:	5f 4d 41 58 	mov.b	22593(r13),r15	;0x5841(r13)
    48ce:	00 01       	.word	0x0100;	????	
    48d0:	88 01       	.word	0x0188;	????	
    48d2:	55 49 4e 54 	mov.b	21582(r9),r5	;0x544e(r9)
    48d6:	5f 4c 45 41 	mov.b	16709(r12),r15	;0x4145(r12)
    48da:	53 54       	.word	0x5453;	????	Illegal as 2-op instr
    48dc:	33 32       	jn	$-920    	;abs 0x4544
    48de:	5f 4d 41 58 	mov.b	22593(r13),r15	;0x5841(r13)
    48e2:	20 55       	add	@r5,	r0	
    48e4:	49 4e       	mov.b	r14,	r9	
    48e6:	54 33       	jn	$-342    	;abs 0x4790
    48e8:	32 5f       	add	@r15+,	r2	
    48ea:	4d 41       	mov.b	r1,	r13	
    48ec:	58 00       	.word	0x0058;	????	
    48ee:	01 89       	sub	r9,	r1	
    48f0:	01 55       	add	r5,	r1	
    48f2:	49 4e       	mov.b	r14,	r9	
    48f4:	54 5f 4c 45 	add.b	17740(r15),r4	;0x454c(r15)
    48f8:	41 53       	add.b	#0,	r1	;r3 As==00
    48fa:	54 36       	jge	$-854    	;abs 0x45a4
    48fc:	34 5f       	add	@r15+,	r4	
    48fe:	4d 41       	mov.b	r1,	r13	
    4900:	58 20       	jnz	$+178    	;abs 0x49b2
    4902:	55 49 4e 54 	mov.b	21582(r9),r5	;0x544e(r9)
    4906:	36 34       	jge	$+110    	;abs 0x4974
    4908:	5f 4d 41 58 	mov.b	22593(r13),r15	;0x5841(r13)
    490c:	00 01       	.word	0x0100;	????	
    490e:	8d 01       	.word	0x018d;	????	
    4910:	49 4e       	mov.b	r14,	r9	
    4912:	54 5f 46 41 	add.b	16710(r15),r4	;0x4146(r15)
    4916:	53 54       	.word	0x5453;	????	Illegal as 2-op instr
    4918:	38 5f       	add	@r15+,	r8	
    491a:	4d 49       	mov.b	r9,	r13	
    491c:	4e 20       	jnz	$+158    	;abs 0x49ba
    491e:	49 4e       	mov.b	r14,	r9	
    4920:	54 38       	jl	$+170    	;abs 0x49ca
    4922:	5f 4d 49 4e 	mov.b	20041(r13),r15	;0x4e49(r13)
    4926:	00 01       	.word	0x0100;	????	
    4928:	8e 01       	.word	0x018e;	????	
    492a:	49 4e       	mov.b	r14,	r9	
    492c:	54 5f 46 41 	add.b	16710(r15),r4	;0x4146(r15)
    4930:	53 54       	.word	0x5453;	????	Illegal as 2-op instr
    4932:	31 36       	jge	$-924    	;abs 0x4596
    4934:	5f 4d 49 4e 	mov.b	20041(r13),r15	;0x4e49(r13)
    4938:	20 49       	br	@r9		
    493a:	4e 54       	add.b	r4,	r14	
    493c:	31 36       	jge	$-924    	;abs 0x45a0
    493e:	5f 4d 49 4e 	mov.b	20041(r13),r15	;0x4e49(r13)
    4942:	00 01       	.word	0x0100;	????	
    4944:	8f 01       	.word	0x018f;	????	
    4946:	49 4e       	mov.b	r14,	r9	
    4948:	54 5f 46 41 	add.b	16710(r15),r4	;0x4146(r15)
    494c:	53 54       	.word	0x5453;	????	Illegal as 2-op instr
    494e:	33 32       	jn	$-920    	;abs 0x45b6
    4950:	5f 4d 49 4e 	mov.b	20041(r13),r15	;0x4e49(r13)
    4954:	20 49       	br	@r9		
    4956:	4e 54       	add.b	r4,	r14	
    4958:	33 32       	jn	$-920    	;abs 0x45c0
    495a:	5f 4d 49 4e 	mov.b	20041(r13),r15	;0x4e49(r13)
    495e:	00 01       	.word	0x0100;	????	
    4960:	90 01       	.word	0x0190;	????	
    4962:	49 4e       	mov.b	r14,	r9	
    4964:	54 5f 46 41 	add.b	16710(r15),r4	;0x4146(r15)
    4968:	53 54       	.word	0x5453;	????	Illegal as 2-op instr
    496a:	36 34       	jge	$+110    	;abs 0x49d8
    496c:	5f 4d 49 4e 	mov.b	20041(r13),r15	;0x4e49(r13)
    4970:	20 49       	br	@r9		
    4972:	4e 54       	add.b	r4,	r14	
    4974:	36 34       	jge	$+110    	;abs 0x49e2
    4976:	5f 4d 49 4e 	mov.b	20041(r13),r15	;0x4e49(r13)
    497a:	00 01       	.word	0x0100;	????	
    497c:	92 01       	.word	0x0192;	????	
    497e:	49 4e       	mov.b	r14,	r9	
    4980:	54 5f 46 41 	add.b	16710(r15),r4	;0x4146(r15)
    4984:	53 54       	.word	0x5453;	????	Illegal as 2-op instr
    4986:	38 5f       	add	@r15+,	r8	
    4988:	4d 41       	mov.b	r1,	r13	
    498a:	58 20       	jnz	$+178    	;abs 0x4a3c
    498c:	49 4e       	mov.b	r14,	r9	
    498e:	54 38       	jl	$+170    	;abs 0x4a38
    4990:	5f 4d 41 58 	mov.b	22593(r13),r15	;0x5841(r13)
    4994:	00 01       	.word	0x0100;	????	
    4996:	93 01       	.word	0x0193;	????	
    4998:	49 4e       	mov.b	r14,	r9	
    499a:	54 5f 46 41 	add.b	16710(r15),r4	;0x4146(r15)
    499e:	53 54       	.word	0x5453;	????	Illegal as 2-op instr
    49a0:	31 36       	jge	$-924    	;abs 0x4604
    49a2:	5f 4d 41 58 	mov.b	22593(r13),r15	;0x5841(r13)
    49a6:	20 49       	br	@r9		
    49a8:	4e 54       	add.b	r4,	r14	
    49aa:	31 36       	jge	$-924    	;abs 0x460e
    49ac:	5f 4d 41 58 	mov.b	22593(r13),r15	;0x5841(r13)
    49b0:	00 01       	.word	0x0100;	????	
    49b2:	94 01       	.word	0x0194;	????	
    49b4:	49 4e       	mov.b	r14,	r9	
    49b6:	54 5f 46 41 	add.b	16710(r15),r4	;0x4146(r15)
    49ba:	53 54       	.word	0x5453;	????	Illegal as 2-op instr
    49bc:	33 32       	jn	$-920    	;abs 0x4624
    49be:	5f 4d 41 58 	mov.b	22593(r13),r15	;0x5841(r13)
    49c2:	20 49       	br	@r9		
    49c4:	4e 54       	add.b	r4,	r14	
    49c6:	33 32       	jn	$-920    	;abs 0x462e
    49c8:	5f 4d 41 58 	mov.b	22593(r13),r15	;0x5841(r13)
    49cc:	00 01       	.word	0x0100;	????	
    49ce:	95 01       	.word	0x0195;	????	
    49d0:	49 4e       	mov.b	r14,	r9	
    49d2:	54 5f 46 41 	add.b	16710(r15),r4	;0x4146(r15)
    49d6:	53 54       	.word	0x5453;	????	Illegal as 2-op instr
    49d8:	36 34       	jge	$+110    	;abs 0x4a46
    49da:	5f 4d 41 58 	mov.b	22593(r13),r15	;0x5841(r13)
    49de:	20 49       	br	@r9		
    49e0:	4e 54       	add.b	r4,	r14	
    49e2:	36 34       	jge	$+110    	;abs 0x4a50
    49e4:	5f 4d 41 58 	mov.b	22593(r13),r15	;0x5841(r13)
    49e8:	00 01       	.word	0x0100;	????	
    49ea:	98 01       	.word	0x0198;	????	
    49ec:	55 49 4e 54 	mov.b	21582(r9),r5	;0x544e(r9)
    49f0:	5f 46 41 53 	mov.b	21313(r6),r15	;0x5341(r6)
    49f4:	54 38       	jl	$+170    	;abs 0x4a9e
    49f6:	5f 4d 41 58 	mov.b	22593(r13),r15	;0x5841(r13)
    49fa:	20 55       	add	@r5,	r0	
    49fc:	49 4e       	mov.b	r14,	r9	
    49fe:	54 38       	jl	$+170    	;abs 0x4aa8
    4a00:	5f 4d 41 58 	mov.b	22593(r13),r15	;0x5841(r13)
    4a04:	00 01       	.word	0x0100;	????	
    4a06:	99 01       	.word	0x0199;	????	
    4a08:	55 49 4e 54 	mov.b	21582(r9),r5	;0x544e(r9)
    4a0c:	5f 46 41 53 	mov.b	21313(r6),r15	;0x5341(r6)
    4a10:	54 31       	jn	$+682    	;abs 0x4cba
    4a12:	36 5f       	add	@r15+,	r6	
    4a14:	4d 41       	mov.b	r1,	r13	
    4a16:	58 20       	jnz	$+178    	;abs 0x4ac8
    4a18:	55 49 4e 54 	mov.b	21582(r9),r5	;0x544e(r9)
    4a1c:	31 36       	jge	$-924    	;abs 0x4680
    4a1e:	5f 4d 41 58 	mov.b	22593(r13),r15	;0x5841(r13)
    4a22:	00 01       	.word	0x0100;	????	
    4a24:	9a 01       	.word	0x019a;	????	
    4a26:	55 49 4e 54 	mov.b	21582(r9),r5	;0x544e(r9)
    4a2a:	5f 46 41 53 	mov.b	21313(r6),r15	;0x5341(r6)
    4a2e:	54 33       	jn	$-342    	;abs 0x48d8
    4a30:	32 5f       	add	@r15+,	r2	
    4a32:	4d 41       	mov.b	r1,	r13	
    4a34:	58 20       	jnz	$+178    	;abs 0x4ae6
    4a36:	55 49 4e 54 	mov.b	21582(r9),r5	;0x544e(r9)
    4a3a:	33 32       	jn	$-920    	;abs 0x46a2
    4a3c:	5f 4d 41 58 	mov.b	22593(r13),r15	;0x5841(r13)
    4a40:	00 01       	.word	0x0100;	????	
    4a42:	9b 01       	.word	0x019b;	????	
    4a44:	55 49 4e 54 	mov.b	21582(r9),r5	;0x544e(r9)
    4a48:	5f 46 41 53 	mov.b	21313(r6),r15	;0x5341(r6)
    4a4c:	54 36       	jge	$-854    	;abs 0x46f6
    4a4e:	34 5f       	add	@r15+,	r4	
    4a50:	4d 41       	mov.b	r1,	r13	
    4a52:	58 20       	jnz	$+178    	;abs 0x4b04
    4a54:	55 49 4e 54 	mov.b	21582(r9),r5	;0x544e(r9)
    4a58:	36 34       	jge	$+110    	;abs 0x4ac6
    4a5a:	5f 4d 41 58 	mov.b	22593(r13),r15	;0x5841(r13)
    4a5e:	00 01       	.word	0x0100;	????	
    4a60:	a4 01       	.word	0x01a4;	????	
    4a62:	49 4e       	mov.b	r14,	r9	
    4a64:	54 50 54 52 	add.b	21076(r0),r4	;PC rel. 0x9cba
    4a68:	5f 4d 49 4e 	mov.b	20041(r13),r15	;0x4e49(r13)
    4a6c:	20 49       	br	@r9		
    4a6e:	4e 54       	add.b	r4,	r14	
    4a70:	31 36       	jge	$-924    	;abs 0x46d4
    4a72:	5f 4d 49 4e 	mov.b	20041(r13),r15	;0x4e49(r13)
    4a76:	00 01       	.word	0x0100;	????	
    4a78:	a5 01       	.word	0x01a5;	????	
    4a7a:	49 4e       	mov.b	r14,	r9	
    4a7c:	54 50 54 52 	add.b	21076(r0),r4	;PC rel. 0x9cd2
    4a80:	5f 4d 41 58 	mov.b	22593(r13),r15	;0x5841(r13)
    4a84:	20 49       	br	@r9		
    4a86:	4e 54       	add.b	r4,	r14	
    4a88:	31 36       	jge	$-924    	;abs 0x46ec
    4a8a:	5f 4d 41 58 	mov.b	22593(r13),r15	;0x5841(r13)
    4a8e:	00 01       	.word	0x0100;	????	
    4a90:	a6 01       	.word	0x01a6;	????	
    4a92:	55 49 4e 54 	mov.b	21582(r9),r5	;0x544e(r9)
    4a96:	50 54 52 5f 	add.b	24402(r4),r0	;0x5f52(r4)
    4a9a:	4d 41       	mov.b	r1,	r13	
    4a9c:	58 20       	jnz	$+178    	;abs 0x4b4e
    4a9e:	55 49 4e 54 	mov.b	21582(r9),r5	;0x544e(r9)
    4aa2:	31 36       	jge	$-924    	;abs 0x4706
    4aa4:	5f 4d 41 58 	mov.b	22593(r13),r15	;0x5841(r13)
    4aa8:	00 01       	.word	0x0100;	????	
    4aaa:	aa 01       	.word	0x01aa;	????	
    4aac:	49 4e       	mov.b	r14,	r9	
    4aae:	54 4d 41 58 	mov.b	22593(r13),r4	;0x5841(r13)
    4ab2:	5f 4d 49 4e 	mov.b	20041(r13),r15	;0x4e49(r13)
    4ab6:	20 49       	br	@r9		
    4ab8:	4e 54       	add.b	r4,	r14	
    4aba:	36 34       	jge	$+110    	;abs 0x4b28
    4abc:	5f 4d 49 4e 	mov.b	20041(r13),r15	;0x4e49(r13)
    4ac0:	00 01       	.word	0x0100;	????	
    4ac2:	ac 01       	.word	0x01ac;	????	
    4ac4:	49 4e       	mov.b	r14,	r9	
    4ac6:	54 4d 41 58 	mov.b	22593(r13),r4	;0x5841(r13)
    4aca:	5f 4d 41 58 	mov.b	22593(r13),r15	;0x5841(r13)
    4ace:	20 49       	br	@r9		
    4ad0:	4e 54       	add.b	r4,	r14	
    4ad2:	36 34       	jge	$+110    	;abs 0x4b40
    4ad4:	5f 4d 41 58 	mov.b	22593(r13),r15	;0x5841(r13)
    4ad8:	00 01       	.word	0x0100;	????	
    4ada:	af 01       	.word	0x01af;	????	
    4adc:	55 49 4e 54 	mov.b	21582(r9),r5	;0x544e(r9)
    4ae0:	4d 41       	mov.b	r1,	r13	
    4ae2:	58 5f 4d 41 	add.b	16717(r15),r8	;0x414d(r15)
    4ae6:	58 20       	jnz	$+178    	;abs 0x4b98
    4ae8:	55 49 4e 54 	mov.b	21582(r9),r5	;0x544e(r9)
    4aec:	36 34       	jge	$+110    	;abs 0x4b5a
    4aee:	5f 4d 41 58 	mov.b	22593(r13),r15	;0x5841(r13)
    4af2:	00 01       	.word	0x0100;	????	
    4af4:	b7 01       	.word	0x01b7;	????	
    4af6:	50 54 52 44 	add.b	17490(r4),r0	;0x4452(r4)
    4afa:	49 46       	mov.b	r6,	r9	
    4afc:	46 5f       	add.b	r15,	r6	
    4afe:	4d 41       	mov.b	r1,	r13	
    4b00:	58 20       	jnz	$+178    	;abs 0x4bb2
    4b02:	49 4e       	mov.b	r14,	r9	
    4b04:	54 31       	jn	$+682    	;abs 0x4dae
    4b06:	36 5f       	add	@r15+,	r6	
    4b08:	4d 41       	mov.b	r1,	r13	
    4b0a:	58 00       	.word	0x0058;	????	
    4b0c:	01 b9       	bit	r9,	r1	
    4b0e:	01 50       	add	r0,	r1	
    4b10:	54 52 44 49 	add.b	&0x4944,r4	
    4b14:	46 46       	mov.b	r6,	r6	
    4b16:	5f 4d 49 4e 	mov.b	20041(r13),r15	;0x4e49(r13)
    4b1a:	20 28       	jnc	$+66     	;abs 0x4b5c
    4b1c:	2d 50       	add	@r0,	r13	
    4b1e:	54 52 44 49 	add.b	&0x4944,r4	
    4b22:	46 46       	mov.b	r6,	r6	
    4b24:	5f 4d 41 58 	mov.b	22593(r13),r15	;0x5841(r13)
    4b28:	20 2d       	jc	$+578    	;abs 0x4d6a
    4b2a:	20 31       	jn	$+578    	;abs 0x4d6c
    4b2c:	29 00       	.word	0x0029;	????	
    4b2e:	01 bc       	bit	r12,	r1	
    4b30:	01 53       	add	#0,	r1	;r3 As==00
    4b32:	49 47       	mov.b	r7,	r9	
    4b34:	5f 41 54 4f 	mov.b	20308(r1),r15	;0x4f54(r1)
    4b38:	4d 49       	mov.b	r9,	r13	
    4b3a:	43 5f       	.word	0x5f43;	????	Illegal as 2-op instr
    4b3c:	4d 49       	mov.b	r9,	r13	
    4b3e:	4e 20       	jnz	$+158    	;abs 0x4bdc
    4b40:	49 4e       	mov.b	r14,	r9	
    4b42:	54 31       	jn	$+682    	;abs 0x4dec
    4b44:	36 5f       	add	@r15+,	r6	
    4b46:	4d 49       	mov.b	r9,	r13	
    4b48:	4e 00       	.word	0x004e;	????	
    4b4a:	01 bd       	bit	r13,	r1	
    4b4c:	01 53       	add	#0,	r1	;r3 As==00
    4b4e:	49 47       	mov.b	r7,	r9	
    4b50:	5f 41 54 4f 	mov.b	20308(r1),r15	;0x4f54(r1)
    4b54:	4d 49       	mov.b	r9,	r13	
    4b56:	43 5f       	.word	0x5f43;	????	Illegal as 2-op instr
    4b58:	4d 41       	mov.b	r1,	r13	
    4b5a:	58 20       	jnz	$+178    	;abs 0x4c0c
    4b5c:	49 4e       	mov.b	r14,	r9	
    4b5e:	54 31       	jn	$+682    	;abs 0x4e08
    4b60:	36 5f       	add	@r15+,	r6	
    4b62:	4d 41       	mov.b	r1,	r13	
    4b64:	58 00       	.word	0x0058;	????	
    4b66:	01 c0       	bic	r0,	r1	
    4b68:	01 53       	add	#0,	r1	;r3 As==00
    4b6a:	49 5a       	add.b	r10,	r9	
    4b6c:	45 5f       	add.b	r15,	r5	
    4b6e:	4d 41       	mov.b	r1,	r13	
    4b70:	58 20       	jnz	$+178    	;abs 0x4c22
    4b72:	55 49 4e 54 	mov.b	21582(r9),r5	;0x544e(r9)
    4b76:	31 36       	jge	$-924    	;abs 0x47da
    4b78:	5f 4d 41 58 	mov.b	22593(r13),r15	;0x5841(r13)
    4b7c:	00 01       	.word	0x0100;	????	
    4b7e:	c5 01       	.word	0x01c5;	????	
    4b80:	57 43       	mov.b	#1,	r7	;r3 As==01
    4b82:	48 41       	mov.b	r1,	r8	
    4b84:	52 5f 4d 49 	add.b	18765(r15),r2	;0x494d(r15)
    4b88:	4e 20       	jnz	$+158    	;abs 0x4c26
    4b8a:	5f 5f 57 43 	add.b	17239(r15),r15	;0x4357(r15)
    4b8e:	48 41       	mov.b	r1,	r8	
    4b90:	52 5f 4d 49 	add.b	18765(r15),r2	;0x494d(r15)
    4b94:	4e 00       	.word	0x004e;	????	
    4b96:	01 c6       	bic	r6,	r1	
    4b98:	01 57       	add	r7,	r1	
    4b9a:	43 48       	.word	0x4843;	????	Illegal as 2-op instr
    4b9c:	41 52       	add.b	r2,	r1	
    4b9e:	5f 4d 41 58 	mov.b	22593(r13),r15	;0x5841(r13)
    4ba2:	20 5f       	add	@r15,	r0	
    4ba4:	5f 57 43 48 	add.b	18499(r7),r15	;0x4843(r7)
    4ba8:	41 52       	add.b	r2,	r1	
    4baa:	5f 4d 41 58 	mov.b	22593(r13),r15	;0x5841(r13)
    4bae:	00 01       	.word	0x0100;	????	
    4bb0:	ca 01       	.word	0x01ca;	????	
    4bb2:	57 49 4e 54 	mov.b	21582(r9),r7	;0x544e(r9)
    4bb6:	5f 4d 49 4e 	mov.b	20041(r13),r15	;0x4e49(r13)
    4bba:	20 28       	jnc	$+66     	;abs 0x4bfc
    4bbc:	30 55       	add	@r5+,	r0	
    4bbe:	29 00       	.word	0x0029;	????	
    4bc0:	01 cb       	bic	r11,	r1	
    4bc2:	01 57       	add	r7,	r1	
    4bc4:	49 4e       	mov.b	r14,	r9	
    4bc6:	54 5f 4d 41 	add.b	16717(r15),r4	;0x414d(r15)
    4bca:	58 20       	jnz	$+178    	;abs 0x4c7c
    4bcc:	28 36       	jge	$-942    	;abs 0x481e
    4bce:	35 35       	jge	$+620    	;abs 0x4e3a
    4bd0:	33 35       	jge	$+616    	;abs 0x4e38
    4bd2:	55 29       	jnc	$+684    	;abs 0x4e7e
    4bd4:	00 01       	.word	0x0100;	????	
    4bd6:	d4 01       	.word	0x01d4;	????	
    4bd8:	49 4e       	mov.b	r14,	r9	
    4bda:	54 38       	jl	$+170    	;abs 0x4c84
    4bdc:	5f 43       	mov.b	#1,	r15	;r3 As==01
    4bde:	28 63       	addc	#2,	r8	;r3 As==10
    4be0:	29 20       	jnz	$+84     	;abs 0x4c34
    4be2:	63 00       	.word	0x0063;	????	
    4be4:	01 d5       	bis	r5,	r1	
    4be6:	01 49       	mov	r9,	r1	
    4be8:	4e 54       	add.b	r4,	r14	
    4bea:	31 36       	jge	$-924    	;abs 0x484e
    4bec:	5f 43       	mov.b	#1,	r15	;r3 As==01
    4bee:	28 63       	addc	#2,	r8	;r3 As==10
    4bf0:	29 20       	jnz	$+84     	;abs 0x4c44
    4bf2:	63 00       	.word	0x0063;	????	
    4bf4:	01 d6       	bis	r6,	r1	
    4bf6:	01 49       	mov	r9,	r1	
    4bf8:	4e 54       	add.b	r4,	r14	
    4bfa:	33 32       	jn	$-920    	;abs 0x4862
    4bfc:	5f 43       	mov.b	#1,	r15	;r3 As==01
    4bfe:	28 63       	addc	#2,	r8	;r3 As==10
    4c00:	29 20       	jnz	$+84     	;abs 0x4c54
    4c02:	63 20       	jnz	$+200    	;abs 0x4cca
    4c04:	23 23       	jnz	$-440    	;abs 0x4a4c
    4c06:	20 4c       	br	@r12		
    4c08:	00 01       	.word	0x0100;	????	
    4c0a:	d7 01       	.word	0x01d7;	????	
    4c0c:	49 4e       	mov.b	r14,	r9	
    4c0e:	54 36       	jge	$-854    	;abs 0x48b8
    4c10:	34 5f       	add	@r15+,	r4	
    4c12:	43 28       	jnc	$+136    	;abs 0x4c9a
    4c14:	63 29       	jnc	$+712    	;abs 0x4edc
    4c16:	20 63       	addc	#2,	r0	;r3 As==10
    4c18:	20 23       	jnz	$-446    	;abs 0x4a5a
    4c1a:	23 20       	jnz	$+72     	;abs 0x4c62
    4c1c:	4c 4c       	mov.b	r12,	r12	
    4c1e:	00 01       	.word	0x0100;	????	
    4c20:	da 01       	.word	0x01da;	????	
    4c22:	55 49 4e 54 	mov.b	21582(r9),r5	;0x544e(r9)
    4c26:	38 5f       	add	@r15+,	r8	
    4c28:	43 28       	jnc	$+136    	;abs 0x4cb0
    4c2a:	63 29       	jnc	$+712    	;abs 0x4ef2
    4c2c:	20 63       	addc	#2,	r0	;r3 As==10
    4c2e:	20 23       	jnz	$-446    	;abs 0x4a70
    4c30:	23 20       	jnz	$+72     	;abs 0x4c78
    4c32:	55 00       	.word	0x0055;	????	
    4c34:	01 db       	bis	r11,	r1	
    4c36:	01 55       	add	r5,	r1	
    4c38:	49 4e       	mov.b	r14,	r9	
    4c3a:	54 31       	jn	$+682    	;abs 0x4ee4
    4c3c:	36 5f       	add	@r15+,	r6	
    4c3e:	43 28       	jnc	$+136    	;abs 0x4cc6
    4c40:	63 29       	jnc	$+712    	;abs 0x4f08
    4c42:	20 63       	addc	#2,	r0	;r3 As==10
    4c44:	20 23       	jnz	$-446    	;abs 0x4a86
    4c46:	23 20       	jnz	$+72     	;abs 0x4c8e
    4c48:	55 00       	.word	0x0055;	????	
    4c4a:	01 dc       	bis	r12,	r1	
    4c4c:	01 55       	add	r5,	r1	
    4c4e:	49 4e       	mov.b	r14,	r9	
    4c50:	54 33       	jn	$-342    	;abs 0x4afa
    4c52:	32 5f       	add	@r15+,	r2	
    4c54:	43 28       	jnc	$+136    	;abs 0x4cdc
    4c56:	63 29       	jnc	$+712    	;abs 0x4f1e
    4c58:	20 63       	addc	#2,	r0	;r3 As==10
    4c5a:	20 23       	jnz	$-446    	;abs 0x4a9c
    4c5c:	23 20       	jnz	$+72     	;abs 0x4ca4
    4c5e:	55 4c 00 01 	mov.b	256(r12),r5	;0x0100(r12)
    4c62:	dd 01       	.word	0x01dd;	????	
    4c64:	55 49 4e 54 	mov.b	21582(r9),r5	;0x544e(r9)
    4c68:	36 34       	jge	$+110    	;abs 0x4cd6
    4c6a:	5f 43       	mov.b	#1,	r15	;r3 As==01
    4c6c:	28 63       	addc	#2,	r8	;r3 As==10
    4c6e:	29 20       	jnz	$+84     	;abs 0x4cc2
    4c70:	63 20       	jnz	$+200    	;abs 0x4d38
    4c72:	23 23       	jnz	$-440    	;abs 0x4aba
    4c74:	20 55       	add	@r5,	r0	
    4c76:	4c 4c       	mov.b	r12,	r12	
    4c78:	00 01       	.word	0x0100;	????	
    4c7a:	e0 01       	.word	0x01e0;	????	
    4c7c:	49 4e       	mov.b	r14,	r9	
    4c7e:	54 4d 41 58 	mov.b	22593(r13),r4	;0x5841(r13)
    4c82:	5f 43       	mov.b	#1,	r15	;r3 As==01
    4c84:	28 63       	addc	#2,	r8	;r3 As==10
    4c86:	29 20       	jnz	$+84     	;abs 0x4cda
    4c88:	63 20       	jnz	$+200    	;abs 0x4d50
    4c8a:	23 23       	jnz	$-440    	;abs 0x4ad2
    4c8c:	20 4c       	br	@r12		
    4c8e:	4c 00       	.word	0x004c;	????	
    4c90:	01 e1       	xor	r1,	r1	
    4c92:	01 55       	add	r5,	r1	
    4c94:	49 4e       	mov.b	r14,	r9	
    4c96:	54 4d 41 58 	mov.b	22593(r13),r4	;0x5841(r13)
    4c9a:	5f 43       	mov.b	#1,	r15	;r3 As==01
    4c9c:	28 63       	addc	#2,	r8	;r3 As==10
    4c9e:	29 20       	jnz	$+84     	;abs 0x4cf2
    4ca0:	63 20       	jnz	$+200    	;abs 0x4d68
    4ca2:	23 23       	jnz	$-440    	;abs 0x4aea
    4ca4:	20 55       	add	@r5,	r0	
    4ca6:	4c 4c       	mov.b	r12,	r12	
    4ca8:	00 04       	.word	0x0400;	????	
    4caa:	01 18       	.word	0x1801;	????	
    4cac:	4e 4f       	mov.b	r15,	r14	
    4cae:	44 45       	mov.b	r5,	r4	
    4cb0:	20 30       	jn	$+66     	;abs 0x4cf2
    4cb2:	78 30       	jn	$+242    	;abs 0x4da4
    4cb4:	31 00       	.word	0x0031;	????	
    4cb6:	01 23       	jnz	$-508    	;abs 0x4aba
    4cb8:	42 41       	mov.b	r1,	r2	
    4cba:	55 44 48 5f 	mov.b	24392(r4),r5	;0x5f48(r4)
    4cbe:	31 31       	jn	$+612    	;abs 0x4f22
    4cc0:	35 6b       	addc	@r11+,	r5	
    4cc2:	32 20       	jnz	$+102    	;abs 0x4d28
    4cc4:	30 78       	subc	@r8+,	r0	
    4cc6:	30 30       	jn	$+98     	;abs 0x4d28
    4cc8:	00 01       	.word	0x0100;	????	
    4cca:	24 42       	mov	#4,	r4	;r2 As==10
    4ccc:	41 55       	add.b	r5,	r1	
    4cce:	44 4c       	mov.b	r12,	r4	
    4cd0:	5f 31       	jn	$+704    	;abs 0x4f90
    4cd2:	31 35       	jge	$+612    	;abs 0x4f36
    4cd4:	6b 32       	jn	$-808    	;abs 0x49ac
    4cd6:	20 30       	jn	$+66     	;abs 0x4d18
    4cd8:	78 38       	jl	$+242    	;abs 0x4dca
    4cda:	42 00       	.word	0x0042;	????	
    4cdc:	01 27       	jz	$-508    	;abs 0x4ae0
    4cde:	47 53       	add.b	#0,	r7	;r3 As==00
    4ce0:	43 4c       	.word	0x4c43;	????	Illegal as 2-op instr
    4ce2:	4b 5f       	add.b	r15,	r11	
    4ce4:	54 49 43 53 	mov.b	21315(r9),r4	;0x5343(r9)
    4ce8:	20 30       	jn	$+66     	;abs 0x4d2a
    4cea:	78 31       	jn	$+754    	;abs 0x4fdc
    4cec:	30 30       	jn	$+98     	;abs 0x4d4e
    4cee:	30 00       	.word	0x0030;	????	
    4cf0:	01 2a       	jnc	$-1020   	;abs 0x48f4
    4cf2:	43 4d       	.word	0x4d43;	????	Illegal as 2-op instr
    4cf4:	44 5f       	add.b	r15,	r4	
    4cf6:	4d 41       	mov.b	r1,	r13	
    4cf8:	53 4b       	.word	0x4b53;	????	Illegal as 2-op instr
    4cfa:	20 30       	jn	$+66     	;abs 0x4d3c
    4cfc:	78 46       	mov.b	@r6+,	r8	
    4cfe:	30 00       	.word	0x0030;	????	
    4d00:	01 2b       	jnc	$-508    	;abs 0x4b04
    4d02:	4e 4f       	mov.b	r15,	r14	
    4d04:	44 45       	mov.b	r5,	r4	
    4d06:	5f 4d 41 53 	mov.b	21313(r13),r15	;0x5341(r13)
    4d0a:	4b 20       	jnz	$+152    	;abs 0x4da2
    4d0c:	30 78       	subc	@r8+,	r0	
    4d0e:	30 46       	br	@r6+		
    4d10:	00 01       	.word	0x0100;	????	
    4d12:	37 50 49 4e 	add	#20041,	r7	;#0x4e49
    4d16:	5f 56 50 52 	add.b	21072(r6),r15	;0x5250(r6)
    4d1a:	47 20       	jnz	$+144    	;abs 0x4daa
    4d1c:	42 49       	mov.b	r9,	r2	
    4d1e:	54 30       	jn	$+170    	;abs 0x4dc8
    4d20:	00 01       	.word	0x0100;	????	
    4d22:	38 50 49 4e 	add	#20041,	r8	;#0x4e49
    4d26:	5f 44 43 50 	mov.b	20547(r4),r15	;0x5043(r4)
    4d2a:	52 47 20 42 	mov.b	16928(r7),r2	;0x4220(r7)
    4d2e:	49 54       	add.b	r4,	r9	
    4d30:	36 00       	.word	0x0036;	????	
    4d32:	01 3b       	jl	$-508    	;abs 0x4b36
    4d34:	50 49 4e 5f 	br	24398(r9)	;0x5f4e(r9)
    4d38:	47 53       	add.b	#0,	r7	;r3 As==00
    4d3a:	43 4c       	.word	0x4c43;	????	Illegal as 2-op instr
    4d3c:	4b 20       	jnz	$+152    	;abs 0x4dd4
    4d3e:	42 49       	mov.b	r9,	r2	
    4d40:	54 34       	jge	$+170    	;abs 0x4dea
    4d42:	00 01       	.word	0x0100;	????	
    4d44:	3c 50 49 4e 	add	#20041,	r12	;#0x4e49
    4d48:	5f 53       	inc.b	r15		
    4d4a:	43 4c       	.word	0x4c43;	????	Illegal as 2-op instr
    4d4c:	4b 20       	jnz	$+152    	;abs 0x4de4
    4d4e:	42 49       	mov.b	r9,	r2	
    4d50:	54 35       	jge	$+682    	;abs 0x4ffa
    4d52:	00 01       	.word	0x0100;	????	
    4d54:	3d 50 49 4e 	add	#20041,	r13	;#0x4e49
    4d58:	5f 53       	inc.b	r15		
    4d5a:	49 4e       	mov.b	r14,	r9	
    4d5c:	20 42       	br	#4		;r2 As==10
    4d5e:	49 54       	add.b	r4,	r9	
    4d60:	37 00       	.word	0x0037;	????	
    4d62:	01 3f       	jmp	$-508    	;abs 0x4b66
    4d64:	50 49 4e 5f 	br	24398(r9)	;0x5f4e(r9)
    4d68:	58 4c 41 54 	mov.b	21569(r12),r8	;0x5441(r12)
    4d6c:	20 42       	br	#4		;r2 As==10
    4d6e:	49 54       	add.b	r4,	r9	
    4d70:	31 00       	.word	0x0031;	????	
    4d72:	01 40       	mov	r0,	r1	
    4d74:	50 49 4e 5f 	br	24398(r9)	;0x5f4e(r9)
    4d78:	42 4c       	mov.b	r12,	r2	
    4d7a:	41 4e       	mov.b	r14,	r1	
    4d7c:	4b 20       	jnz	$+152    	;abs 0x4e14
    4d7e:	42 49       	mov.b	r9,	r2	
    4d80:	54 32       	jn	$-854    	;abs 0x4a2a
    4d82:	00 01       	.word	0x0100;	????	
    4d84:	42 54       	add.b	r4,	r2	
    4d86:	41 30       	jn	$+132    	;abs 0x4e0a
    4d88:	5f 53       	inc.b	r15		
    4d8a:	54 4f 50 20 	mov.b	8272(r15),r4	;0x2050(r15)
    4d8e:	30 78       	subc	@r8+,	r0	
    4d90:	30 30       	jn	$+98     	;abs 0x4df2
    4d92:	33 30       	jn	$+104    	;abs 0x4dfa
    4d94:	00 01       	.word	0x0100;	????	
    4d96:	43 54       	.word	0x5443;	????	Illegal as 2-op instr
    4d98:	41 30       	jn	$+132    	;abs 0x4e1c
    4d9a:	5f 55 50 20 	add.b	8272(r5),r15	;0x2050(r5)
    4d9e:	30 78       	subc	@r8+,	r0	
    4da0:	30 30       	jn	$+98     	;abs 0x4e02
    4da2:	31 30       	jn	$+100    	;abs 0x4e06
    4da4:	00 01       	.word	0x0100;	????	
    4da6:	45 49       	mov.b	r9,	r5	
    4da8:	4e 44       	mov.b	r4,	r14	
    4daa:	45 58       	add.b	r8,	r5	
    4dac:	5f 4d 41 58 	mov.b	22593(r13),r15	;0x5841(r13)
    4db0:	20 32       	jn	$-958    	;abs 0x49f2
    4db2:	35 00       	.word	0x0035;	????	
    4db4:	01 48       	mov	r8,	r1	
    4db6:	54 58 4c 45 	add.b	17740(r8),r4	;0x454c(r8)
    4dba:	44 20       	jnz	$+138    	;abs 0x4e44
    4dbc:	42 49       	mov.b	r9,	r2	
    4dbe:	54 36       	jge	$-854    	;abs 0x4a68
    4dc0:	00 01       	.word	0x0100;	????	
    4dc2:	49 52       	add.b	r2,	r9	
    4dc4:	58 4c 45 44 	mov.b	17477(r12),r8	;0x4445(r12)
    4dc8:	20 42       	br	#4		;r2 As==10
    4dca:	49 54       	add.b	r4,	r9	
    4dcc:	30 00       	.word	0x0030;	????	
    4dce:	01 4a       	mov	r10,	r1	
    4dd0:	54 58 44 20 	add.b	8260(r8),r4	;0x2044(r8)
    4dd4:	42 49       	mov.b	r9,	r2	
    4dd6:	54 32       	jn	$-854    	;abs 0x4a80
    4dd8:	00 01       	.word	0x0100;	????	
    4dda:	4b 52       	add.b	r2,	r11	
    4ddc:	58 44 20 42 	mov.b	16928(r4),r8	;0x4220(r4)
    4de0:	49 54       	add.b	r4,	r9	
    4de2:	31 00       	.word	0x0031;	????	
    4de4:	01 4d       	mov	r13,	r1	
    4de6:	54 58 53 50 	add.b	20563(r8),r4	;0x5053(r8)
    4dea:	49 20       	jnz	$+148    	;abs 0x4e7e
    4dec:	42 49       	mov.b	r9,	r2	
    4dee:	54 37       	jge	$-342    	;abs 0x4c98
    4df0:	00 04       	.word	0x0400;	????	
	...

Disassembly of section .debug_ranges:

00000000 <.debug_ranges>:
   0:	84 c1 c8 c3 	bic	r1,	-15416(r4);0xc3c8(r4)
   4:	3e c0 7a c1 	bic	#-16006,r14	;#0xc17a
   8:	00 00       	.word	0x0000;	????	
	...
